
SD_MMC_EXAMPLE22_FatFS.elf:     file format elf32-littlearm

Sections:
Idx Name          Size      VMA       LMA       File off  Algn
  0 .text         00006388  00000000  00000000  00010000  2**2
                  CONTENTS, ALLOC, LOAD, READONLY, CODE
  1 .ARM.exidx    00000008  00006388  00006388  00016388  2**2
                  CONTENTS, ALLOC, LOAD, READONLY, DATA
  2 .relocate     00000098  20000000  00006390  00020000  2**2
                  CONTENTS, ALLOC, LOAD, CODE
  3 .bss          0000014c  20000098  00006428  00020098  2**2
                  ALLOC
  4 .stack        00002004  200001e4  00006574  00020098  2**0
                  ALLOC
  5 .ARM.attributes 00000028  00000000  00000000  00020098  2**0
                  CONTENTS, READONLY
  6 .comment      00000059  00000000  00000000  000200c0  2**0
                  CONTENTS, READONLY
  7 .debug_frame  000008bc  00000000  00000000  0002011c  2**2
                  CONTENTS, READONLY, DEBUGGING

Disassembly of section .text:

00000000 <exception_table>:
       0:	e8 21 00 20 3d 2a 00 00 39 2a 00 00 39 2a 00 00     .!. =*..9*..9*..
	...
      2c:	39 2a 00 00 00 00 00 00 00 00 00 00 39 2a 00 00     9*..........9*..
      3c:	39 2a 00 00 39 2a 00 00 39 2a 00 00 39 2a 00 00     9*..9*..9*..9*..
      4c:	39 2a 00 00 39 2a 00 00 39 2a 00 00 39 2a 00 00     9*..9*..9*..9*..
      5c:	39 2a 00 00 39 2a 00 00 b9 17 00 00 c9 17 00 00     9*..9*..........
      6c:	d9 17 00 00 e9 17 00 00 f9 17 00 00 09 18 00 00     ................
      7c:	39 2a 00 00 39 2a 00 00 39 2a 00 00 39 2a 00 00     9*..9*..9*..9*..
      8c:	39 2a 00 00 39 2a 00 00 00 00 00 00 00 00 00 00     9*..9*..........
      9c:	39 2a 00 00 39 2a 00 00 00 00 00 00 39 2a 00 00     9*..9*......9*..
	...

000000b4 <__do_global_dtors_aux>:
      b4:	b510      	push	{r4, lr}
      b6:	4c06      	ldr	r4, [pc, #24]	; (d0 <__do_global_dtors_aux+0x1c>)
      b8:	7823      	ldrb	r3, [r4, #0]
      ba:	2b00      	cmp	r3, #0
      bc:	d107      	bne.n	ce <__do_global_dtors_aux+0x1a>
      be:	4b05      	ldr	r3, [pc, #20]	; (d4 <__do_global_dtors_aux+0x20>)
      c0:	2b00      	cmp	r3, #0
      c2:	d002      	beq.n	ca <__do_global_dtors_aux+0x16>
      c4:	4804      	ldr	r0, [pc, #16]	; (d8 <__do_global_dtors_aux+0x24>)
      c6:	e000      	b.n	ca <__do_global_dtors_aux+0x16>
      c8:	bf00      	nop
      ca:	2301      	movs	r3, #1
      cc:	7023      	strb	r3, [r4, #0]
      ce:	bd10      	pop	{r4, pc}
      d0:	20000098 	.word	0x20000098
      d4:	00000000 	.word	0x00000000
      d8:	00006390 	.word	0x00006390

000000dc <frame_dummy>:
      dc:	4b08      	ldr	r3, [pc, #32]	; (100 <frame_dummy+0x24>)
      de:	b510      	push	{r4, lr}
      e0:	2b00      	cmp	r3, #0
      e2:	d003      	beq.n	ec <frame_dummy+0x10>
      e4:	4907      	ldr	r1, [pc, #28]	; (104 <frame_dummy+0x28>)
      e6:	4808      	ldr	r0, [pc, #32]	; (108 <frame_dummy+0x2c>)
      e8:	e000      	b.n	ec <frame_dummy+0x10>
      ea:	bf00      	nop
      ec:	4807      	ldr	r0, [pc, #28]	; (10c <frame_dummy+0x30>)
      ee:	6803      	ldr	r3, [r0, #0]
      f0:	2b00      	cmp	r3, #0
      f2:	d100      	bne.n	f6 <frame_dummy+0x1a>
      f4:	bd10      	pop	{r4, pc}
      f6:	4b06      	ldr	r3, [pc, #24]	; (110 <frame_dummy+0x34>)
      f8:	2b00      	cmp	r3, #0
      fa:	d0fb      	beq.n	f4 <frame_dummy+0x18>
      fc:	4798      	blx	r3
      fe:	e7f9      	b.n	f4 <frame_dummy+0x18>
     100:	00000000 	.word	0x00000000
     104:	2000009c 	.word	0x2000009c
     108:	00006390 	.word	0x00006390
     10c:	00006390 	.word	0x00006390
     110:	00000000 	.word	0x00000000

00000114 <SDMMC_UNSTUFF_BITS>:
     114:	b570      	push	{r4, r5, r6, lr}
     116:	2507      	movs	r5, #7
     118:	1a8c      	subs	r4, r1, r2
     11a:	3407      	adds	r4, #7
     11c:	17e1      	asrs	r1, r4, #31
     11e:	4029      	ands	r1, r5
     120:	1909      	adds	r1, r1, r4
     122:	10c9      	asrs	r1, r1, #3
     124:	1840      	adds	r0, r0, r1
     126:	1e41      	subs	r1, r0, #1
     128:	402a      	ands	r2, r5
     12a:	7809      	ldrb	r1, [r1, #0]
     12c:	18d6      	adds	r6, r2, r3
     12e:	4111      	asrs	r1, r2
     130:	2e08      	cmp	r6, #8
     132:	dd0d      	ble.n	150 <SDMMC_UNSTUFF_BITS+0x3c>
     134:	1e84      	subs	r4, r0, #2
     136:	7824      	ldrb	r4, [r4, #0]
     138:	3501      	adds	r5, #1
     13a:	1aad      	subs	r5, r5, r2
     13c:	40ac      	lsls	r4, r5
     13e:	4321      	orrs	r1, r4
     140:	2e10      	cmp	r6, #16
     142:	dd05      	ble.n	150 <SDMMC_UNSTUFF_BITS+0x3c>
     144:	2410      	movs	r4, #16
     146:	3803      	subs	r0, #3
     148:	7800      	ldrb	r0, [r0, #0]
     14a:	1aa2      	subs	r2, r4, r2
     14c:	4090      	lsls	r0, r2
     14e:	4301      	orrs	r1, r0
     150:	2001      	movs	r0, #1
     152:	4098      	lsls	r0, r3
     154:	3801      	subs	r0, #1
     156:	4008      	ands	r0, r1
     158:	bd70      	pop	{r4, r5, r6, pc}
	...

0000015c <sd_mmc_configure_slot>:
     15c:	b510      	push	{r4, lr}
     15e:	4b07      	ldr	r3, [pc, #28]	; (17c <sd_mmc_configure_slot+0x20>)
     160:	4807      	ldr	r0, [pc, #28]	; (180 <sd_mmc_configure_slot+0x24>)
     162:	6819      	ldr	r1, [r3, #0]
     164:	7800      	ldrb	r0, [r0, #0]
     166:	1ccb      	adds	r3, r1, #3
     168:	7fdb      	ldrb	r3, [r3, #31]
     16a:	4c06      	ldr	r4, [pc, #24]	; (184 <sd_mmc_configure_slot+0x28>)
     16c:	1e5a      	subs	r2, r3, #1
     16e:	4193      	sbcs	r3, r2
     170:	7c4a      	ldrb	r2, [r1, #17]
     172:	b2db      	uxtb	r3, r3
     174:	6809      	ldr	r1, [r1, #0]
     176:	47a0      	blx	r4
     178:	bd10      	pop	{r4, pc}
     17a:	46c0      	nop			; (mov r8, r8)
     17c:	200000b4 	.word	0x200000b4
     180:	200000bd 	.word	0x200000bd
     184:	00000da1 	.word	0x00000da1

00000188 <sd_mmc_cmd13>:
     188:	b570      	push	{r4, r5, r6, lr}
     18a:	26ff      	movs	r6, #255	; 0xff
     18c:	4d08      	ldr	r5, [pc, #32]	; (1b0 <sd_mmc_cmd13+0x28>)
     18e:	2100      	movs	r1, #0
     190:	4808      	ldr	r0, [pc, #32]	; (1b4 <sd_mmc_cmd13+0x2c>)
     192:	4b09      	ldr	r3, [pc, #36]	; (1b8 <sd_mmc_cmd13+0x30>)
     194:	4798      	blx	r3
     196:	1e04      	subs	r4, r0, #0
     198:	d102      	bne.n	1a0 <sd_mmc_cmd13+0x18>
     19a:	2400      	movs	r4, #0
     19c:	0020      	movs	r0, r4
     19e:	bd70      	pop	{r4, r5, r6, pc}
     1a0:	4b06      	ldr	r3, [pc, #24]	; (1bc <sd_mmc_cmd13+0x34>)
     1a2:	4798      	blx	r3
     1a4:	4230      	tst	r0, r6
     1a6:	d0f9      	beq.n	19c <sd_mmc_cmd13+0x14>
     1a8:	3d01      	subs	r5, #1
     1aa:	2d00      	cmp	r5, #0
     1ac:	d1ef      	bne.n	18e <sd_mmc_cmd13+0x6>
     1ae:	e7f4      	b.n	19a <sd_mmc_cmd13+0x12>
     1b0:	00030d41 	.word	0x00030d41
     1b4:	00001b0d 	.word	0x00001b0d
     1b8:	00000fad 	.word	0x00000fad
     1bc:	00000fc1 	.word	0x00000fc1

000001c0 <sd_mmc_deselect_slot>:
     1c0:	b510      	push	{r4, lr}
     1c2:	4b03      	ldr	r3, [pc, #12]	; (1d0 <sd_mmc_deselect_slot+0x10>)
     1c4:	7818      	ldrb	r0, [r3, #0]
     1c6:	2800      	cmp	r0, #0
     1c8:	d101      	bne.n	1ce <sd_mmc_deselect_slot+0xe>
     1ca:	4b02      	ldr	r3, [pc, #8]	; (1d4 <sd_mmc_deselect_slot+0x14>)
     1cc:	4798      	blx	r3
     1ce:	bd10      	pop	{r4, pc}
     1d0:	200000bd 	.word	0x200000bd
     1d4:	00000df5 	.word	0x00000df5

000001d8 <sd_mmc_select_slot>:
     1d8:	b570      	push	{r4, r5, r6, lr}
     1da:	2304      	movs	r3, #4
     1dc:	2800      	cmp	r0, #0
     1de:	d11b      	bne.n	218 <sd_mmc_select_slot+0x40>
     1e0:	4c37      	ldr	r4, [pc, #220]	; (2c0 <sd_mmc_select_slot+0xe8>)
     1e2:	7a23      	ldrb	r3, [r4, #8]
     1e4:	095a      	lsrs	r2, r3, #5
     1e6:	09d9      	lsrs	r1, r3, #7
     1e8:	d167      	bne.n	2ba <sd_mmc_select_slot+0xe2>
     1ea:	4836      	ldr	r0, [pc, #216]	; (2c4 <sd_mmc_select_slot+0xec>)
     1ec:	01d2      	lsls	r2, r2, #7
     1ee:	1812      	adds	r2, r2, r0
     1f0:	6a15      	ldr	r5, [r2, #32]
     1f2:	2601      	movs	r6, #1
     1f4:	221f      	movs	r2, #31
     1f6:	4013      	ands	r3, r2
     1f8:	0032      	movs	r2, r6
     1fa:	409a      	lsls	r2, r3
     1fc:	7ba3      	ldrb	r3, [r4, #14]
     1fe:	4015      	ands	r5, r2
     200:	d00c      	beq.n	21c <sd_mmc_select_slot+0x44>
     202:	42b3      	cmp	r3, r6
     204:	d105      	bne.n	212 <sd_mmc_select_slot+0x3a>
     206:	4b30      	ldr	r3, [pc, #192]	; (2c8 <sd_mmc_select_slot+0xf0>)
     208:	781b      	ldrb	r3, [r3, #0]
     20a:	2b00      	cmp	r3, #0
     20c:	d001      	beq.n	212 <sd_mmc_select_slot+0x3a>
     20e:	4b2f      	ldr	r3, [pc, #188]	; (2cc <sd_mmc_select_slot+0xf4>)
     210:	6019      	str	r1, [r3, #0]
     212:	2304      	movs	r3, #4
     214:	73a3      	strb	r3, [r4, #14]
     216:	2302      	movs	r3, #2
     218:	0018      	movs	r0, r3
     21a:	bd70      	pop	{r4, r5, r6, pc}
     21c:	2b04      	cmp	r3, #4
     21e:	d126      	bne.n	26e <sd_mmc_select_slot+0x96>
     220:	73a6      	strb	r6, [r4, #14]
     222:	4c2a      	ldr	r4, [pc, #168]	; (2cc <sd_mmc_select_slot+0xf4>)
     224:	4a28      	ldr	r2, [pc, #160]	; (2c8 <sd_mmc_select_slot+0xf0>)
     226:	6820      	ldr	r0, [r4, #0]
     228:	4b29      	ldr	r3, [pc, #164]	; (2d0 <sd_mmc_select_slot+0xf8>)
     22a:	2800      	cmp	r0, #0
     22c:	d10b      	bne.n	246 <sd_mmc_select_slot+0x6e>
     22e:	7016      	strb	r6, [r2, #0]
     230:	4798      	blx	r3
     232:	21fa      	movs	r1, #250	; 0xfa
     234:	4b27      	ldr	r3, [pc, #156]	; (2d4 <sd_mmc_select_slot+0xfc>)
     236:	0149      	lsls	r1, r1, #5
     238:	4798      	blx	r3
     23a:	23fa      	movs	r3, #250	; 0xfa
     23c:	009b      	lsls	r3, r3, #2
     23e:	4358      	muls	r0, r3
     240:	6060      	str	r0, [r4, #4]
     242:	6026      	str	r6, [r4, #0]
     244:	e7e7      	b.n	216 <sd_mmc_select_slot+0x3e>
     246:	0028      	movs	r0, r5
     248:	7015      	strb	r5, [r2, #0]
     24a:	4798      	blx	r3
     24c:	22fa      	movs	r2, #250	; 0xfa
     24e:	2300      	movs	r3, #0
     250:	0092      	lsls	r2, r2, #2
     252:	0029      	movs	r1, r5
     254:	4c20      	ldr	r4, [pc, #128]	; (2d8 <sd_mmc_select_slot+0x100>)
     256:	47a0      	blx	r4
     258:	2300      	movs	r3, #0
     25a:	4a20      	ldr	r2, [pc, #128]	; (2dc <sd_mmc_select_slot+0x104>)
     25c:	4c20      	ldr	r4, [pc, #128]	; (2e0 <sd_mmc_select_slot+0x108>)
     25e:	1880      	adds	r0, r0, r2
     260:	4159      	adcs	r1, r3
     262:	4a20      	ldr	r2, [pc, #128]	; (2e4 <sd_mmc_select_slot+0x10c>)
     264:	2300      	movs	r3, #0
     266:	47a0      	blx	r4
     268:	4b1f      	ldr	r3, [pc, #124]	; (2e8 <sd_mmc_select_slot+0x110>)
     26a:	4798      	blx	r3
     26c:	e7d3      	b.n	216 <sd_mmc_select_slot+0x3e>
     26e:	2b01      	cmp	r3, #1
     270:	d112      	bne.n	298 <sd_mmc_select_slot+0xc0>
     272:	4b15      	ldr	r3, [pc, #84]	; (2c8 <sd_mmc_select_slot+0xf0>)
     274:	781b      	ldrb	r3, [r3, #0]
     276:	2b00      	cmp	r3, #0
     278:	d005      	beq.n	286 <sd_mmc_select_slot+0xae>
     27a:	4a14      	ldr	r2, [pc, #80]	; (2cc <sd_mmc_select_slot+0xf4>)
     27c:	2302      	movs	r3, #2
     27e:	6811      	ldr	r1, [r2, #0]
     280:	03c9      	lsls	r1, r1, #15
     282:	d5c9      	bpl.n	218 <sd_mmc_select_slot+0x40>
     284:	6015      	str	r5, [r2, #0]
     286:	2302      	movs	r3, #2
     288:	73a3      	strb	r3, [r4, #14]
     28a:	4b18      	ldr	r3, [pc, #96]	; (2ec <sd_mmc_select_slot+0x114>)
     28c:	2200      	movs	r2, #0
     28e:	6023      	str	r3, [r4, #0]
     290:	2301      	movs	r3, #1
     292:	7463      	strb	r3, [r4, #17]
     294:	1ce3      	adds	r3, r4, #3
     296:	77da      	strb	r2, [r3, #31]
     298:	2303      	movs	r3, #3
     29a:	7ba2      	ldrb	r2, [r4, #14]
     29c:	429a      	cmp	r2, r3
     29e:	d0bb      	beq.n	218 <sd_mmc_select_slot+0x40>
     2a0:	2200      	movs	r2, #0
     2a2:	4b13      	ldr	r3, [pc, #76]	; (2f0 <sd_mmc_select_slot+0x118>)
     2a4:	701a      	strb	r2, [r3, #0]
     2a6:	4b13      	ldr	r3, [pc, #76]	; (2f4 <sd_mmc_select_slot+0x11c>)
     2a8:	601c      	str	r4, [r3, #0]
     2aa:	4b13      	ldr	r3, [pc, #76]	; (2f8 <sd_mmc_select_slot+0x120>)
     2ac:	4798      	blx	r3
     2ae:	7ba3      	ldrb	r3, [r4, #14]
     2b0:	3b02      	subs	r3, #2
     2b2:	425a      	negs	r2, r3
     2b4:	415a      	adcs	r2, r3
     2b6:	b2d3      	uxtb	r3, r2
     2b8:	e7ae      	b.n	218 <sd_mmc_select_slot+0x40>
     2ba:	6a03      	ldr	r3, [r0, #32]
     2bc:	deff      	udf	#255	; 0xff
     2be:	46c0      	nop			; (mov r8, r8)
     2c0:	2000000c 	.word	0x2000000c
     2c4:	41004400 	.word	0x41004400
     2c8:	200000bc 	.word	0x200000bc
     2cc:	e000e010 	.word	0xe000e010
     2d0:	000027f9 	.word	0x000027f9
     2d4:	000044b1 	.word	0x000044b1
     2d8:	000047f5 	.word	0x000047f5
     2dc:	00001b57 	.word	0x00001b57
     2e0:	000047b5 	.word	0x000047b5
     2e4:	00001b58 	.word	0x00001b58
     2e8:	20000001 	.word	0x20000001
     2ec:	00061a80 	.word	0x00061a80
     2f0:	200000bd 	.word	0x200000bd
     2f4:	200000b4 	.word	0x200000b4
     2f8:	0000015d 	.word	0x0000015d

000002fc <sd_mmc_cmd9_spi>:
     2fc:	b573      	push	{r0, r1, r4, r5, r6, lr}
     2fe:	2401      	movs	r4, #1
     300:	4d0b      	ldr	r5, [pc, #44]	; (330 <sd_mmc_cmd9_spi+0x34>)
     302:	2210      	movs	r2, #16
     304:	682b      	ldr	r3, [r5, #0]
     306:	480b      	ldr	r0, [pc, #44]	; (334 <sd_mmc_cmd9_spi+0x38>)
     308:	8999      	ldrh	r1, [r3, #12]
     30a:	4e0b      	ldr	r6, [pc, #44]	; (338 <sd_mmc_cmd9_spi+0x3c>)
     30c:	0409      	lsls	r1, r1, #16
     30e:	9400      	str	r4, [sp, #0]
     310:	0023      	movs	r3, r4
     312:	47b0      	blx	r6
     314:	2800      	cmp	r0, #0
     316:	d101      	bne.n	31c <sd_mmc_cmd9_spi+0x20>
     318:	2000      	movs	r0, #0
     31a:	bd76      	pop	{r1, r2, r4, r5, r6, pc}
     31c:	6828      	ldr	r0, [r5, #0]
     31e:	0021      	movs	r1, r4
     320:	3012      	adds	r0, #18
     322:	4b06      	ldr	r3, [pc, #24]	; (33c <sd_mmc_cmd9_spi+0x40>)
     324:	4798      	blx	r3
     326:	2800      	cmp	r0, #0
     328:	d0f6      	beq.n	318 <sd_mmc_cmd9_spi+0x1c>
     32a:	4b05      	ldr	r3, [pc, #20]	; (340 <sd_mmc_cmd9_spi+0x44>)
     32c:	4798      	blx	r3
     32e:	e7f4      	b.n	31a <sd_mmc_cmd9_spi+0x1e>
     330:	200000b4 	.word	0x200000b4
     334:	00081109 	.word	0x00081109
     338:	00000e51 	.word	0x00000e51
     33c:	0000103d 	.word	0x0000103d
     340:	000010a5 	.word	0x000010a5

00000344 <sd_mmc_init>:
     344:	2204      	movs	r2, #4
     346:	b510      	push	{r4, lr}
     348:	4b03      	ldr	r3, [pc, #12]	; (358 <sd_mmc_init+0x14>)
     34a:	739a      	strb	r2, [r3, #14]
     34c:	4b03      	ldr	r3, [pc, #12]	; (35c <sd_mmc_init+0x18>)
     34e:	32fb      	adds	r2, #251	; 0xfb
     350:	701a      	strb	r2, [r3, #0]
     352:	4b03      	ldr	r3, [pc, #12]	; (360 <sd_mmc_init+0x1c>)
     354:	4798      	blx	r3
     356:	bd10      	pop	{r4, pc}
     358:	2000000c 	.word	0x2000000c
     35c:	200000bd 	.word	0x200000bd
     360:	00000c99 	.word	0x00000c99

00000364 <sd_mmc_check>:
     364:	b5f0      	push	{r4, r5, r6, r7, lr}
     366:	4bca      	ldr	r3, [pc, #808]	; (690 <sd_mmc_check+0x32c>)
     368:	b089      	sub	sp, #36	; 0x24
     36a:	4798      	blx	r3
     36c:	9002      	str	r0, [sp, #8]
     36e:	2801      	cmp	r0, #1
     370:	d004      	beq.n	37c <sd_mmc_check+0x18>
     372:	4bc8      	ldr	r3, [pc, #800]	; (694 <sd_mmc_check+0x330>)
     374:	4798      	blx	r3
     376:	9802      	ldr	r0, [sp, #8]
     378:	b009      	add	sp, #36	; 0x24
     37a:	bdf0      	pop	{r4, r5, r6, r7, pc}
     37c:	466a      	mov	r2, sp
     37e:	2400      	movs	r4, #0
     380:	4dc5      	ldr	r5, [pc, #788]	; (698 <sd_mmc_check+0x334>)
     382:	7a12      	ldrb	r2, [r2, #8]
     384:	682b      	ldr	r3, [r5, #0]
     386:	741c      	strb	r4, [r3, #16]
     388:	819c      	strh	r4, [r3, #12]
     38a:	73da      	strb	r2, [r3, #15]
     38c:	4bc3      	ldr	r3, [pc, #780]	; (69c <sd_mmc_check+0x338>)
     38e:	4798      	blx	r3
     390:	2088      	movs	r0, #136	; 0x88
     392:	0021      	movs	r1, r4
     394:	0140      	lsls	r0, r0, #5
     396:	4cc2      	ldr	r4, [pc, #776]	; (6a0 <sd_mmc_check+0x33c>)
     398:	47a0      	blx	r4
     39a:	2800      	cmp	r0, #0
     39c:	d012      	beq.n	3c4 <sd_mmc_check+0x60>
     39e:	26d5      	movs	r6, #213	; 0xd5
     3a0:	0076      	lsls	r6, r6, #1
     3a2:	0031      	movs	r1, r6
     3a4:	48bf      	ldr	r0, [pc, #764]	; (6a4 <sd_mmc_check+0x340>)
     3a6:	47a0      	blx	r4
     3a8:	2800      	cmp	r0, #0
     3aa:	d100      	bne.n	3ae <sd_mmc_check+0x4a>
     3ac:	e1a2      	b.n	6f4 <sd_mmc_check+0x390>
     3ae:	4bbe      	ldr	r3, [pc, #760]	; (6a8 <sd_mmc_check+0x344>)
     3b0:	4798      	blx	r3
     3b2:	1c43      	adds	r3, r0, #1
     3b4:	d100      	bne.n	3b8 <sd_mmc_check+0x54>
     3b6:	e19d      	b.n	6f4 <sd_mmc_check+0x390>
     3b8:	0500      	lsls	r0, r0, #20
     3ba:	0d00      	lsrs	r0, r0, #20
     3bc:	9b02      	ldr	r3, [sp, #8]
     3be:	42b0      	cmp	r0, r6
     3c0:	d100      	bne.n	3c4 <sd_mmc_check+0x60>
     3c2:	e198      	b.n	6f6 <sd_mmc_check+0x392>
     3c4:	2403      	movs	r4, #3
     3c6:	4bb4      	ldr	r3, [pc, #720]	; (698 <sd_mmc_check+0x334>)
     3c8:	681b      	ldr	r3, [r3, #0]
     3ca:	739c      	strb	r4, [r3, #14]
     3cc:	4bb1      	ldr	r3, [pc, #708]	; (694 <sd_mmc_check+0x330>)
     3ce:	4798      	blx	r3
     3d0:	9402      	str	r4, [sp, #8]
     3d2:	e7d0      	b.n	376 <sd_mmc_check+0x12>
     3d4:	48b5      	ldr	r0, [pc, #724]	; (6ac <sd_mmc_check+0x348>)
     3d6:	47a0      	blx	r4
     3d8:	2800      	cmp	r0, #0
     3da:	d100      	bne.n	3de <sd_mmc_check+0x7a>
     3dc:	e1a6      	b.n	72c <sd_mmc_check+0x3c8>
     3de:	47b8      	blx	r7
     3e0:	0043      	lsls	r3, r0, #1
     3e2:	d504      	bpl.n	3ee <sd_mmc_check+0x8a>
     3e4:	2308      	movs	r3, #8
     3e6:	682a      	ldr	r2, [r5, #0]
     3e8:	7bd1      	ldrb	r1, [r2, #15]
     3ea:	430b      	orrs	r3, r1
     3ec:	73d3      	strb	r3, [r2, #15]
     3ee:	2100      	movs	r1, #0
     3f0:	48af      	ldr	r0, [pc, #700]	; (6b0 <sd_mmc_check+0x34c>)
     3f2:	47a0      	blx	r4
     3f4:	2800      	cmp	r0, #0
     3f6:	d0e5      	beq.n	3c4 <sd_mmc_check+0x60>
     3f8:	682b      	ldr	r3, [r5, #0]
     3fa:	7bdb      	ldrb	r3, [r3, #15]
     3fc:	07db      	lsls	r3, r3, #31
     3fe:	d400      	bmi.n	402 <sd_mmc_check+0x9e>
     400:	e126      	b.n	650 <sd_mmc_check+0x2ec>
     402:	4bac      	ldr	r3, [pc, #688]	; (6b4 <sd_mmc_check+0x350>)
     404:	4798      	blx	r3
     406:	2800      	cmp	r0, #0
     408:	d0dc      	beq.n	3c4 <sd_mmc_check+0x60>
     40a:	682f      	ldr	r7, [r5, #0]
     40c:	2308      	movs	r3, #8
     40e:	003e      	movs	r6, r7
     410:	3612      	adds	r6, #18
     412:	2260      	movs	r2, #96	; 0x60
     414:	2180      	movs	r1, #128	; 0x80
     416:	0030      	movs	r0, r6
     418:	4da7      	ldr	r5, [pc, #668]	; (6b8 <sd_mmc_check+0x354>)
     41a:	47a8      	blx	r5
     41c:	2307      	movs	r3, #7
     41e:	0642      	lsls	r2, r0, #25
     420:	4018      	ands	r0, r3
     422:	4ba6      	ldr	r3, [pc, #664]	; (6bc <sd_mmc_check+0x358>)
     424:	0080      	lsls	r0, r0, #2
     426:	58c1      	ldr	r1, [r0, r3]
     428:	23fa      	movs	r3, #250	; 0xfa
     42a:	009b      	lsls	r3, r3, #2
     42c:	434b      	muls	r3, r1
     42e:	0f12      	lsrs	r2, r2, #28
     430:	49a3      	ldr	r1, [pc, #652]	; (6c0 <sd_mmc_check+0x35c>)
     432:	0092      	lsls	r2, r2, #2
     434:	5852      	ldr	r2, [r2, r1]
     436:	0030      	movs	r0, r6
     438:	4353      	muls	r3, r2
     43a:	2180      	movs	r1, #128	; 0x80
     43c:	603b      	str	r3, [r7, #0]
     43e:	227e      	movs	r2, #126	; 0x7e
     440:	2302      	movs	r3, #2
     442:	47a8      	blx	r5
     444:	2800      	cmp	r0, #0
     446:	d100      	bne.n	44a <sd_mmc_check+0xe6>
     448:	e0e8      	b.n	61c <sd_mmc_check+0x2b8>
     44a:	2316      	movs	r3, #22
     44c:	2230      	movs	r2, #48	; 0x30
     44e:	2180      	movs	r1, #128	; 0x80
     450:	0030      	movs	r0, r6
     452:	47a8      	blx	r5
     454:	3001      	adds	r0, #1
     456:	0240      	lsls	r0, r0, #9
     458:	6078      	str	r0, [r7, #4]
     45a:	89b9      	ldrh	r1, [r7, #12]
     45c:	4899      	ldr	r0, [pc, #612]	; (6c4 <sd_mmc_check+0x360>)
     45e:	0409      	lsls	r1, r1, #16
     460:	4b8f      	ldr	r3, [pc, #572]	; (6a0 <sd_mmc_check+0x33c>)
     462:	4798      	blx	r3
     464:	2800      	cmp	r0, #0
     466:	d0ad      	beq.n	3c4 <sd_mmc_check+0x60>
     468:	2501      	movs	r5, #1
     46a:	2208      	movs	r2, #8
     46c:	9500      	str	r5, [sp, #0]
     46e:	002b      	movs	r3, r5
     470:	2100      	movs	r1, #0
     472:	4895      	ldr	r0, [pc, #596]	; (6c8 <sd_mmc_check+0x364>)
     474:	4c95      	ldr	r4, [pc, #596]	; (6cc <sd_mmc_check+0x368>)
     476:	47a0      	blx	r4
     478:	2800      	cmp	r0, #0
     47a:	d0a3      	beq.n	3c4 <sd_mmc_check+0x60>
     47c:	0029      	movs	r1, r5
     47e:	a806      	add	r0, sp, #24
     480:	4b93      	ldr	r3, [pc, #588]	; (6d0 <sd_mmc_check+0x36c>)
     482:	4798      	blx	r3
     484:	2800      	cmp	r0, #0
     486:	d09d      	beq.n	3c4 <sd_mmc_check+0x60>
     488:	4b92      	ldr	r3, [pc, #584]	; (6d4 <sd_mmc_check+0x370>)
     48a:	4798      	blx	r3
     48c:	2800      	cmp	r0, #0
     48e:	d099      	beq.n	3c4 <sd_mmc_check+0x60>
     490:	2304      	movs	r3, #4
     492:	2238      	movs	r2, #56	; 0x38
     494:	2140      	movs	r1, #64	; 0x40
     496:	a806      	add	r0, sp, #24
     498:	4e87      	ldr	r6, [pc, #540]	; (6b8 <sd_mmc_check+0x354>)
     49a:	47b0      	blx	r6
     49c:	4c7e      	ldr	r4, [pc, #504]	; (698 <sd_mmc_check+0x334>)
     49e:	42a8      	cmp	r0, r5
     4a0:	d100      	bne.n	4a4 <sd_mmc_check+0x140>
     4a2:	e0d2      	b.n	64a <sd_mmc_check+0x2e6>
     4a4:	2800      	cmp	r0, #0
     4a6:	d002      	beq.n	4ae <sd_mmc_check+0x14a>
     4a8:	2802      	cmp	r0, #2
     4aa:	d100      	bne.n	4ae <sd_mmc_check+0x14a>
     4ac:	e0dc      	b.n	668 <sd_mmc_check+0x304>
     4ae:	6823      	ldr	r3, [r4, #0]
     4b0:	2210      	movs	r2, #16
     4b2:	e0cc      	b.n	64e <sd_mmc_check+0x2ea>
     4b4:	487d      	ldr	r0, [pc, #500]	; (6ac <sd_mmc_check+0x348>)
     4b6:	47a0      	blx	r4
     4b8:	2800      	cmp	r0, #0
     4ba:	d083      	beq.n	3c4 <sd_mmc_check+0x60>
     4bc:	47b8      	blx	r7
     4be:	23c0      	movs	r3, #192	; 0xc0
     4c0:	05db      	lsls	r3, r3, #23
     4c2:	4018      	ands	r0, r3
     4c4:	2380      	movs	r3, #128	; 0x80
     4c6:	05db      	lsls	r3, r3, #23
     4c8:	4298      	cmp	r0, r3
     4ca:	d104      	bne.n	4d6 <sd_mmc_check+0x172>
     4cc:	2308      	movs	r3, #8
     4ce:	682a      	ldr	r2, [r5, #0]
     4d0:	7bd1      	ldrb	r1, [r2, #15]
     4d2:	430b      	orrs	r3, r1
     4d4:	73d3      	strb	r3, [r2, #15]
     4d6:	2100      	movs	r1, #0
     4d8:	4875      	ldr	r0, [pc, #468]	; (6b0 <sd_mmc_check+0x34c>)
     4da:	47a0      	blx	r4
     4dc:	2800      	cmp	r0, #0
     4de:	d100      	bne.n	4e2 <sd_mmc_check+0x17e>
     4e0:	e770      	b.n	3c4 <sd_mmc_check+0x60>
     4e2:	4b74      	ldr	r3, [pc, #464]	; (6b4 <sd_mmc_check+0x350>)
     4e4:	4798      	blx	r3
     4e6:	2800      	cmp	r0, #0
     4e8:	d100      	bne.n	4ec <sd_mmc_check+0x188>
     4ea:	e76b      	b.n	3c4 <sd_mmc_check+0x60>
     4ec:	682c      	ldr	r4, [r5, #0]
     4ee:	2304      	movs	r3, #4
     4f0:	0025      	movs	r5, r4
     4f2:	3512      	adds	r5, #18
     4f4:	227a      	movs	r2, #122	; 0x7a
     4f6:	2180      	movs	r1, #128	; 0x80
     4f8:	0028      	movs	r0, r5
     4fa:	4e6f      	ldr	r6, [pc, #444]	; (6b8 <sd_mmc_check+0x354>)
     4fc:	47b0      	blx	r6
     4fe:	3801      	subs	r0, #1
     500:	2312      	movs	r3, #18
     502:	2803      	cmp	r0, #3
     504:	d804      	bhi.n	510 <sd_mmc_check+0x1ac>
     506:	f003 ffc9 	bl	449c <__gnu_thumb1_case_uqi>
     50a:	8302      	.short	0x8302
     50c:	8785      	.short	0x8785
     50e:	2314      	movs	r3, #20
     510:	7423      	strb	r3, [r4, #16]
     512:	2260      	movs	r2, #96	; 0x60
     514:	2308      	movs	r3, #8
     516:	2180      	movs	r1, #128	; 0x80
     518:	4f67      	ldr	r7, [pc, #412]	; (6b8 <sd_mmc_check+0x354>)
     51a:	0028      	movs	r0, r5
     51c:	47b8      	blx	r7
     51e:	2307      	movs	r3, #7
     520:	0642      	lsls	r2, r0, #25
     522:	4018      	ands	r0, r3
     524:	4b65      	ldr	r3, [pc, #404]	; (6bc <sd_mmc_check+0x358>)
     526:	0080      	lsls	r0, r0, #2
     528:	58c1      	ldr	r1, [r0, r3]
     52a:	23fa      	movs	r3, #250	; 0xfa
     52c:	009b      	lsls	r3, r3, #2
     52e:	434b      	muls	r3, r1
     530:	0f12      	lsrs	r2, r2, #28
     532:	4969      	ldr	r1, [pc, #420]	; (6d8 <sd_mmc_check+0x374>)
     534:	0092      	lsls	r2, r2, #2
     536:	5852      	ldr	r2, [r2, r1]
     538:	0028      	movs	r0, r5
     53a:	4353      	muls	r3, r2
     53c:	2180      	movs	r1, #128	; 0x80
     53e:	6023      	str	r3, [r4, #0]
     540:	223e      	movs	r2, #62	; 0x3e
     542:	230c      	movs	r3, #12
     544:	47b8      	blx	r7
     546:	4b65      	ldr	r3, [pc, #404]	; (6dc <sd_mmc_check+0x378>)
     548:	0006      	movs	r6, r0
     54a:	4298      	cmp	r0, r3
     54c:	d00f      	beq.n	56e <sd_mmc_check+0x20a>
     54e:	2303      	movs	r3, #3
     550:	222f      	movs	r2, #47	; 0x2f
     552:	2180      	movs	r1, #128	; 0x80
     554:	0028      	movs	r0, r5
     556:	47b8      	blx	r7
     558:	3601      	adds	r6, #1
     55a:	3002      	adds	r0, #2
     55c:	4086      	lsls	r6, r0
     55e:	2304      	movs	r3, #4
     560:	2250      	movs	r2, #80	; 0x50
     562:	2180      	movs	r1, #128	; 0x80
     564:	0028      	movs	r0, r5
     566:	47b8      	blx	r7
     568:	4086      	lsls	r6, r0
     56a:	0ab6      	lsrs	r6, r6, #10
     56c:	6066      	str	r6, [r4, #4]
     56e:	7c23      	ldrb	r3, [r4, #16]
     570:	2b3f      	cmp	r3, #63	; 0x3f
     572:	d939      	bls.n	5e8 <sd_mmc_check+0x284>
     574:	2100      	movs	r1, #0
     576:	2280      	movs	r2, #128	; 0x80
     578:	9100      	str	r1, [sp, #0]
     57a:	2301      	movs	r3, #1
     57c:	0092      	lsls	r2, r2, #2
     57e:	4858      	ldr	r0, [pc, #352]	; (6e0 <sd_mmc_check+0x37c>)
     580:	4c52      	ldr	r4, [pc, #328]	; (6cc <sd_mmc_check+0x368>)
     582:	47a0      	blx	r4
     584:	2800      	cmp	r0, #0
     586:	d100      	bne.n	58a <sd_mmc_check+0x226>
     588:	e71c      	b.n	3c4 <sd_mmc_check+0x60>
     58a:	2432      	movs	r4, #50	; 0x32
     58c:	a805      	add	r0, sp, #20
     58e:	4d55      	ldr	r5, [pc, #340]	; (6e4 <sd_mmc_check+0x380>)
     590:	47a8      	blx	r5
     592:	2800      	cmp	r0, #0
     594:	d100      	bne.n	598 <sd_mmc_check+0x234>
     596:	e715      	b.n	3c4 <sd_mmc_check+0x60>
     598:	3c01      	subs	r4, #1
     59a:	b2a4      	uxth	r4, r4
     59c:	2c00      	cmp	r4, #0
     59e:	d1f5      	bne.n	58c <sd_mmc_check+0x228>
     5a0:	4e3d      	ldr	r6, [pc, #244]	; (698 <sd_mmc_check+0x334>)
     5a2:	230c      	movs	r3, #12
     5a4:	6830      	ldr	r0, [r6, #0]
     5a6:	4c44      	ldr	r4, [pc, #272]	; (6b8 <sd_mmc_check+0x354>)
     5a8:	3012      	adds	r0, #18
     5aa:	223e      	movs	r2, #62	; 0x3e
     5ac:	2180      	movs	r1, #128	; 0x80
     5ae:	47a0      	blx	r4
     5b0:	4b4a      	ldr	r3, [pc, #296]	; (6dc <sd_mmc_check+0x378>)
     5b2:	2432      	movs	r4, #50	; 0x32
     5b4:	4298      	cmp	r0, r3
     5b6:	d10e      	bne.n	5d6 <sd_mmc_check+0x272>
     5b8:	3c2e      	subs	r4, #46	; 0x2e
     5ba:	a806      	add	r0, sp, #24
     5bc:	47a8      	blx	r5
     5be:	2800      	cmp	r0, #0
     5c0:	d100      	bne.n	5c4 <sd_mmc_check+0x260>
     5c2:	e6ff      	b.n	3c4 <sd_mmc_check+0x60>
     5c4:	3c01      	subs	r4, #1
     5c6:	b2a4      	uxth	r4, r4
     5c8:	2c00      	cmp	r4, #0
     5ca:	d1f6      	bne.n	5ba <sd_mmc_check+0x256>
     5cc:	9b06      	ldr	r3, [sp, #24]
     5ce:	6832      	ldr	r2, [r6, #0]
     5d0:	085b      	lsrs	r3, r3, #1
     5d2:	6053      	str	r3, [r2, #4]
     5d4:	3436      	adds	r4, #54	; 0x36
     5d6:	a806      	add	r0, sp, #24
     5d8:	47a8      	blx	r5
     5da:	2800      	cmp	r0, #0
     5dc:	d100      	bne.n	5e0 <sd_mmc_check+0x27c>
     5de:	e6f1      	b.n	3c4 <sd_mmc_check+0x60>
     5e0:	3401      	adds	r4, #1
     5e2:	b2a4      	uxth	r4, r4
     5e4:	2c80      	cmp	r4, #128	; 0x80
     5e6:	d1f6      	bne.n	5d6 <sd_mmc_check+0x272>
     5e8:	2180      	movs	r1, #128	; 0x80
     5ea:	483f      	ldr	r0, [pc, #252]	; (6e8 <sd_mmc_check+0x384>)
     5ec:	0089      	lsls	r1, r1, #2
     5ee:	4b2c      	ldr	r3, [pc, #176]	; (6a0 <sd_mmc_check+0x33c>)
     5f0:	4798      	blx	r3
     5f2:	2800      	cmp	r0, #0
     5f4:	d100      	bne.n	5f8 <sd_mmc_check+0x294>
     5f6:	e6e5      	b.n	3c4 <sd_mmc_check+0x60>
     5f8:	4b3c      	ldr	r3, [pc, #240]	; (6ec <sd_mmc_check+0x388>)
     5fa:	4798      	blx	r3
     5fc:	2800      	cmp	r0, #0
     5fe:	d100      	bne.n	602 <sd_mmc_check+0x29e>
     600:	e6e0      	b.n	3c4 <sd_mmc_check+0x60>
     602:	4b3b      	ldr	r3, [pc, #236]	; (6f0 <sd_mmc_check+0x38c>)
     604:	4798      	blx	r3
     606:	2200      	movs	r2, #0
     608:	4b23      	ldr	r3, [pc, #140]	; (698 <sd_mmc_check+0x334>)
     60a:	681b      	ldr	r3, [r3, #0]
     60c:	739a      	strb	r2, [r3, #14]
     60e:	e6b0      	b.n	372 <sd_mmc_check+0xe>
     610:	2322      	movs	r3, #34	; 0x22
     612:	e77d      	b.n	510 <sd_mmc_check+0x1ac>
     614:	2330      	movs	r3, #48	; 0x30
     616:	e77b      	b.n	510 <sd_mmc_check+0x1ac>
     618:	2340      	movs	r3, #64	; 0x40
     61a:	e779      	b.n	510 <sd_mmc_check+0x1ac>
     61c:	230c      	movs	r3, #12
     61e:	223e      	movs	r2, #62	; 0x3e
     620:	2180      	movs	r1, #128	; 0x80
     622:	0030      	movs	r0, r6
     624:	47a8      	blx	r5
     626:	2303      	movs	r3, #3
     628:	0004      	movs	r4, r0
     62a:	222f      	movs	r2, #47	; 0x2f
     62c:	2180      	movs	r1, #128	; 0x80
     62e:	0030      	movs	r0, r6
     630:	47a8      	blx	r5
     632:	3401      	adds	r4, #1
     634:	3002      	adds	r0, #2
     636:	4084      	lsls	r4, r0
     638:	2304      	movs	r3, #4
     63a:	2250      	movs	r2, #80	; 0x50
     63c:	2180      	movs	r1, #128	; 0x80
     63e:	0030      	movs	r0, r6
     640:	47a8      	blx	r5
     642:	4084      	lsls	r4, r0
     644:	0aa4      	lsrs	r4, r4, #10
     646:	607c      	str	r4, [r7, #4]
     648:	e707      	b.n	45a <sd_mmc_check+0xf6>
     64a:	221a      	movs	r2, #26
     64c:	6823      	ldr	r3, [r4, #0]
     64e:	741a      	strb	r2, [r3, #16]
     650:	2209      	movs	r2, #9
     652:	4c11      	ldr	r4, [pc, #68]	; (698 <sd_mmc_check+0x334>)
     654:	6823      	ldr	r3, [r4, #0]
     656:	7bdb      	ldrb	r3, [r3, #15]
     658:	4013      	ands	r3, r2
     65a:	2b01      	cmp	r3, #1
     65c:	d00f      	beq.n	67e <sd_mmc_check+0x31a>
     65e:	6823      	ldr	r3, [r4, #0]
     660:	7bdb      	ldrb	r3, [r3, #15]
     662:	07db      	lsls	r3, r3, #31
     664:	d4c8      	bmi.n	5f8 <sd_mmc_check+0x294>
     666:	e7cc      	b.n	602 <sd_mmc_check+0x29e>
     668:	002b      	movs	r3, r5
     66a:	222f      	movs	r2, #47	; 0x2f
     66c:	2140      	movs	r1, #64	; 0x40
     66e:	a806      	add	r0, sp, #24
     670:	47b0      	blx	r6
     672:	6823      	ldr	r3, [r4, #0]
     674:	2230      	movs	r2, #48	; 0x30
     676:	2801      	cmp	r0, #1
     678:	d0e9      	beq.n	64e <sd_mmc_check+0x2ea>
     67a:	2220      	movs	r2, #32
     67c:	e7e7      	b.n	64e <sd_mmc_check+0x2ea>
     67e:	2180      	movs	r1, #128	; 0x80
     680:	4819      	ldr	r0, [pc, #100]	; (6e8 <sd_mmc_check+0x384>)
     682:	0089      	lsls	r1, r1, #2
     684:	4b06      	ldr	r3, [pc, #24]	; (6a0 <sd_mmc_check+0x33c>)
     686:	4798      	blx	r3
     688:	2800      	cmp	r0, #0
     68a:	d1e8      	bne.n	65e <sd_mmc_check+0x2fa>
     68c:	e69a      	b.n	3c4 <sd_mmc_check+0x60>
     68e:	46c0      	nop			; (mov r8, r8)
     690:	000001d9 	.word	0x000001d9
     694:	000001c1 	.word	0x000001c1
     698:	200000b4 	.word	0x200000b4
     69c:	00000e1d 	.word	0x00000e1d
     6a0:	00000fad 	.word	0x00000fad
     6a4:	00005508 	.word	0x00005508
     6a8:	00000fc1 	.word	0x00000fc1
     6ac:	0000053a 	.word	0x0000053a
     6b0:	0000113b 	.word	0x0000113b
     6b4:	000002fd 	.word	0x000002fd
     6b8:	00000115 	.word	0x00000115
     6bc:	00005b80 	.word	0x00005b80
     6c0:	00005b9c 	.word	0x00005b9c
     6c4:	00001137 	.word	0x00001137
     6c8:	00081133 	.word	0x00081133
     6cc:	00000e51 	.word	0x00000e51
     6d0:	0000103d 	.word	0x0000103d
     6d4:	000010a5 	.word	0x000010a5
     6d8:	00005b40 	.word	0x00005b40
     6dc:	00000fff 	.word	0x00000fff
     6e0:	00081108 	.word	0x00081108
     6e4:	00000fcd 	.word	0x00000fcd
     6e8:	00001110 	.word	0x00001110
     6ec:	00000189 	.word	0x00000189
     6f0:	0000015d 	.word	0x0000015d
     6f4:	2300      	movs	r3, #0
     6f6:	682a      	ldr	r2, [r5, #0]
     6f8:	7bd2      	ldrb	r2, [r2, #15]
     6fa:	07d2      	lsls	r2, r2, #31
     6fc:	d400      	bmi.n	700 <sd_mmc_check+0x39c>
     6fe:	e67b      	b.n	3f8 <sd_mmc_check+0x94>
     700:	079b      	lsls	r3, r3, #30
     702:	4e18      	ldr	r6, [pc, #96]	; (764 <sd_mmc_check+0x400>)
     704:	9303      	str	r3, [sp, #12]
     706:	2100      	movs	r1, #0
     708:	4817      	ldr	r0, [pc, #92]	; (768 <sd_mmc_check+0x404>)
     70a:	47a0      	blx	r4
     70c:	2800      	cmp	r0, #0
     70e:	d00d      	beq.n	72c <sd_mmc_check+0x3c8>
     710:	9903      	ldr	r1, [sp, #12]
     712:	4816      	ldr	r0, [pc, #88]	; (76c <sd_mmc_check+0x408>)
     714:	47a0      	blx	r4
     716:	2800      	cmp	r0, #0
     718:	d008      	beq.n	72c <sd_mmc_check+0x3c8>
     71a:	4f15      	ldr	r7, [pc, #84]	; (770 <sd_mmc_check+0x40c>)
     71c:	47b8      	blx	r7
     71e:	2101      	movs	r1, #1
     720:	4001      	ands	r1, r0
     722:	d100      	bne.n	726 <sd_mmc_check+0x3c2>
     724:	e656      	b.n	3d4 <sd_mmc_check+0x70>
     726:	3e01      	subs	r6, #1
     728:	2e00      	cmp	r6, #0
     72a:	d1ec      	bne.n	706 <sd_mmc_check+0x3a2>
     72c:	2302      	movs	r3, #2
     72e:	2088      	movs	r0, #136	; 0x88
     730:	682a      	ldr	r2, [r5, #0]
     732:	2100      	movs	r1, #0
     734:	73d3      	strb	r3, [r2, #15]
     736:	0140      	lsls	r0, r0, #5
     738:	47a0      	blx	r4
     73a:	2800      	cmp	r0, #0
     73c:	d100      	bne.n	740 <sd_mmc_check+0x3dc>
     73e:	e641      	b.n	3c4 <sd_mmc_check+0x60>
     740:	4e08      	ldr	r6, [pc, #32]	; (764 <sd_mmc_check+0x400>)
     742:	2100      	movs	r1, #0
     744:	480b      	ldr	r0, [pc, #44]	; (774 <sd_mmc_check+0x410>)
     746:	47a0      	blx	r4
     748:	2800      	cmp	r0, #0
     74a:	d100      	bne.n	74e <sd_mmc_check+0x3ea>
     74c:	e63a      	b.n	3c4 <sd_mmc_check+0x60>
     74e:	4f08      	ldr	r7, [pc, #32]	; (770 <sd_mmc_check+0x40c>)
     750:	47b8      	blx	r7
     752:	2101      	movs	r1, #1
     754:	4001      	ands	r1, r0
     756:	d100      	bne.n	75a <sd_mmc_check+0x3f6>
     758:	e6ac      	b.n	4b4 <sd_mmc_check+0x150>
     75a:	3e01      	subs	r6, #1
     75c:	2e00      	cmp	r6, #0
     75e:	d1f0      	bne.n	742 <sd_mmc_check+0x3de>
     760:	e630      	b.n	3c4 <sd_mmc_check+0x60>
     762:	46c0      	nop			; (mov r8, r8)
     764:	00001bef 	.word	0x00001bef
     768:	00001137 	.word	0x00001137
     76c:	00001129 	.word	0x00001129
     770:	00000fc1 	.word	0x00000fc1
     774:	00001101 	.word	0x00001101

00000778 <sd_mmc_get_type>:
     778:	4b06      	ldr	r3, [pc, #24]	; (794 <sd_mmc_get_type+0x1c>)
     77a:	b510      	push	{r4, lr}
     77c:	4798      	blx	r3
     77e:	2300      	movs	r3, #0
     780:	4298      	cmp	r0, r3
     782:	d104      	bne.n	78e <sd_mmc_get_type+0x16>
     784:	4b04      	ldr	r3, [pc, #16]	; (798 <sd_mmc_get_type+0x20>)
     786:	4798      	blx	r3
     788:	4b04      	ldr	r3, [pc, #16]	; (79c <sd_mmc_get_type+0x24>)
     78a:	681b      	ldr	r3, [r3, #0]
     78c:	7bdb      	ldrb	r3, [r3, #15]
     78e:	0018      	movs	r0, r3
     790:	bd10      	pop	{r4, pc}
     792:	46c0      	nop			; (mov r8, r8)
     794:	000001d9 	.word	0x000001d9
     798:	000001c1 	.word	0x000001c1
     79c:	200000b4 	.word	0x200000b4

000007a0 <sd_mmc_get_capacity>:
     7a0:	4b06      	ldr	r3, [pc, #24]	; (7bc <sd_mmc_get_capacity+0x1c>)
     7a2:	b510      	push	{r4, lr}
     7a4:	4798      	blx	r3
     7a6:	2300      	movs	r3, #0
     7a8:	4298      	cmp	r0, r3
     7aa:	d104      	bne.n	7b6 <sd_mmc_get_capacity+0x16>
     7ac:	4b04      	ldr	r3, [pc, #16]	; (7c0 <sd_mmc_get_capacity+0x20>)
     7ae:	4798      	blx	r3
     7b0:	4b04      	ldr	r3, [pc, #16]	; (7c4 <sd_mmc_get_capacity+0x24>)
     7b2:	681b      	ldr	r3, [r3, #0]
     7b4:	685b      	ldr	r3, [r3, #4]
     7b6:	0018      	movs	r0, r3
     7b8:	bd10      	pop	{r4, pc}
     7ba:	46c0      	nop			; (mov r8, r8)
     7bc:	000001d9 	.word	0x000001d9
     7c0:	000001c1 	.word	0x000001c1
     7c4:	200000b4 	.word	0x200000b4

000007c8 <sd_mmc_is_write_protected>:
     7c8:	2000      	movs	r0, #0
     7ca:	4770      	bx	lr

000007cc <sd_mmc_init_read_blocks>:
     7cc:	b573      	push	{r0, r1, r4, r5, r6, lr}
     7ce:	4b14      	ldr	r3, [pc, #80]	; (820 <sd_mmc_init_read_blocks+0x54>)
     7d0:	000e      	movs	r6, r1
     7d2:	0014      	movs	r4, r2
     7d4:	4798      	blx	r3
     7d6:	1e05      	subs	r5, r0, #0
     7d8:	d106      	bne.n	7e8 <sd_mmc_init_read_blocks+0x1c>
     7da:	4b12      	ldr	r3, [pc, #72]	; (824 <sd_mmc_init_read_blocks+0x58>)
     7dc:	4798      	blx	r3
     7de:	2800      	cmp	r0, #0
     7e0:	d104      	bne.n	7ec <sd_mmc_init_read_blocks+0x20>
     7e2:	4b11      	ldr	r3, [pc, #68]	; (828 <sd_mmc_init_read_blocks+0x5c>)
     7e4:	4798      	blx	r3
     7e6:	2505      	movs	r5, #5
     7e8:	0028      	movs	r0, r5
     7ea:	bd76      	pop	{r1, r2, r4, r5, r6, pc}
     7ec:	2c01      	cmp	r4, #1
     7ee:	d815      	bhi.n	81c <sd_mmc_init_read_blocks+0x50>
     7f0:	480e      	ldr	r0, [pc, #56]	; (82c <sd_mmc_init_read_blocks+0x60>)
     7f2:	4b0f      	ldr	r3, [pc, #60]	; (830 <sd_mmc_init_read_blocks+0x64>)
     7f4:	681b      	ldr	r3, [r3, #0]
     7f6:	7bdb      	ldrb	r3, [r3, #15]
     7f8:	071b      	lsls	r3, r3, #28
     7fa:	d400      	bmi.n	7fe <sd_mmc_init_read_blocks+0x32>
     7fc:	0276      	lsls	r6, r6, #9
     7fe:	2301      	movs	r3, #1
     800:	2280      	movs	r2, #128	; 0x80
     802:	9300      	str	r3, [sp, #0]
     804:	0031      	movs	r1, r6
     806:	0023      	movs	r3, r4
     808:	0092      	lsls	r2, r2, #2
     80a:	4e0a      	ldr	r6, [pc, #40]	; (834 <sd_mmc_init_read_blocks+0x68>)
     80c:	47b0      	blx	r6
     80e:	2800      	cmp	r0, #0
     810:	d0e7      	beq.n	7e2 <sd_mmc_init_read_blocks+0x16>
     812:	4b09      	ldr	r3, [pc, #36]	; (838 <sd_mmc_init_read_blocks+0x6c>)
     814:	801c      	strh	r4, [r3, #0]
     816:	4b09      	ldr	r3, [pc, #36]	; (83c <sd_mmc_init_read_blocks+0x70>)
     818:	801c      	strh	r4, [r3, #0]
     81a:	e7e5      	b.n	7e8 <sd_mmc_init_read_blocks+0x1c>
     81c:	4808      	ldr	r0, [pc, #32]	; (840 <sd_mmc_init_read_blocks+0x74>)
     81e:	e7e8      	b.n	7f2 <sd_mmc_init_read_blocks+0x26>
     820:	000001d9 	.word	0x000001d9
     824:	00000189 	.word	0x00000189
     828:	000001c1 	.word	0x000001c1
     82c:	00081111 	.word	0x00081111
     830:	200000b4 	.word	0x200000b4
     834:	00000e51 	.word	0x00000e51
     838:	200000b8 	.word	0x200000b8
     83c:	200000ba 	.word	0x200000ba
     840:	00101112 	.word	0x00101112

00000844 <sd_mmc_start_read_blocks>:
     844:	b510      	push	{r4, lr}
     846:	4b07      	ldr	r3, [pc, #28]	; (864 <sd_mmc_start_read_blocks+0x20>)
     848:	000c      	movs	r4, r1
     84a:	4798      	blx	r3
     84c:	4b06      	ldr	r3, [pc, #24]	; (868 <sd_mmc_start_read_blocks+0x24>)
     84e:	2800      	cmp	r0, #0
     850:	d102      	bne.n	858 <sd_mmc_start_read_blocks+0x14>
     852:	8018      	strh	r0, [r3, #0]
     854:	3005      	adds	r0, #5
     856:	bd10      	pop	{r4, pc}
     858:	8819      	ldrh	r1, [r3, #0]
     85a:	2000      	movs	r0, #0
     85c:	1b09      	subs	r1, r1, r4
     85e:	8019      	strh	r1, [r3, #0]
     860:	e7f9      	b.n	856 <sd_mmc_start_read_blocks+0x12>
     862:	46c0      	nop			; (mov r8, r8)
     864:	0000103d 	.word	0x0000103d
     868:	200000b8 	.word	0x200000b8

0000086c <sd_mmc_wait_end_of_read_blocks>:
     86c:	b510      	push	{r4, lr}
     86e:	4b11      	ldr	r3, [pc, #68]	; (8b4 <sd_mmc_wait_end_of_read_blocks+0x48>)
     870:	0004      	movs	r4, r0
     872:	4798      	blx	r3
     874:	2305      	movs	r3, #5
     876:	2800      	cmp	r0, #0
     878:	d010      	beq.n	89c <sd_mmc_wait_end_of_read_blocks+0x30>
     87a:	4b0f      	ldr	r3, [pc, #60]	; (8b8 <sd_mmc_wait_end_of_read_blocks+0x4c>)
     87c:	2c00      	cmp	r4, #0
     87e:	d009      	beq.n	894 <sd_mmc_wait_end_of_read_blocks+0x28>
     880:	2200      	movs	r2, #0
     882:	801a      	strh	r2, [r3, #0]
     884:	4b0d      	ldr	r3, [pc, #52]	; (8bc <sd_mmc_wait_end_of_read_blocks+0x50>)
     886:	881b      	ldrh	r3, [r3, #0]
     888:	2b01      	cmp	r3, #1
     88a:	d109      	bne.n	8a0 <sd_mmc_wait_end_of_read_blocks+0x34>
     88c:	4b0c      	ldr	r3, [pc, #48]	; (8c0 <sd_mmc_wait_end_of_read_blocks+0x54>)
     88e:	4798      	blx	r3
     890:	2300      	movs	r3, #0
     892:	e003      	b.n	89c <sd_mmc_wait_end_of_read_blocks+0x30>
     894:	881a      	ldrh	r2, [r3, #0]
     896:	0023      	movs	r3, r4
     898:	2a00      	cmp	r2, #0
     89a:	d0f3      	beq.n	884 <sd_mmc_wait_end_of_read_blocks+0x18>
     89c:	0018      	movs	r0, r3
     89e:	bd10      	pop	{r4, pc}
     8a0:	2100      	movs	r1, #0
     8a2:	4808      	ldr	r0, [pc, #32]	; (8c4 <sd_mmc_wait_end_of_read_blocks+0x58>)
     8a4:	4c08      	ldr	r4, [pc, #32]	; (8c8 <sd_mmc_wait_end_of_read_blocks+0x5c>)
     8a6:	47a0      	blx	r4
     8a8:	1e01      	subs	r1, r0, #0
     8aa:	d1ef      	bne.n	88c <sd_mmc_wait_end_of_read_blocks+0x20>
     8ac:	4805      	ldr	r0, [pc, #20]	; (8c4 <sd_mmc_wait_end_of_read_blocks+0x58>)
     8ae:	47a0      	blx	r4
     8b0:	e7ec      	b.n	88c <sd_mmc_wait_end_of_read_blocks+0x20>
     8b2:	46c0      	nop			; (mov r8, r8)
     8b4:	000010a5 	.word	0x000010a5
     8b8:	200000b8 	.word	0x200000b8
     8bc:	200000ba 	.word	0x200000ba
     8c0:	000001c1 	.word	0x000001c1
     8c4:	0000310c 	.word	0x0000310c
     8c8:	00000fad 	.word	0x00000fad

000008cc <sd_mmc_init_write_blocks>:
     8cc:	b573      	push	{r0, r1, r4, r5, r6, lr}
     8ce:	4b12      	ldr	r3, [pc, #72]	; (918 <sd_mmc_init_write_blocks+0x4c>)
     8d0:	000e      	movs	r6, r1
     8d2:	0014      	movs	r4, r2
     8d4:	4798      	blx	r3
     8d6:	1e05      	subs	r5, r0, #0
     8d8:	d115      	bne.n	906 <sd_mmc_init_write_blocks+0x3a>
     8da:	2c01      	cmp	r4, #1
     8dc:	d815      	bhi.n	90a <sd_mmc_init_write_blocks+0x3e>
     8de:	480f      	ldr	r0, [pc, #60]	; (91c <sd_mmc_init_write_blocks+0x50>)
     8e0:	4b0f      	ldr	r3, [pc, #60]	; (920 <sd_mmc_init_write_blocks+0x54>)
     8e2:	681b      	ldr	r3, [r3, #0]
     8e4:	7bdb      	ldrb	r3, [r3, #15]
     8e6:	071b      	lsls	r3, r3, #28
     8e8:	d400      	bmi.n	8ec <sd_mmc_init_write_blocks+0x20>
     8ea:	0276      	lsls	r6, r6, #9
     8ec:	2301      	movs	r3, #1
     8ee:	2280      	movs	r2, #128	; 0x80
     8f0:	9300      	str	r3, [sp, #0]
     8f2:	0031      	movs	r1, r6
     8f4:	0023      	movs	r3, r4
     8f6:	0092      	lsls	r2, r2, #2
     8f8:	4e0a      	ldr	r6, [pc, #40]	; (924 <sd_mmc_init_write_blocks+0x58>)
     8fa:	47b0      	blx	r6
     8fc:	2800      	cmp	r0, #0
     8fe:	d106      	bne.n	90e <sd_mmc_init_write_blocks+0x42>
     900:	4b09      	ldr	r3, [pc, #36]	; (928 <sd_mmc_init_write_blocks+0x5c>)
     902:	4798      	blx	r3
     904:	2505      	movs	r5, #5
     906:	0028      	movs	r0, r5
     908:	bd76      	pop	{r1, r2, r4, r5, r6, pc}
     90a:	4808      	ldr	r0, [pc, #32]	; (92c <sd_mmc_init_write_blocks+0x60>)
     90c:	e7e8      	b.n	8e0 <sd_mmc_init_write_blocks+0x14>
     90e:	4b08      	ldr	r3, [pc, #32]	; (930 <sd_mmc_init_write_blocks+0x64>)
     910:	801c      	strh	r4, [r3, #0]
     912:	4b08      	ldr	r3, [pc, #32]	; (934 <sd_mmc_init_write_blocks+0x68>)
     914:	801c      	strh	r4, [r3, #0]
     916:	e7f6      	b.n	906 <sd_mmc_init_write_blocks+0x3a>
     918:	000001d9 	.word	0x000001d9
     91c:	00089118 	.word	0x00089118
     920:	200000b4 	.word	0x200000b4
     924:	00000e51 	.word	0x00000e51
     928:	000001c1 	.word	0x000001c1
     92c:	00109119 	.word	0x00109119
     930:	200000b8 	.word	0x200000b8
     934:	200000ba 	.word	0x200000ba

00000938 <sd_mmc_start_write_blocks>:
     938:	b510      	push	{r4, lr}
     93a:	4b07      	ldr	r3, [pc, #28]	; (958 <sd_mmc_start_write_blocks+0x20>)
     93c:	000c      	movs	r4, r1
     93e:	4798      	blx	r3
     940:	4b06      	ldr	r3, [pc, #24]	; (95c <sd_mmc_start_write_blocks+0x24>)
     942:	2800      	cmp	r0, #0
     944:	d102      	bne.n	94c <sd_mmc_start_write_blocks+0x14>
     946:	8018      	strh	r0, [r3, #0]
     948:	3005      	adds	r0, #5
     94a:	bd10      	pop	{r4, pc}
     94c:	8819      	ldrh	r1, [r3, #0]
     94e:	2000      	movs	r0, #0
     950:	1b09      	subs	r1, r1, r4
     952:	8019      	strh	r1, [r3, #0]
     954:	e7f9      	b.n	94a <sd_mmc_start_write_blocks+0x12>
     956:	46c0      	nop			; (mov r8, r8)
     958:	000010a9 	.word	0x000010a9
     95c:	200000b8 	.word	0x200000b8

00000960 <sd_mmc_wait_end_of_write_blocks>:
     960:	b510      	push	{r4, lr}
     962:	4b0a      	ldr	r3, [pc, #40]	; (98c <sd_mmc_wait_end_of_write_blocks+0x2c>)
     964:	0004      	movs	r4, r0
     966:	4798      	blx	r3
     968:	2305      	movs	r3, #5
     96a:	2800      	cmp	r0, #0
     96c:	d00c      	beq.n	988 <sd_mmc_wait_end_of_write_blocks+0x28>
     96e:	4b08      	ldr	r3, [pc, #32]	; (990 <sd_mmc_wait_end_of_write_blocks+0x30>)
     970:	2c00      	cmp	r4, #0
     972:	d005      	beq.n	980 <sd_mmc_wait_end_of_write_blocks+0x20>
     974:	2200      	movs	r2, #0
     976:	801a      	strh	r2, [r3, #0]
     978:	4b06      	ldr	r3, [pc, #24]	; (994 <sd_mmc_wait_end_of_write_blocks+0x34>)
     97a:	4798      	blx	r3
     97c:	2300      	movs	r3, #0
     97e:	e003      	b.n	988 <sd_mmc_wait_end_of_write_blocks+0x28>
     980:	881a      	ldrh	r2, [r3, #0]
     982:	0023      	movs	r3, r4
     984:	2a00      	cmp	r2, #0
     986:	d0f7      	beq.n	978 <sd_mmc_wait_end_of_write_blocks+0x18>
     988:	0018      	movs	r0, r3
     98a:	bd10      	pop	{r4, pc}
     98c:	0000111d 	.word	0x0000111d
     990:	200000b8 	.word	0x200000b8
     994:	000001c1 	.word	0x000001c1

00000998 <sd_mmc_test_unit_ready>:
     998:	b570      	push	{r4, r5, r6, lr}
     99a:	4b0e      	ldr	r3, [pc, #56]	; (9d4 <sd_mmc_test_unit_ready+0x3c>)
     99c:	0005      	movs	r5, r0
     99e:	4798      	blx	r3
     9a0:	2403      	movs	r4, #3
     9a2:	2801      	cmp	r0, #1
     9a4:	d013      	beq.n	9ce <sd_mmc_test_unit_ready+0x36>
     9a6:	2800      	cmp	r0, #0
     9a8:	d007      	beq.n	9ba <sd_mmc_test_unit_ready+0x22>
     9aa:	3c02      	subs	r4, #2
     9ac:	2802      	cmp	r0, #2
     9ae:	d10e      	bne.n	9ce <sd_mmc_test_unit_ready+0x36>
     9b0:	2200      	movs	r2, #0
     9b2:	4b09      	ldr	r3, [pc, #36]	; (9d8 <sd_mmc_test_unit_ready+0x40>)
     9b4:	0004      	movs	r4, r0
     9b6:	555a      	strb	r2, [r3, r5]
     9b8:	e009      	b.n	9ce <sd_mmc_test_unit_ready+0x36>
     9ba:	4b07      	ldr	r3, [pc, #28]	; (9d8 <sd_mmc_test_unit_ready+0x40>)
     9bc:	5d5c      	ldrb	r4, [r3, r5]
     9be:	2c00      	cmp	r4, #0
     9c0:	d104      	bne.n	9cc <sd_mmc_test_unit_ready+0x34>
     9c2:	4b06      	ldr	r3, [pc, #24]	; (9dc <sd_mmc_test_unit_ready+0x44>)
     9c4:	0028      	movs	r0, r5
     9c6:	4798      	blx	r3
     9c8:	0783      	lsls	r3, r0, #30
     9ca:	d100      	bne.n	9ce <sd_mmc_test_unit_ready+0x36>
     9cc:	2402      	movs	r4, #2
     9ce:	0020      	movs	r0, r4
     9d0:	bd70      	pop	{r4, r5, r6, pc}
     9d2:	46c0      	nop			; (mov r8, r8)
     9d4:	00000365 	.word	0x00000365
     9d8:	200000be 	.word	0x200000be
     9dc:	00000779 	.word	0x00000779

000009e0 <sd_mmc_test_unit_ready_0>:
     9e0:	b510      	push	{r4, lr}
     9e2:	2000      	movs	r0, #0
     9e4:	4b01      	ldr	r3, [pc, #4]	; (9ec <sd_mmc_test_unit_ready_0+0xc>)
     9e6:	4798      	blx	r3
     9e8:	bd10      	pop	{r4, pc}
     9ea:	46c0      	nop			; (mov r8, r8)
     9ec:	00000999 	.word	0x00000999

000009f0 <sd_mmc_read_capacity>:
     9f0:	b570      	push	{r4, r5, r6, lr}
     9f2:	4b05      	ldr	r3, [pc, #20]	; (a08 <sd_mmc_read_capacity+0x18>)
     9f4:	000d      	movs	r5, r1
     9f6:	0004      	movs	r4, r0
     9f8:	4798      	blx	r3
     9fa:	0040      	lsls	r0, r0, #1
     9fc:	3801      	subs	r0, #1
     9fe:	6028      	str	r0, [r5, #0]
     a00:	4b02      	ldr	r3, [pc, #8]	; (a0c <sd_mmc_read_capacity+0x1c>)
     a02:	0020      	movs	r0, r4
     a04:	4798      	blx	r3
     a06:	bd70      	pop	{r4, r5, r6, pc}
     a08:	000007a1 	.word	0x000007a1
     a0c:	00000999 	.word	0x00000999

00000a10 <sd_mmc_read_capacity_0>:
     a10:	b510      	push	{r4, lr}
     a12:	0001      	movs	r1, r0
     a14:	4b01      	ldr	r3, [pc, #4]	; (a1c <sd_mmc_read_capacity_0+0xc>)
     a16:	2000      	movs	r0, #0
     a18:	4798      	blx	r3
     a1a:	bd10      	pop	{r4, pc}
     a1c:	000009f1 	.word	0x000009f1

00000a20 <sd_mmc_wr_protect_0>:
     a20:	b510      	push	{r4, lr}
     a22:	2000      	movs	r0, #0
     a24:	4b01      	ldr	r3, [pc, #4]	; (a2c <sd_mmc_wr_protect_0+0xc>)
     a26:	4798      	blx	r3
     a28:	bd10      	pop	{r4, pc}
     a2a:	46c0      	nop			; (mov r8, r8)
     a2c:	000007c9 	.word	0x000007c9

00000a30 <sd_mmc_mem_2_ram>:
     a30:	b510      	push	{r4, lr}
     a32:	4b0c      	ldr	r3, [pc, #48]	; (a64 <sd_mmc_mem_2_ram+0x34>)
     a34:	0014      	movs	r4, r2
     a36:	2201      	movs	r2, #1
     a38:	4798      	blx	r3
     a3a:	2800      	cmp	r0, #0
     a3c:	d005      	beq.n	a4a <sd_mmc_mem_2_ram+0x1a>
     a3e:	3802      	subs	r0, #2
     a40:	4243      	negs	r3, r0
     a42:	4143      	adcs	r3, r0
     a44:	3301      	adds	r3, #1
     a46:	0018      	movs	r0, r3
     a48:	bd10      	pop	{r4, pc}
     a4a:	4b07      	ldr	r3, [pc, #28]	; (a68 <sd_mmc_mem_2_ram+0x38>)
     a4c:	2101      	movs	r1, #1
     a4e:	0020      	movs	r0, r4
     a50:	4798      	blx	r3
     a52:	2301      	movs	r3, #1
     a54:	2800      	cmp	r0, #0
     a56:	d1f6      	bne.n	a46 <sd_mmc_mem_2_ram+0x16>
     a58:	4b04      	ldr	r3, [pc, #16]	; (a6c <sd_mmc_mem_2_ram+0x3c>)
     a5a:	4798      	blx	r3
     a5c:	1e43      	subs	r3, r0, #1
     a5e:	4198      	sbcs	r0, r3
     a60:	b2c3      	uxtb	r3, r0
     a62:	e7f0      	b.n	a46 <sd_mmc_mem_2_ram+0x16>
     a64:	000007cd 	.word	0x000007cd
     a68:	00000845 	.word	0x00000845
     a6c:	0000086d 	.word	0x0000086d

00000a70 <sd_mmc_mem_2_ram_0>:
     a70:	b510      	push	{r4, lr}
     a72:	000a      	movs	r2, r1
     a74:	4b02      	ldr	r3, [pc, #8]	; (a80 <sd_mmc_mem_2_ram_0+0x10>)
     a76:	0001      	movs	r1, r0
     a78:	2000      	movs	r0, #0
     a7a:	4798      	blx	r3
     a7c:	bd10      	pop	{r4, pc}
     a7e:	46c0      	nop			; (mov r8, r8)
     a80:	00000a31 	.word	0x00000a31

00000a84 <sd_mmc_ram_2_mem>:
     a84:	b510      	push	{r4, lr}
     a86:	4b0c      	ldr	r3, [pc, #48]	; (ab8 <sd_mmc_ram_2_mem+0x34>)
     a88:	0014      	movs	r4, r2
     a8a:	2201      	movs	r2, #1
     a8c:	4798      	blx	r3
     a8e:	2800      	cmp	r0, #0
     a90:	d005      	beq.n	a9e <sd_mmc_ram_2_mem+0x1a>
     a92:	3802      	subs	r0, #2
     a94:	4243      	negs	r3, r0
     a96:	4143      	adcs	r3, r0
     a98:	3301      	adds	r3, #1
     a9a:	0018      	movs	r0, r3
     a9c:	bd10      	pop	{r4, pc}
     a9e:	4b07      	ldr	r3, [pc, #28]	; (abc <sd_mmc_ram_2_mem+0x38>)
     aa0:	2101      	movs	r1, #1
     aa2:	0020      	movs	r0, r4
     aa4:	4798      	blx	r3
     aa6:	2301      	movs	r3, #1
     aa8:	2800      	cmp	r0, #0
     aaa:	d1f6      	bne.n	a9a <sd_mmc_ram_2_mem+0x16>
     aac:	4b04      	ldr	r3, [pc, #16]	; (ac0 <sd_mmc_ram_2_mem+0x3c>)
     aae:	4798      	blx	r3
     ab0:	1e43      	subs	r3, r0, #1
     ab2:	4198      	sbcs	r0, r3
     ab4:	b2c3      	uxtb	r3, r0
     ab6:	e7f0      	b.n	a9a <sd_mmc_ram_2_mem+0x16>
     ab8:	000008cd 	.word	0x000008cd
     abc:	00000939 	.word	0x00000939
     ac0:	00000961 	.word	0x00000961

00000ac4 <sd_mmc_ram_2_mem_0>:
     ac4:	b510      	push	{r4, lr}
     ac6:	000a      	movs	r2, r1
     ac8:	4b02      	ldr	r3, [pc, #8]	; (ad4 <sd_mmc_ram_2_mem_0+0x10>)
     aca:	0001      	movs	r1, r0
     acc:	2000      	movs	r0, #0
     ace:	4798      	blx	r3
     ad0:	bd10      	pop	{r4, pc}
     ad2:	46c0      	nop			; (mov r8, r8)
     ad4:	00000a85 	.word	0x00000a85

00000ad8 <sd_mmc_spi_start_write_block>:
     ad8:	b537      	push	{r0, r1, r2, r4, r5, lr}
     ada:	466b      	mov	r3, sp
     adc:	1d99      	adds	r1, r3, #6
     ade:	23ff      	movs	r3, #255	; 0xff
     ae0:	4d09      	ldr	r5, [pc, #36]	; (b08 <sd_mmc_spi_start_write_block+0x30>)
     ae2:	2201      	movs	r2, #1
     ae4:	0028      	movs	r0, r5
     ae6:	4c09      	ldr	r4, [pc, #36]	; (b0c <sd_mmc_spi_start_write_block+0x34>)
     ae8:	700b      	strb	r3, [r1, #0]
     aea:	47a0      	blx	r4
     aec:	466a      	mov	r2, sp
     aee:	4b08      	ldr	r3, [pc, #32]	; (b10 <sd_mmc_spi_start_write_block+0x38>)
     af0:	1dd1      	adds	r1, r2, #7
     af2:	881b      	ldrh	r3, [r3, #0]
     af4:	2b01      	cmp	r3, #1
     af6:	d105      	bne.n	b04 <sd_mmc_spi_start_write_block+0x2c>
     af8:	33fd      	adds	r3, #253	; 0xfd
     afa:	0028      	movs	r0, r5
     afc:	2201      	movs	r2, #1
     afe:	700b      	strb	r3, [r1, #0]
     b00:	47a0      	blx	r4
     b02:	bd37      	pop	{r0, r1, r2, r4, r5, pc}
     b04:	23fc      	movs	r3, #252	; 0xfc
     b06:	e7f8      	b.n	afa <sd_mmc_spi_start_write_block+0x22>
     b08:	200000c0 	.word	0x200000c0
     b0c:	00001c21 	.word	0x00001c21
     b10:	20000102 	.word	0x20000102

00000b14 <sd_mmc_spi_wait_busy>:
     b14:	b5f7      	push	{r0, r1, r2, r4, r5, r6, r7, lr}
     b16:	466b      	mov	r3, sp
     b18:	24ff      	movs	r4, #255	; 0xff
     b1a:	4e0f      	ldr	r6, [pc, #60]	; (b58 <sd_mmc_spi_wait_busy+0x44>)
     b1c:	1ddd      	adds	r5, r3, #7
     b1e:	2201      	movs	r2, #1
     b20:	0023      	movs	r3, r4
     b22:	0029      	movs	r1, r5
     b24:	4f0d      	ldr	r7, [pc, #52]	; (b5c <sd_mmc_spi_wait_busy+0x48>)
     b26:	0030      	movs	r0, r6
     b28:	702c      	strb	r4, [r5, #0]
     b2a:	47b8      	blx	r7
     b2c:	0023      	movs	r3, r4
     b2e:	2201      	movs	r2, #1
     b30:	0029      	movs	r1, r5
     b32:	0030      	movs	r0, r6
     b34:	47b8      	blx	r7
     b36:	4c0a      	ldr	r4, [pc, #40]	; (b60 <sd_mmc_spi_wait_busy+0x4c>)
     b38:	23ff      	movs	r3, #255	; 0xff
     b3a:	2201      	movs	r2, #1
     b3c:	0029      	movs	r1, r5
     b3e:	0030      	movs	r0, r6
     b40:	4f06      	ldr	r7, [pc, #24]	; (b5c <sd_mmc_spi_wait_busy+0x48>)
     b42:	3c01      	subs	r4, #1
     b44:	47b8      	blx	r7
     b46:	2c00      	cmp	r4, #0
     b48:	d004      	beq.n	b54 <sd_mmc_spi_wait_busy+0x40>
     b4a:	782b      	ldrb	r3, [r5, #0]
     b4c:	2bff      	cmp	r3, #255	; 0xff
     b4e:	d1f3      	bne.n	b38 <sd_mmc_spi_wait_busy+0x24>
     b50:	2001      	movs	r0, #1
     b52:	bdfe      	pop	{r1, r2, r3, r4, r5, r6, r7, pc}
     b54:	0020      	movs	r0, r4
     b56:	e7fc      	b.n	b52 <sd_mmc_spi_wait_busy+0x3e>
     b58:	200000c0 	.word	0x200000c0
     b5c:	00001b15 	.word	0x00001b15
     b60:	00030d41 	.word	0x00030d41

00000b64 <sd_mmc_spi_start_read_block>:
     b64:	b5f7      	push	{r0, r1, r2, r4, r5, r6, r7, lr}
     b66:	466b      	mov	r3, sp
     b68:	1ddd      	adds	r5, r3, #7
     b6a:	2300      	movs	r3, #0
     b6c:	260f      	movs	r6, #15
     b6e:	4c11      	ldr	r4, [pc, #68]	; (bb4 <sd_mmc_spi_start_read_block+0x50>)
     b70:	702b      	strb	r3, [r5, #0]
     b72:	3c01      	subs	r4, #1
     b74:	2c00      	cmp	r4, #0
     b76:	d104      	bne.n	b82 <sd_mmc_spi_start_read_block+0x1e>
     b78:	2204      	movs	r2, #4
     b7a:	0020      	movs	r0, r4
     b7c:	4b0e      	ldr	r3, [pc, #56]	; (bb8 <sd_mmc_spi_start_read_block+0x54>)
     b7e:	701a      	strb	r2, [r3, #0]
     b80:	bdfe      	pop	{r1, r2, r3, r4, r5, r6, r7, pc}
     b82:	2201      	movs	r2, #1
     b84:	23ff      	movs	r3, #255	; 0xff
     b86:	0029      	movs	r1, r5
     b88:	480c      	ldr	r0, [pc, #48]	; (bbc <sd_mmc_spi_start_read_block+0x58>)
     b8a:	4f0d      	ldr	r7, [pc, #52]	; (bc0 <sd_mmc_spi_start_read_block+0x5c>)
     b8c:	47b8      	blx	r7
     b8e:	7828      	ldrb	r0, [r5, #0]
     b90:	0002      	movs	r2, r0
     b92:	43b2      	bics	r2, r6
     b94:	d109      	bne.n	baa <sd_mmc_spi_start_read_block+0x46>
     b96:	2107      	movs	r1, #7
     b98:	4b07      	ldr	r3, [pc, #28]	; (bb8 <sd_mmc_spi_start_read_block+0x54>)
     b9a:	4008      	ands	r0, r1
     b9c:	d002      	beq.n	ba4 <sd_mmc_spi_start_read_block+0x40>
     b9e:	7019      	strb	r1, [r3, #0]
     ba0:	0010      	movs	r0, r2
     ba2:	e7ed      	b.n	b80 <sd_mmc_spi_start_read_block+0x1c>
     ba4:	220b      	movs	r2, #11
     ba6:	701a      	strb	r2, [r3, #0]
     ba8:	e7ea      	b.n	b80 <sd_mmc_spi_start_read_block+0x1c>
     baa:	28fe      	cmp	r0, #254	; 0xfe
     bac:	d1e1      	bne.n	b72 <sd_mmc_spi_start_read_block+0xe>
     bae:	38fd      	subs	r0, #253	; 0xfd
     bb0:	e7e6      	b.n	b80 <sd_mmc_spi_start_read_block+0x1c>
     bb2:	46c0      	nop			; (mov r8, r8)
     bb4:	0007a121 	.word	0x0007a121
     bb8:	20000101 	.word	0x20000101
     bbc:	200000c0 	.word	0x200000c0
     bc0:	00001b15 	.word	0x00001b15

00000bc4 <sd_mmc_spi_stop_write_block>:
     bc4:	b537      	push	{r0, r1, r2, r4, r5, lr}
     bc6:	466b      	mov	r3, sp
     bc8:	1d99      	adds	r1, r3, #6
     bca:	2301      	movs	r3, #1
     bcc:	4d12      	ldr	r5, [pc, #72]	; (c18 <sd_mmc_spi_stop_write_block+0x54>)
     bce:	425b      	negs	r3, r3
     bd0:	800b      	strh	r3, [r1, #0]
     bd2:	2202      	movs	r2, #2
     bd4:	0028      	movs	r0, r5
     bd6:	4b11      	ldr	r3, [pc, #68]	; (c1c <sd_mmc_spi_stop_write_block+0x58>)
     bd8:	4798      	blx	r3
     bda:	466b      	mov	r3, sp
     bdc:	1d5c      	adds	r4, r3, #5
     bde:	0028      	movs	r0, r5
     be0:	23ff      	movs	r3, #255	; 0xff
     be2:	2201      	movs	r2, #1
     be4:	0021      	movs	r1, r4
     be6:	4d0e      	ldr	r5, [pc, #56]	; (c20 <sd_mmc_spi_stop_write_block+0x5c>)
     be8:	47a8      	blx	r5
     bea:	2011      	movs	r0, #17
     bec:	7823      	ldrb	r3, [r4, #0]
     bee:	4018      	ands	r0, r3
     bf0:	2801      	cmp	r0, #1
     bf2:	d004      	beq.n	bfe <sd_mmc_spi_stop_write_block+0x3a>
     bf4:	2201      	movs	r2, #1
     bf6:	4b0b      	ldr	r3, [pc, #44]	; (c24 <sd_mmc_spi_stop_write_block+0x60>)
     bf8:	701a      	strb	r2, [r3, #0]
     bfa:	2000      	movs	r0, #0
     bfc:	bd3e      	pop	{r1, r2, r3, r4, r5, pc}
     bfe:	221e      	movs	r2, #30
     c00:	4013      	ands	r3, r2
     c02:	2b04      	cmp	r3, #4
     c04:	d0fa      	beq.n	bfc <sd_mmc_spi_stop_write_block+0x38>
     c06:	4a07      	ldr	r2, [pc, #28]	; (c24 <sd_mmc_spi_stop_write_block+0x60>)
     c08:	2b0a      	cmp	r3, #10
     c0a:	d102      	bne.n	c12 <sd_mmc_spi_stop_write_block+0x4e>
     c0c:	3b02      	subs	r3, #2
     c0e:	7013      	strb	r3, [r2, #0]
     c10:	e7f3      	b.n	bfa <sd_mmc_spi_stop_write_block+0x36>
     c12:	230a      	movs	r3, #10
     c14:	e7fb      	b.n	c0e <sd_mmc_spi_stop_write_block+0x4a>
     c16:	46c0      	nop			; (mov r8, r8)
     c18:	200000c0 	.word	0x200000c0
     c1c:	00001c21 	.word	0x00001c21
     c20:	00001b15 	.word	0x00001b15
     c24:	20000101 	.word	0x20000101

00000c28 <sd_mmc_spi_stop_multiwrite_block>:
     c28:	b5f7      	push	{r0, r1, r2, r4, r5, r6, r7, lr}
     c2a:	4b13      	ldr	r3, [pc, #76]	; (c78 <sd_mmc_spi_stop_multiwrite_block+0x50>)
     c2c:	881d      	ldrh	r5, [r3, #0]
     c2e:	002c      	movs	r4, r5
     c30:	2d01      	cmp	r5, #1
     c32:	d01f      	beq.n	c74 <sd_mmc_spi_stop_multiwrite_block+0x4c>
     c34:	4b11      	ldr	r3, [pc, #68]	; (c7c <sd_mmc_spi_stop_multiwrite_block+0x54>)
     c36:	2401      	movs	r4, #1
     c38:	8819      	ldrh	r1, [r3, #0]
     c3a:	4b11      	ldr	r3, [pc, #68]	; (c80 <sd_mmc_spi_stop_multiwrite_block+0x58>)
     c3c:	6818      	ldr	r0, [r3, #0]
     c3e:	4b11      	ldr	r3, [pc, #68]	; (c84 <sd_mmc_spi_stop_multiwrite_block+0x5c>)
     c40:	4798      	blx	r3
     c42:	4285      	cmp	r5, r0
     c44:	d816      	bhi.n	c74 <sd_mmc_spi_stop_multiwrite_block+0x4c>
     c46:	466b      	mov	r3, sp
     c48:	1ddd      	adds	r5, r3, #7
     c4a:	23ff      	movs	r3, #255	; 0xff
     c4c:	4f0e      	ldr	r7, [pc, #56]	; (c88 <sd_mmc_spi_stop_multiwrite_block+0x60>)
     c4e:	0022      	movs	r2, r4
     c50:	0029      	movs	r1, r5
     c52:	4e0e      	ldr	r6, [pc, #56]	; (c8c <sd_mmc_spi_stop_multiwrite_block+0x64>)
     c54:	0038      	movs	r0, r7
     c56:	702b      	strb	r3, [r5, #0]
     c58:	47b0      	blx	r6
     c5a:	23fd      	movs	r3, #253	; 0xfd
     c5c:	0022      	movs	r2, r4
     c5e:	0029      	movs	r1, r5
     c60:	0038      	movs	r0, r7
     c62:	702b      	strb	r3, [r5, #0]
     c64:	47b0      	blx	r6
     c66:	4b0a      	ldr	r3, [pc, #40]	; (c90 <sd_mmc_spi_stop_multiwrite_block+0x68>)
     c68:	4798      	blx	r3
     c6a:	1e04      	subs	r4, r0, #0
     c6c:	d102      	bne.n	c74 <sd_mmc_spi_stop_multiwrite_block+0x4c>
     c6e:	2205      	movs	r2, #5
     c70:	4b08      	ldr	r3, [pc, #32]	; (c94 <sd_mmc_spi_stop_multiwrite_block+0x6c>)
     c72:	701a      	strb	r2, [r3, #0]
     c74:	0020      	movs	r0, r4
     c76:	bdfe      	pop	{r1, r2, r3, r4, r5, r6, r7, pc}
     c78:	20000102 	.word	0x20000102
     c7c:	200000fc 	.word	0x200000fc
     c80:	20000108 	.word	0x20000108
     c84:	000044b1 	.word	0x000044b1
     c88:	200000c0 	.word	0x200000c0
     c8c:	00001c21 	.word	0x00001c21
     c90:	00000b15 	.word	0x00000b15
     c94:	20000101 	.word	0x20000101

00000c98 <sd_mmc_spi_init>:
     c98:	b5f0      	push	{r4, r5, r6, r7, lr}
     c9a:	2500      	movs	r5, #0
     c9c:	4b2f      	ldr	r3, [pc, #188]	; (d5c <sd_mmc_spi_init+0xc4>)
     c9e:	b091      	sub	sp, #68	; 0x44
     ca0:	2601      	movs	r6, #1
     ca2:	701d      	strb	r5, [r3, #0]
     ca4:	466b      	mov	r3, sp
     ca6:	4669      	mov	r1, sp
     ca8:	2017      	movs	r0, #23
     caa:	4f2d      	ldr	r7, [pc, #180]	; (d60 <sd_mmc_spi_init+0xc8>)
     cac:	701d      	strb	r5, [r3, #0]
     cae:	705e      	strb	r6, [r3, #1]
     cb0:	709d      	strb	r5, [r3, #2]
     cb2:	47b8      	blx	r7
     cb4:	230d      	movs	r3, #13
     cb6:	446b      	add	r3, sp
     cb8:	ac02      	add	r4, sp, #8
     cba:	77dd      	strb	r5, [r3, #31]
     cbc:	0029      	movs	r1, r5
     cbe:	220c      	movs	r2, #12
     cc0:	4b28      	ldr	r3, [pc, #160]	; (d64 <sd_mmc_spi_init+0xcc>)
     cc2:	a808      	add	r0, sp, #32
     cc4:	7026      	strb	r6, [r4, #0]
     cc6:	7425      	strb	r5, [r4, #16]
     cc8:	7465      	strb	r5, [r4, #17]
     cca:	74a6      	strb	r6, [r4, #18]
     ccc:	74e6      	strb	r6, [r4, #19]
     cce:	7525      	strb	r5, [r4, #20]
     cd0:	9503      	str	r5, [sp, #12]
     cd2:	9504      	str	r5, [sp, #16]
     cd4:	4798      	blx	r3
     cd6:	2380      	movs	r3, #128	; 0x80
     cd8:	025b      	lsls	r3, r3, #9
     cda:	60e3      	str	r3, [r4, #12]
     cdc:	4b22      	ldr	r3, [pc, #136]	; (d68 <sd_mmc_spi_init+0xd0>)
     cde:	4d23      	ldr	r5, [pc, #140]	; (d6c <sd_mmc_spi_init+0xd4>)
     ce0:	62a3      	str	r3, [r4, #40]	; 0x28
     ce2:	4b23      	ldr	r3, [pc, #140]	; (d70 <sd_mmc_spi_init+0xd8>)
     ce4:	0022      	movs	r2, r4
     ce6:	62e3      	str	r3, [r4, #44]	; 0x2c
     ce8:	4b22      	ldr	r3, [pc, #136]	; (d74 <sd_mmc_spi_init+0xdc>)
     cea:	4923      	ldr	r1, [pc, #140]	; (d78 <sd_mmc_spi_init+0xe0>)
     cec:	6323      	str	r3, [r4, #48]	; 0x30
     cee:	4b23      	ldr	r3, [pc, #140]	; (d7c <sd_mmc_spi_init+0xe4>)
     cf0:	0028      	movs	r0, r5
     cf2:	6363      	str	r3, [r4, #52]	; 0x34
     cf4:	4b22      	ldr	r3, [pc, #136]	; (d80 <sd_mmc_spi_init+0xe8>)
     cf6:	61a3      	str	r3, [r4, #24]
     cf8:	4b22      	ldr	r3, [pc, #136]	; (d84 <sd_mmc_spi_init+0xec>)
     cfa:	4798      	blx	r3
     cfc:	682c      	ldr	r4, [r5, #0]
     cfe:	4b22      	ldr	r3, [pc, #136]	; (d88 <sd_mmc_spi_init+0xf0>)
     d00:	0020      	movs	r0, r4
     d02:	4798      	blx	r3
     d04:	231f      	movs	r3, #31
     d06:	4018      	ands	r0, r3
     d08:	4086      	lsls	r6, r0
     d0a:	4b20      	ldr	r3, [pc, #128]	; (d8c <sd_mmc_spi_init+0xf4>)
     d0c:	601e      	str	r6, [r3, #0]
     d0e:	682b      	ldr	r3, [r5, #0]
     d10:	69dd      	ldr	r5, [r3, #28]
     d12:	2d00      	cmp	r5, #0
     d14:	d1fc      	bne.n	d10 <sd_mmc_spi_init+0x78>
     d16:	2302      	movs	r3, #2
     d18:	6822      	ldr	r2, [r4, #0]
     d1a:	4e1d      	ldr	r6, [pc, #116]	; (d90 <sd_mmc_spi_init+0xf8>)
     d1c:	4313      	orrs	r3, r2
     d1e:	6023      	str	r3, [r4, #0]
     d20:	2401      	movs	r4, #1
     d22:	4a1c      	ldr	r2, [pc, #112]	; (d94 <sd_mmc_spi_init+0xfc>)
     d24:	4b1c      	ldr	r3, [pc, #112]	; (d98 <sd_mmc_spi_init+0x100>)
     d26:	7810      	ldrb	r0, [r2, #0]
     d28:	a901      	add	r1, sp, #4
     d2a:	705d      	strb	r5, [r3, #1]
     d2c:	709d      	strb	r5, [r3, #2]
     d2e:	7018      	strb	r0, [r3, #0]
     d30:	7030      	strb	r0, [r6, #0]
     d32:	7075      	strb	r5, [r6, #1]
     d34:	70b5      	strb	r5, [r6, #2]
     d36:	704c      	strb	r4, [r1, #1]
     d38:	708d      	strb	r5, [r1, #2]
     d3a:	700c      	strb	r4, [r1, #0]
     d3c:	47b8      	blx	r7
     d3e:	7832      	ldrb	r2, [r6, #0]
     d40:	0953      	lsrs	r3, r2, #5
     d42:	09d1      	lsrs	r1, r2, #7
     d44:	d108      	bne.n	d58 <sd_mmc_spi_init+0xc0>
     d46:	311f      	adds	r1, #31
     d48:	400a      	ands	r2, r1
     d4a:	4094      	lsls	r4, r2
     d4c:	4a13      	ldr	r2, [pc, #76]	; (d9c <sd_mmc_spi_init+0x104>)
     d4e:	01db      	lsls	r3, r3, #7
     d50:	189b      	adds	r3, r3, r2
     d52:	619c      	str	r4, [r3, #24]
     d54:	b011      	add	sp, #68	; 0x44
     d56:	bdf0      	pop	{r4, r5, r6, r7, pc}
     d58:	61ad      	str	r5, [r5, #24]
     d5a:	deff      	udf	#255	; 0xff
     d5c:	20000101 	.word	0x20000101
     d60:	0000125d 	.word	0x0000125d
     d64:	00004a77 	.word	0x00004a77
     d68:	00220003 	.word	0x00220003
     d6c:	200000c0 	.word	0x200000c0
     d70:	00230003 	.word	0x00230003
     d74:	00360003 	.word	0x00360003
     d78:	42001c00 	.word	0x42001c00
     d7c:	00370003 	.word	0x00370003
     d80:	00061a80 	.word	0x00061a80
     d84:	0000194d 	.word	0x0000194d
     d88:	0000178d 	.word	0x0000178d
     d8c:	e000e100 	.word	0xe000e100
     d90:	200000fe 	.word	0x200000fe
     d94:	20000030 	.word	0x20000030
     d98:	2000010c 	.word	0x2000010c
     d9c:	41004400 	.word	0x41004400

00000da0 <sd_mmc_spi_select_device>:
     da0:	2200      	movs	r2, #0
     da2:	4b0e      	ldr	r3, [pc, #56]	; (ddc <sd_mmc_spi_select_device+0x3c>)
     da4:	b570      	push	{r4, r5, r6, lr}
     da6:	701a      	strb	r2, [r3, #0]
     da8:	4b0d      	ldr	r3, [pc, #52]	; (de0 <sd_mmc_spi_select_device+0x40>)
     daa:	0006      	movs	r6, r0
     dac:	000c      	movs	r4, r1
     dae:	4299      	cmp	r1, r3
     db0:	d900      	bls.n	db4 <sd_mmc_spi_select_device+0x14>
     db2:	001c      	movs	r4, r3
     db4:	4d0b      	ldr	r5, [pc, #44]	; (de4 <sd_mmc_spi_select_device+0x44>)
     db6:	0021      	movs	r1, r4
     db8:	0028      	movs	r0, r5
     dba:	4b0b      	ldr	r3, [pc, #44]	; (de8 <sd_mmc_spi_select_device+0x48>)
     dbc:	4798      	blx	r3
     dbe:	2817      	cmp	r0, #23
     dc0:	d008      	beq.n	dd4 <sd_mmc_spi_select_device+0x34>
     dc2:	2103      	movs	r1, #3
     dc4:	434e      	muls	r6, r1
     dc6:	4909      	ldr	r1, [pc, #36]	; (dec <sd_mmc_spi_select_device+0x4c>)
     dc8:	0028      	movs	r0, r5
     dca:	1989      	adds	r1, r1, r6
     dcc:	2201      	movs	r2, #1
     dce:	4b08      	ldr	r3, [pc, #32]	; (df0 <sd_mmc_spi_select_device+0x50>)
     dd0:	4798      	blx	r3
     dd2:	bd70      	pop	{r4, r5, r6, pc}
     dd4:	08e3      	lsrs	r3, r4, #3
     dd6:	1ae4      	subs	r4, r4, r3
     dd8:	e7ec      	b.n	db4 <sd_mmc_spi_select_device+0x14>
     dda:	46c0      	nop			; (mov r8, r8)
     ddc:	20000101 	.word	0x20000101
     de0:	00989680 	.word	0x00989680
     de4:	200000c0 	.word	0x200000c0
     de8:	000018c1 	.word	0x000018c1
     dec:	200000fe 	.word	0x200000fe
     df0:	00001ba5 	.word	0x00001ba5

00000df4 <sd_mmc_spi_deselect_device>:
     df4:	2103      	movs	r1, #3
     df6:	2200      	movs	r2, #0
     df8:	b510      	push	{r4, lr}
     dfa:	4348      	muls	r0, r1
     dfc:	4b03      	ldr	r3, [pc, #12]	; (e0c <sd_mmc_spi_deselect_device+0x18>)
     dfe:	4904      	ldr	r1, [pc, #16]	; (e10 <sd_mmc_spi_deselect_device+0x1c>)
     e00:	701a      	strb	r2, [r3, #0]
     e02:	1809      	adds	r1, r1, r0
     e04:	4b03      	ldr	r3, [pc, #12]	; (e14 <sd_mmc_spi_deselect_device+0x20>)
     e06:	4804      	ldr	r0, [pc, #16]	; (e18 <sd_mmc_spi_deselect_device+0x24>)
     e08:	4798      	blx	r3
     e0a:	bd10      	pop	{r4, pc}
     e0c:	20000101 	.word	0x20000101
     e10:	200000fe 	.word	0x200000fe
     e14:	00001ba5 	.word	0x00001ba5
     e18:	200000c0 	.word	0x200000c0

00000e1c <sd_mmc_spi_send_clock>:
     e1c:	b537      	push	{r0, r1, r2, r4, r5, lr}
     e1e:	466b      	mov	r3, sp
     e20:	1ddd      	adds	r5, r3, #7
     e22:	23ff      	movs	r3, #255	; 0xff
     e24:	2200      	movs	r2, #0
     e26:	240a      	movs	r4, #10
     e28:	702b      	strb	r3, [r5, #0]
     e2a:	4b06      	ldr	r3, [pc, #24]	; (e44 <sd_mmc_spi_send_clock+0x28>)
     e2c:	701a      	strb	r2, [r3, #0]
     e2e:	3c01      	subs	r4, #1
     e30:	2201      	movs	r2, #1
     e32:	0029      	movs	r1, r5
     e34:	4804      	ldr	r0, [pc, #16]	; (e48 <sd_mmc_spi_send_clock+0x2c>)
     e36:	4b05      	ldr	r3, [pc, #20]	; (e4c <sd_mmc_spi_send_clock+0x30>)
     e38:	b2e4      	uxtb	r4, r4
     e3a:	4798      	blx	r3
     e3c:	2c00      	cmp	r4, #0
     e3e:	d1f6      	bne.n	e2e <sd_mmc_spi_send_clock+0x12>
     e40:	bd37      	pop	{r0, r1, r2, r4, r5, pc}
     e42:	46c0      	nop			; (mov r8, r8)
     e44:	20000101 	.word	0x20000101
     e48:	200000c0 	.word	0x200000c0
     e4c:	00001c21 	.word	0x00001c21

00000e50 <sd_mmc_spi_adtc_start>:
     e50:	b5f0      	push	{r4, r5, r6, r7, lr}
     e52:	b089      	sub	sp, #36	; 0x24
     e54:	9202      	str	r2, [sp, #8]
     e56:	22ff      	movs	r2, #255	; 0xff
     e58:	9303      	str	r3, [sp, #12]
     e5a:	ab04      	add	r3, sp, #16
     e5c:	719a      	strb	r2, [r3, #6]
     e5e:	2200      	movs	r2, #0
     e60:	243f      	movs	r4, #63	; 0x3f
     e62:	4b49      	ldr	r3, [pc, #292]	; (f88 <sd_mmc_spi_adtc_start+0x138>)
     e64:	9001      	str	r0, [sp, #4]
     e66:	701a      	strb	r2, [r3, #0]
     e68:	9b01      	ldr	r3, [sp, #4]
     e6a:	a806      	add	r0, sp, #24
     e6c:	401c      	ands	r4, r3
     e6e:	2340      	movs	r3, #64	; 0x40
     e70:	4323      	orrs	r3, r4
     e72:	7003      	strb	r3, [r0, #0]
     e74:	0e0b      	lsrs	r3, r1, #24
     e76:	7043      	strb	r3, [r0, #1]
     e78:	0c0b      	lsrs	r3, r1, #16
     e7a:	7083      	strb	r3, [r0, #2]
     e7c:	0a0b      	lsrs	r3, r1, #8
     e7e:	70c3      	strb	r3, [r0, #3]
     e80:	2608      	movs	r6, #8
     e82:	0013      	movs	r3, r2
     e84:	2709      	movs	r7, #9
     e86:	7101      	strb	r1, [r0, #4]
     e88:	0031      	movs	r1, r6
     e8a:	5c84      	ldrb	r4, [r0, r2]
     e8c:	005b      	lsls	r3, r3, #1
     e8e:	b2db      	uxtb	r3, r3
     e90:	001d      	movs	r5, r3
     e92:	4065      	eors	r5, r4
     e94:	062d      	lsls	r5, r5, #24
     e96:	d500      	bpl.n	e9a <sd_mmc_spi_adtc_start+0x4a>
     e98:	407b      	eors	r3, r7
     e9a:	3901      	subs	r1, #1
     e9c:	0064      	lsls	r4, r4, #1
     e9e:	b2c9      	uxtb	r1, r1
     ea0:	b2e4      	uxtb	r4, r4
     ea2:	2900      	cmp	r1, #0
     ea4:	d1f2      	bne.n	e8c <sd_mmc_spi_adtc_start+0x3c>
     ea6:	3201      	adds	r2, #1
     ea8:	2a05      	cmp	r2, #5
     eaa:	d1ed      	bne.n	e88 <sd_mmc_spi_adtc_start+0x38>
     eac:	2401      	movs	r4, #1
     eae:	005b      	lsls	r3, r3, #1
     eb0:	4f36      	ldr	r7, [pc, #216]	; (f8c <sd_mmc_spi_adtc_start+0x13c>)
     eb2:	4323      	orrs	r3, r4
     eb4:	ae06      	add	r6, sp, #24
     eb6:	7173      	strb	r3, [r6, #5]
     eb8:	ab04      	add	r3, sp, #16
     eba:	1d99      	adds	r1, r3, #6
     ebc:	0022      	movs	r2, r4
     ebe:	4d34      	ldr	r5, [pc, #208]	; (f90 <sd_mmc_spi_adtc_start+0x140>)
     ec0:	0038      	movs	r0, r7
     ec2:	47a8      	blx	r5
     ec4:	0031      	movs	r1, r6
     ec6:	2206      	movs	r2, #6
     ec8:	0038      	movs	r0, r7
     eca:	47a8      	blx	r5
     ecc:	ab04      	add	r3, sp, #16
     ece:	1dd9      	adds	r1, r3, #7
     ed0:	23ff      	movs	r3, #255	; 0xff
     ed2:	0022      	movs	r2, r4
     ed4:	0038      	movs	r0, r7
     ed6:	4c2f      	ldr	r4, [pc, #188]	; (f94 <sd_mmc_spi_adtc_start+0x144>)
     ed8:	700b      	strb	r3, [r1, #0]
     eda:	47a0      	blx	r4
     edc:	2407      	movs	r4, #7
     ede:	ab04      	add	r3, sp, #16
     ee0:	1dde      	adds	r6, r3, #7
     ee2:	2201      	movs	r2, #1
     ee4:	23ff      	movs	r3, #255	; 0xff
     ee6:	0031      	movs	r1, r6
     ee8:	4828      	ldr	r0, [pc, #160]	; (f8c <sd_mmc_spi_adtc_start+0x13c>)
     eea:	4d2a      	ldr	r5, [pc, #168]	; (f94 <sd_mmc_spi_adtc_start+0x144>)
     eec:	47a8      	blx	r5
     eee:	7833      	ldrb	r3, [r6, #0]
     ef0:	b25a      	sxtb	r2, r3
     ef2:	2a00      	cmp	r2, #0
     ef4:	da09      	bge.n	f0a <sd_mmc_spi_adtc_start+0xba>
     ef6:	3c01      	subs	r4, #1
     ef8:	b2e4      	uxtb	r4, r4
     efa:	2c00      	cmp	r4, #0
     efc:	d1ef      	bne.n	ede <sd_mmc_spi_adtc_start+0x8e>
     efe:	2202      	movs	r2, #2
     f00:	2000      	movs	r0, #0
     f02:	4b21      	ldr	r3, [pc, #132]	; (f88 <sd_mmc_spi_adtc_start+0x138>)
     f04:	701a      	strb	r2, [r3, #0]
     f06:	b009      	add	sp, #36	; 0x24
     f08:	bdf0      	pop	{r4, r5, r6, r7, pc}
     f0a:	2408      	movs	r4, #8
     f0c:	4e22      	ldr	r6, [pc, #136]	; (f98 <sd_mmc_spi_adtc_start+0x148>)
     f0e:	401c      	ands	r4, r3
     f10:	6033      	str	r3, [r6, #0]
     f12:	d001      	beq.n	f18 <sd_mmc_spi_adtc_start+0xc8>
     f14:	2206      	movs	r2, #6
     f16:	e7f3      	b.n	f00 <sd_mmc_spi_adtc_start+0xb0>
     f18:	2004      	movs	r0, #4
     f1a:	2209      	movs	r2, #9
     f1c:	4018      	ands	r0, r3
     f1e:	d1ef      	bne.n	f00 <sd_mmc_spi_adtc_start+0xb0>
     f20:	2201      	movs	r2, #1
     f22:	4393      	bics	r3, r2
     f24:	d002      	beq.n	f2c <sd_mmc_spi_adtc_start+0xdc>
     f26:	4b18      	ldr	r3, [pc, #96]	; (f88 <sd_mmc_spi_adtc_start+0x138>)
     f28:	701a      	strb	r2, [r3, #0]
     f2a:	e7ec      	b.n	f06 <sd_mmc_spi_adtc_start+0xb6>
     f2c:	9b01      	ldr	r3, [sp, #4]
     f2e:	049b      	lsls	r3, r3, #18
     f30:	d505      	bpl.n	f3e <sd_mmc_spi_adtc_start+0xee>
     f32:	4b1a      	ldr	r3, [pc, #104]	; (f9c <sd_mmc_spi_adtc_start+0x14c>)
     f34:	4798      	blx	r3
     f36:	2800      	cmp	r0, #0
     f38:	d101      	bne.n	f3e <sd_mmc_spi_adtc_start+0xee>
     f3a:	2203      	movs	r2, #3
     f3c:	e7f3      	b.n	f26 <sd_mmc_spi_adtc_start+0xd6>
     f3e:	9b01      	ldr	r3, [sp, #4]
     f40:	059b      	lsls	r3, r3, #22
     f42:	d507      	bpl.n	f54 <sd_mmc_spi_adtc_start+0x104>
     f44:	2300      	movs	r3, #0
     f46:	2201      	movs	r2, #1
     f48:	6033      	str	r3, [r6, #0]
     f4a:	0031      	movs	r1, r6
     f4c:	33ff      	adds	r3, #255	; 0xff
     f4e:	480f      	ldr	r0, [pc, #60]	; (f8c <sd_mmc_spi_adtc_start+0x13c>)
     f50:	4c10      	ldr	r4, [pc, #64]	; (f94 <sd_mmc_spi_adtc_start+0x144>)
     f52:	47a0      	blx	r4
     f54:	9b01      	ldr	r3, [sp, #4]
     f56:	055b      	lsls	r3, r3, #21
     f58:	d509      	bpl.n	f6e <sd_mmc_spi_adtc_start+0x11e>
     f5a:	4c0f      	ldr	r4, [pc, #60]	; (f98 <sd_mmc_spi_adtc_start+0x148>)
     f5c:	23ff      	movs	r3, #255	; 0xff
     f5e:	2204      	movs	r2, #4
     f60:	0021      	movs	r1, r4
     f62:	0038      	movs	r0, r7
     f64:	4d0b      	ldr	r5, [pc, #44]	; (f94 <sd_mmc_spi_adtc_start+0x144>)
     f66:	47a8      	blx	r5
     f68:	6823      	ldr	r3, [r4, #0]
     f6a:	ba1b      	rev	r3, r3
     f6c:	6023      	str	r3, [r4, #0]
     f6e:	466a      	mov	r2, sp
     f70:	4b0b      	ldr	r3, [pc, #44]	; (fa0 <sd_mmc_spi_adtc_start+0x150>)
     f72:	8912      	ldrh	r2, [r2, #8]
     f74:	2001      	movs	r0, #1
     f76:	801a      	strh	r2, [r3, #0]
     f78:	466a      	mov	r2, sp
     f7a:	4b0a      	ldr	r3, [pc, #40]	; (fa4 <sd_mmc_spi_adtc_start+0x154>)
     f7c:	8992      	ldrh	r2, [r2, #12]
     f7e:	801a      	strh	r2, [r3, #0]
     f80:	2200      	movs	r2, #0
     f82:	4b09      	ldr	r3, [pc, #36]	; (fa8 <sd_mmc_spi_adtc_start+0x158>)
     f84:	601a      	str	r2, [r3, #0]
     f86:	e7be      	b.n	f06 <sd_mmc_spi_adtc_start+0xb6>
     f88:	20000101 	.word	0x20000101
     f8c:	200000c0 	.word	0x200000c0
     f90:	00001c21 	.word	0x00001c21
     f94:	00001b15 	.word	0x00001b15
     f98:	20000104 	.word	0x20000104
     f9c:	00000b15 	.word	0x00000b15
     fa0:	200000fc 	.word	0x200000fc
     fa4:	20000102 	.word	0x20000102
     fa8:	20000108 	.word	0x20000108

00000fac <sd_mmc_spi_send_cmd>:
     fac:	2200      	movs	r2, #0
     fae:	b513      	push	{r0, r1, r4, lr}
     fb0:	0013      	movs	r3, r2
     fb2:	9200      	str	r2, [sp, #0]
     fb4:	4c01      	ldr	r4, [pc, #4]	; (fbc <sd_mmc_spi_send_cmd+0x10>)
     fb6:	47a0      	blx	r4
     fb8:	bd16      	pop	{r1, r2, r4, pc}
     fba:	46c0      	nop			; (mov r8, r8)
     fbc:	00000e51 	.word	0x00000e51

00000fc0 <sd_mmc_spi_get_response>:
     fc0:	4b01      	ldr	r3, [pc, #4]	; (fc8 <sd_mmc_spi_get_response+0x8>)
     fc2:	6818      	ldr	r0, [r3, #0]
     fc4:	4770      	bx	lr
     fc6:	46c0      	nop			; (mov r8, r8)
     fc8:	20000104 	.word	0x20000104

00000fcc <sd_mmc_spi_read_word>:
     fcc:	2200      	movs	r2, #0
     fce:	b5f0      	push	{r4, r5, r6, r7, lr}
     fd0:	4b13      	ldr	r3, [pc, #76]	; (1020 <sd_mmc_spi_read_word+0x54>)
     fd2:	4c14      	ldr	r4, [pc, #80]	; (1024 <sd_mmc_spi_read_word+0x58>)
     fd4:	4e14      	ldr	r6, [pc, #80]	; (1028 <sd_mmc_spi_read_word+0x5c>)
     fd6:	b085      	sub	sp, #20
     fd8:	9001      	str	r0, [sp, #4]
     fda:	701a      	strb	r2, [r3, #0]
     fdc:	8831      	ldrh	r1, [r6, #0]
     fde:	4f13      	ldr	r7, [pc, #76]	; (102c <sd_mmc_spi_read_word+0x60>)
     fe0:	6820      	ldr	r0, [r4, #0]
     fe2:	47b8      	blx	r7
     fe4:	2900      	cmp	r1, #0
     fe6:	d00e      	beq.n	1006 <sd_mmc_spi_read_word+0x3a>
     fe8:	23ff      	movs	r3, #255	; 0xff
     fea:	a901      	add	r1, sp, #4
     fec:	2204      	movs	r2, #4
     fee:	4810      	ldr	r0, [pc, #64]	; (1030 <sd_mmc_spi_read_word+0x64>)
     ff0:	4d10      	ldr	r5, [pc, #64]	; (1034 <sd_mmc_spi_read_word+0x68>)
     ff2:	47a8      	blx	r5
     ff4:	6823      	ldr	r3, [r4, #0]
     ff6:	8831      	ldrh	r1, [r6, #0]
     ff8:	1d18      	adds	r0, r3, #4
     ffa:	6020      	str	r0, [r4, #0]
     ffc:	47b8      	blx	r7
     ffe:	2900      	cmp	r1, #0
    1000:	d007      	beq.n	1012 <sd_mmc_spi_read_word+0x46>
    1002:	2001      	movs	r0, #1
    1004:	e003      	b.n	100e <sd_mmc_spi_read_word+0x42>
    1006:	4b0c      	ldr	r3, [pc, #48]	; (1038 <sd_mmc_spi_read_word+0x6c>)
    1008:	4798      	blx	r3
    100a:	2800      	cmp	r0, #0
    100c:	d1ec      	bne.n	fe8 <sd_mmc_spi_read_word+0x1c>
    100e:	b005      	add	sp, #20
    1010:	bdf0      	pop	{r4, r5, r6, r7, pc}
    1012:	23ff      	movs	r3, #255	; 0xff
    1014:	2202      	movs	r2, #2
    1016:	a903      	add	r1, sp, #12
    1018:	4c06      	ldr	r4, [pc, #24]	; (1034 <sd_mmc_spi_read_word+0x68>)
    101a:	4805      	ldr	r0, [pc, #20]	; (1030 <sd_mmc_spi_read_word+0x64>)
    101c:	47a0      	blx	r4
    101e:	e7f0      	b.n	1002 <sd_mmc_spi_read_word+0x36>
    1020:	20000101 	.word	0x20000101
    1024:	20000108 	.word	0x20000108
    1028:	200000fc 	.word	0x200000fc
    102c:	000045bd 	.word	0x000045bd
    1030:	200000c0 	.word	0x200000c0
    1034:	00001b15 	.word	0x00001b15
    1038:	00000b65 	.word	0x00000b65

0000103c <sd_mmc_spi_start_read_blocks>:
    103c:	b5f0      	push	{r4, r5, r6, r7, lr}
    103e:	2400      	movs	r4, #0
    1040:	000d      	movs	r5, r1
    1042:	4b12      	ldr	r3, [pc, #72]	; (108c <sd_mmc_spi_start_read_blocks+0x50>)
    1044:	b085      	sub	sp, #20
    1046:	9001      	str	r0, [sp, #4]
    1048:	701c      	strb	r4, [r3, #0]
    104a:	2d00      	cmp	r5, #0
    104c:	d102      	bne.n	1054 <sd_mmc_spi_start_read_blocks+0x18>
    104e:	2001      	movs	r0, #1
    1050:	b005      	add	sp, #20
    1052:	bdf0      	pop	{r4, r5, r6, r7, pc}
    1054:	4b0e      	ldr	r3, [pc, #56]	; (1090 <sd_mmc_spi_start_read_blocks+0x54>)
    1056:	4798      	blx	r3
    1058:	3d01      	subs	r5, #1
    105a:	b2ad      	uxth	r5, r5
    105c:	2800      	cmp	r0, #0
    105e:	d0f7      	beq.n	1050 <sd_mmc_spi_start_read_blocks+0x14>
    1060:	4f0c      	ldr	r7, [pc, #48]	; (1094 <sd_mmc_spi_start_read_blocks+0x58>)
    1062:	9b01      	ldr	r3, [sp, #4]
    1064:	883a      	ldrh	r2, [r7, #0]
    1066:	1919      	adds	r1, r3, r4
    1068:	4e0b      	ldr	r6, [pc, #44]	; (1098 <sd_mmc_spi_start_read_blocks+0x5c>)
    106a:	23ff      	movs	r3, #255	; 0xff
    106c:	480b      	ldr	r0, [pc, #44]	; (109c <sd_mmc_spi_start_read_blocks+0x60>)
    106e:	47b0      	blx	r6
    1070:	4a0b      	ldr	r2, [pc, #44]	; (10a0 <sd_mmc_spi_start_read_blocks+0x64>)
    1072:	883b      	ldrh	r3, [r7, #0]
    1074:	6811      	ldr	r1, [r2, #0]
    1076:	18e4      	adds	r4, r4, r3
    1078:	18cb      	adds	r3, r1, r3
    107a:	6013      	str	r3, [r2, #0]
    107c:	a903      	add	r1, sp, #12
    107e:	23ff      	movs	r3, #255	; 0xff
    1080:	2202      	movs	r2, #2
    1082:	4e05      	ldr	r6, [pc, #20]	; (1098 <sd_mmc_spi_start_read_blocks+0x5c>)
    1084:	4805      	ldr	r0, [pc, #20]	; (109c <sd_mmc_spi_start_read_blocks+0x60>)
    1086:	47b0      	blx	r6
    1088:	e7df      	b.n	104a <sd_mmc_spi_start_read_blocks+0xe>
    108a:	46c0      	nop			; (mov r8, r8)
    108c:	20000101 	.word	0x20000101
    1090:	00000b65 	.word	0x00000b65
    1094:	200000fc 	.word	0x200000fc
    1098:	00001b15 	.word	0x00001b15
    109c:	200000c0 	.word	0x200000c0
    10a0:	20000108 	.word	0x20000108

000010a4 <sd_mmc_spi_wait_end_of_read_blocks>:
    10a4:	2001      	movs	r0, #1
    10a6:	4770      	bx	lr

000010a8 <sd_mmc_spi_start_write_blocks>:
    10a8:	b5f7      	push	{r0, r1, r2, r4, r5, r6, r7, lr}
    10aa:	2400      	movs	r4, #0
    10ac:	4d13      	ldr	r5, [pc, #76]	; (10fc <sd_mmc_spi_start_write_blocks+0x54>)
    10ae:	9001      	str	r0, [sp, #4]
    10b0:	702c      	strb	r4, [r5, #0]
    10b2:	1e4f      	subs	r7, r1, #1
    10b4:	b2bf      	uxth	r7, r7
    10b6:	2900      	cmp	r1, #0
    10b8:	d101      	bne.n	10be <sd_mmc_spi_start_write_blocks+0x16>
    10ba:	2001      	movs	r0, #1
    10bc:	e01a      	b.n	10f4 <sd_mmc_spi_start_write_blocks+0x4c>
    10be:	4b10      	ldr	r3, [pc, #64]	; (1100 <sd_mmc_spi_start_write_blocks+0x58>)
    10c0:	4798      	blx	r3
    10c2:	4e10      	ldr	r6, [pc, #64]	; (1104 <sd_mmc_spi_start_write_blocks+0x5c>)
    10c4:	9b01      	ldr	r3, [sp, #4]
    10c6:	8832      	ldrh	r2, [r6, #0]
    10c8:	1919      	adds	r1, r3, r4
    10ca:	480f      	ldr	r0, [pc, #60]	; (1108 <sd_mmc_spi_start_write_blocks+0x60>)
    10cc:	4b0f      	ldr	r3, [pc, #60]	; (110c <sd_mmc_spi_start_write_blocks+0x64>)
    10ce:	4798      	blx	r3
    10d0:	4a0f      	ldr	r2, [pc, #60]	; (1110 <sd_mmc_spi_start_write_blocks+0x68>)
    10d2:	8833      	ldrh	r3, [r6, #0]
    10d4:	6811      	ldr	r1, [r2, #0]
    10d6:	18e4      	adds	r4, r4, r3
    10d8:	18cb      	adds	r3, r1, r3
    10da:	6013      	str	r3, [r2, #0]
    10dc:	4b0d      	ldr	r3, [pc, #52]	; (1114 <sd_mmc_spi_start_write_blocks+0x6c>)
    10de:	4798      	blx	r3
    10e0:	2800      	cmp	r0, #0
    10e2:	d007      	beq.n	10f4 <sd_mmc_spi_start_write_blocks+0x4c>
    10e4:	2f00      	cmp	r7, #0
    10e6:	d006      	beq.n	10f6 <sd_mmc_spi_start_write_blocks+0x4e>
    10e8:	4b0b      	ldr	r3, [pc, #44]	; (1118 <sd_mmc_spi_start_write_blocks+0x70>)
    10ea:	4798      	blx	r3
    10ec:	2800      	cmp	r0, #0
    10ee:	d102      	bne.n	10f6 <sd_mmc_spi_start_write_blocks+0x4e>
    10f0:	2305      	movs	r3, #5
    10f2:	702b      	strb	r3, [r5, #0]
    10f4:	bdfe      	pop	{r1, r2, r3, r4, r5, r6, r7, pc}
    10f6:	0039      	movs	r1, r7
    10f8:	e7db      	b.n	10b2 <sd_mmc_spi_start_write_blocks+0xa>
    10fa:	46c0      	nop			; (mov r8, r8)
    10fc:	20000101 	.word	0x20000101
    1100:	00000ad9 	.word	0x00000ad9
    1104:	200000fc 	.word	0x200000fc
    1108:	200000c0 	.word	0x200000c0
    110c:	00001c21 	.word	0x00001c21
    1110:	20000108 	.word	0x20000108
    1114:	00000bc5 	.word	0x00000bc5
    1118:	00000b15 	.word	0x00000b15

0000111c <sd_mmc_spi_wait_end_of_write_blocks>:
    111c:	b510      	push	{r4, lr}
    111e:	4b05      	ldr	r3, [pc, #20]	; (1134 <sd_mmc_spi_wait_end_of_write_blocks+0x18>)
    1120:	4798      	blx	r3
    1122:	2800      	cmp	r0, #0
    1124:	d103      	bne.n	112e <sd_mmc_spi_wait_end_of_write_blocks+0x12>
    1126:	2205      	movs	r2, #5
    1128:	4b03      	ldr	r3, [pc, #12]	; (1138 <sd_mmc_spi_wait_end_of_write_blocks+0x1c>)
    112a:	701a      	strb	r2, [r3, #0]
    112c:	bd10      	pop	{r4, pc}
    112e:	4b03      	ldr	r3, [pc, #12]	; (113c <sd_mmc_spi_wait_end_of_write_blocks+0x20>)
    1130:	4798      	blx	r3
    1132:	e7fb      	b.n	112c <sd_mmc_spi_wait_end_of_write_blocks+0x10>
    1134:	00000b15 	.word	0x00000b15
    1138:	20000101 	.word	0x20000101
    113c:	00000c29 	.word	0x00000c29

00001140 <delay_init>:
    1140:	4770      	bx	lr
	...

00001144 <mem_test_unit_ready>:
    1144:	0003      	movs	r3, r0
    1146:	b510      	push	{r4, lr}
    1148:	2001      	movs	r0, #1
    114a:	2b00      	cmp	r3, #0
    114c:	d101      	bne.n	1152 <mem_test_unit_ready+0xe>
    114e:	4b01      	ldr	r3, [pc, #4]	; (1154 <mem_test_unit_ready+0x10>)
    1150:	4798      	blx	r3
    1152:	bd10      	pop	{r4, pc}
    1154:	000009e1 	.word	0x000009e1

00001158 <mem_read_capacity>:
    1158:	b510      	push	{r4, lr}
    115a:	2301      	movs	r3, #1
    115c:	2800      	cmp	r0, #0
    115e:	d103      	bne.n	1168 <mem_read_capacity+0x10>
    1160:	4b02      	ldr	r3, [pc, #8]	; (116c <mem_read_capacity+0x14>)
    1162:	0008      	movs	r0, r1
    1164:	4798      	blx	r3
    1166:	0003      	movs	r3, r0
    1168:	0018      	movs	r0, r3
    116a:	bd10      	pop	{r4, pc}
    116c:	00000a11 	.word	0x00000a11

00001170 <mem_sector_size>:
    1170:	4243      	negs	r3, r0
    1172:	4158      	adcs	r0, r3
    1174:	b2c0      	uxtb	r0, r0
    1176:	4770      	bx	lr

00001178 <mem_wr_protect>:
    1178:	0003      	movs	r3, r0
    117a:	b510      	push	{r4, lr}
    117c:	2001      	movs	r0, #1
    117e:	2b00      	cmp	r3, #0
    1180:	d101      	bne.n	1186 <mem_wr_protect+0xe>
    1182:	4b01      	ldr	r3, [pc, #4]	; (1188 <mem_wr_protect+0x10>)
    1184:	4798      	blx	r3
    1186:	bd10      	pop	{r4, pc}
    1188:	00000a21 	.word	0x00000a21

0000118c <memory_2_ram>:
    118c:	b510      	push	{r4, lr}
    118e:	2301      	movs	r3, #1
    1190:	0004      	movs	r4, r0
    1192:	0008      	movs	r0, r1
    1194:	2c00      	cmp	r4, #0
    1196:	d103      	bne.n	11a0 <memory_2_ram+0x14>
    1198:	4b02      	ldr	r3, [pc, #8]	; (11a4 <memory_2_ram+0x18>)
    119a:	0011      	movs	r1, r2
    119c:	4798      	blx	r3
    119e:	0003      	movs	r3, r0
    11a0:	0018      	movs	r0, r3
    11a2:	bd10      	pop	{r4, pc}
    11a4:	00000a71 	.word	0x00000a71

000011a8 <ram_2_memory>:
    11a8:	b510      	push	{r4, lr}
    11aa:	2301      	movs	r3, #1
    11ac:	0004      	movs	r4, r0
    11ae:	0008      	movs	r0, r1
    11b0:	2c00      	cmp	r4, #0
    11b2:	d103      	bne.n	11bc <ram_2_memory+0x14>
    11b4:	4b02      	ldr	r3, [pc, #8]	; (11c0 <ram_2_memory+0x18>)
    11b6:	0011      	movs	r1, r2
    11b8:	4798      	blx	r3
    11ba:	0003      	movs	r3, r0
    11bc:	0018      	movs	r0, r3
    11be:	bd10      	pop	{r4, pc}
    11c0:	00000ac5 	.word	0x00000ac5

000011c4 <cpu_irq_enter_critical>:
    11c4:	4b09      	ldr	r3, [pc, #36]	; (11ec <cpu_irq_enter_critical+0x28>)
    11c6:	6819      	ldr	r1, [r3, #0]
    11c8:	2900      	cmp	r1, #0
    11ca:	d10b      	bne.n	11e4 <cpu_irq_enter_critical+0x20>
    11cc:	f3ef 8010 	mrs	r0, PRIMASK
    11d0:	4a07      	ldr	r2, [pc, #28]	; (11f0 <cpu_irq_enter_critical+0x2c>)
    11d2:	2800      	cmp	r0, #0
    11d4:	d105      	bne.n	11e2 <cpu_irq_enter_critical+0x1e>
    11d6:	b672      	cpsid	i
    11d8:	f3bf 8f5f 	dmb	sy
    11dc:	4905      	ldr	r1, [pc, #20]	; (11f4 <cpu_irq_enter_critical+0x30>)
    11de:	7008      	strb	r0, [r1, #0]
    11e0:	2101      	movs	r1, #1
    11e2:	7011      	strb	r1, [r2, #0]
    11e4:	681a      	ldr	r2, [r3, #0]
    11e6:	3201      	adds	r2, #1
    11e8:	601a      	str	r2, [r3, #0]
    11ea:	4770      	bx	lr
    11ec:	20000110 	.word	0x20000110
    11f0:	20000114 	.word	0x20000114
    11f4:	20000031 	.word	0x20000031

000011f8 <cpu_irq_leave_critical>:
    11f8:	4b08      	ldr	r3, [pc, #32]	; (121c <cpu_irq_leave_critical+0x24>)
    11fa:	681a      	ldr	r2, [r3, #0]
    11fc:	3a01      	subs	r2, #1
    11fe:	601a      	str	r2, [r3, #0]
    1200:	681b      	ldr	r3, [r3, #0]
    1202:	2b00      	cmp	r3, #0
    1204:	d109      	bne.n	121a <cpu_irq_leave_critical+0x22>
    1206:	4b06      	ldr	r3, [pc, #24]	; (1220 <cpu_irq_leave_critical+0x28>)
    1208:	781b      	ldrb	r3, [r3, #0]
    120a:	2b00      	cmp	r3, #0
    120c:	d005      	beq.n	121a <cpu_irq_leave_critical+0x22>
    120e:	2201      	movs	r2, #1
    1210:	4b04      	ldr	r3, [pc, #16]	; (1224 <cpu_irq_leave_critical+0x2c>)
    1212:	701a      	strb	r2, [r3, #0]
    1214:	f3bf 8f5f 	dmb	sy
    1218:	b662      	cpsie	i
    121a:	4770      	bx	lr
    121c:	20000110 	.word	0x20000110
    1220:	20000114 	.word	0x20000114
    1224:	20000031 	.word	0x20000031

00001228 <system_board_init>:
    1228:	b5f7      	push	{r0, r1, r2, r4, r5, r6, r7, lr}
    122a:	2501      	movs	r5, #1
    122c:	2700      	movs	r7, #0
    122e:	ac01      	add	r4, sp, #4
    1230:	4e08      	ldr	r6, [pc, #32]	; (1254 <system_board_init+0x2c>)
    1232:	0021      	movs	r1, r4
    1234:	2013      	movs	r0, #19
    1236:	7065      	strb	r5, [r4, #1]
    1238:	70a7      	strb	r7, [r4, #2]
    123a:	7025      	strb	r5, [r4, #0]
    123c:	47b0      	blx	r6
    123e:	2280      	movs	r2, #128	; 0x80
    1240:	4b05      	ldr	r3, [pc, #20]	; (1258 <system_board_init+0x30>)
    1242:	0312      	lsls	r2, r2, #12
    1244:	619a      	str	r2, [r3, #24]
    1246:	0021      	movs	r1, r4
    1248:	201c      	movs	r0, #28
    124a:	7027      	strb	r7, [r4, #0]
    124c:	7065      	strb	r5, [r4, #1]
    124e:	47b0      	blx	r6
    1250:	bdf7      	pop	{r0, r1, r2, r4, r5, r6, r7, pc}
    1252:	46c0      	nop			; (mov r8, r8)
    1254:	0000125d 	.word	0x0000125d
    1258:	41004400 	.word	0x41004400

0000125c <port_pin_set_config>:
    125c:	b507      	push	{r0, r1, r2, lr}
    125e:	2280      	movs	r2, #128	; 0x80
    1260:	ab01      	add	r3, sp, #4
    1262:	701a      	strb	r2, [r3, #0]
    1264:	780a      	ldrb	r2, [r1, #0]
    1266:	705a      	strb	r2, [r3, #1]
    1268:	784a      	ldrb	r2, [r1, #1]
    126a:	709a      	strb	r2, [r3, #2]
    126c:	788a      	ldrb	r2, [r1, #2]
    126e:	0019      	movs	r1, r3
    1270:	70da      	strb	r2, [r3, #3]
    1272:	4b01      	ldr	r3, [pc, #4]	; (1278 <port_pin_set_config+0x1c>)
    1274:	4798      	blx	r3
    1276:	bd07      	pop	{r0, r1, r2, pc}
    1278:	000029dd 	.word	0x000029dd

0000127c <rtc_calendar_enable>:
    127c:	6803      	ldr	r3, [r0, #0]
    127e:	7a9a      	ldrb	r2, [r3, #10]
    1280:	b252      	sxtb	r2, r2
    1282:	2a00      	cmp	r2, #0
    1284:	dbfb      	blt.n	127e <rtc_calendar_enable+0x2>
    1286:	2202      	movs	r2, #2
    1288:	8819      	ldrh	r1, [r3, #0]
    128a:	430a      	orrs	r2, r1
    128c:	801a      	strh	r2, [r3, #0]
    128e:	4770      	bx	lr

00001290 <rtc_calendar_disable>:
    1290:	6803      	ldr	r3, [r0, #0]
    1292:	7a9a      	ldrb	r2, [r3, #10]
    1294:	b252      	sxtb	r2, r2
    1296:	2a00      	cmp	r2, #0
    1298:	dbfb      	blt.n	1292 <rtc_calendar_disable+0x2>
    129a:	22c1      	movs	r2, #193	; 0xc1
    129c:	2102      	movs	r1, #2
    129e:	719a      	strb	r2, [r3, #6]
    12a0:	721a      	strb	r2, [r3, #8]
    12a2:	881a      	ldrh	r2, [r3, #0]
    12a4:	438a      	bics	r2, r1
    12a6:	801a      	strh	r2, [r3, #0]
    12a8:	4770      	bx	lr
	...

000012ac <rtc_calendar_reset>:
    12ac:	b570      	push	{r4, r5, r6, lr}
    12ae:	0005      	movs	r5, r0
    12b0:	4b06      	ldr	r3, [pc, #24]	; (12cc <rtc_calendar_reset+0x20>)
    12b2:	6804      	ldr	r4, [r0, #0]
    12b4:	4798      	blx	r3
    12b6:	682a      	ldr	r2, [r5, #0]
    12b8:	7a93      	ldrb	r3, [r2, #10]
    12ba:	b25b      	sxtb	r3, r3
    12bc:	2b00      	cmp	r3, #0
    12be:	dbfb      	blt.n	12b8 <rtc_calendar_reset+0xc>
    12c0:	2301      	movs	r3, #1
    12c2:	8822      	ldrh	r2, [r4, #0]
    12c4:	4313      	orrs	r3, r2
    12c6:	8023      	strh	r3, [r4, #0]
    12c8:	bd70      	pop	{r4, r5, r6, pc}
    12ca:	46c0      	nop			; (mov r8, r8)
    12cc:	00001291 	.word	0x00001291

000012d0 <rtc_calendar_time_to_register_value>:
    12d0:	b510      	push	{r4, lr}
    12d2:	88cb      	ldrh	r3, [r1, #6]
    12d4:	88c2      	ldrh	r2, [r0, #6]
    12d6:	790c      	ldrb	r4, [r1, #4]
    12d8:	1a9a      	subs	r2, r3, r2
    12da:	794b      	ldrb	r3, [r1, #5]
    12dc:	0464      	lsls	r4, r4, #17
    12de:	059b      	lsls	r3, r3, #22
    12e0:	4323      	orrs	r3, r4
    12e2:	788c      	ldrb	r4, [r1, #2]
    12e4:	0692      	lsls	r2, r2, #26
    12e6:	0324      	lsls	r4, r4, #12
    12e8:	4323      	orrs	r3, r4
    12ea:	4313      	orrs	r3, r2
    12ec:	7902      	ldrb	r2, [r0, #4]
    12ee:	2a00      	cmp	r2, #0
    12f0:	d105      	bne.n	12fe <rtc_calendar_time_to_register_value+0x2e>
    12f2:	78ca      	ldrb	r2, [r1, #3]
    12f4:	2a00      	cmp	r2, #0
    12f6:	d002      	beq.n	12fe <rtc_calendar_time_to_register_value+0x2e>
    12f8:	2280      	movs	r2, #128	; 0x80
    12fa:	0252      	lsls	r2, r2, #9
    12fc:	4313      	orrs	r3, r2
    12fe:	7848      	ldrb	r0, [r1, #1]
    1300:	780a      	ldrb	r2, [r1, #0]
    1302:	0180      	lsls	r0, r0, #6
    1304:	4310      	orrs	r0, r2
    1306:	4318      	orrs	r0, r3
    1308:	bd10      	pop	{r4, pc}

0000130a <rtc_calendar_register_value_to_time>:
    130a:	b570      	push	{r4, r5, r6, lr}
    130c:	250f      	movs	r5, #15
    130e:	261f      	movs	r6, #31
    1310:	88c4      	ldrh	r4, [r0, #6]
    1312:	0e8b      	lsrs	r3, r1, #26
    1314:	191b      	adds	r3, r3, r4
    1316:	0d8c      	lsrs	r4, r1, #22
    1318:	402c      	ands	r4, r5
    131a:	7154      	strb	r4, [r2, #5]
    131c:	0c4c      	lsrs	r4, r1, #17
    131e:	4034      	ands	r4, r6
    1320:	80d3      	strh	r3, [r2, #6]
    1322:	7114      	strb	r4, [r2, #4]
    1324:	7900      	ldrb	r0, [r0, #4]
    1326:	0b0b      	lsrs	r3, r1, #12
    1328:	2800      	cmp	r0, #0
    132a:	d008      	beq.n	133e <rtc_calendar_register_value_to_time+0x34>
    132c:	4033      	ands	r3, r6
    132e:	7093      	strb	r3, [r2, #2]
    1330:	203f      	movs	r0, #63	; 0x3f
    1332:	098b      	lsrs	r3, r1, #6
    1334:	4003      	ands	r3, r0
    1336:	4001      	ands	r1, r0
    1338:	7053      	strb	r3, [r2, #1]
    133a:	7011      	strb	r1, [r2, #0]
    133c:	bd70      	pop	{r4, r5, r6, pc}
    133e:	402b      	ands	r3, r5
    1340:	7093      	strb	r3, [r2, #2]
    1342:	03cb      	lsls	r3, r1, #15
    1344:	0fdb      	lsrs	r3, r3, #31
    1346:	70d3      	strb	r3, [r2, #3]
    1348:	e7f2      	b.n	1330 <rtc_calendar_register_value_to_time+0x26>
	...

0000134c <rtc_calendar_get_time>:
    134c:	000a      	movs	r2, r1
    134e:	7941      	ldrb	r1, [r0, #5]
    1350:	b510      	push	{r4, lr}
    1352:	6803      	ldr	r3, [r0, #0]
    1354:	2900      	cmp	r1, #0
    1356:	d10a      	bne.n	136e <rtc_calendar_get_time+0x22>
    1358:	490c      	ldr	r1, [pc, #48]	; (138c <rtc_calendar_get_time+0x40>)
    135a:	8059      	strh	r1, [r3, #2]
    135c:	6801      	ldr	r1, [r0, #0]
    135e:	7a8c      	ldrb	r4, [r1, #10]
    1360:	b264      	sxtb	r4, r4
    1362:	2c00      	cmp	r4, #0
    1364:	dbfb      	blt.n	135e <rtc_calendar_get_time+0x12>
    1366:	6919      	ldr	r1, [r3, #16]
    1368:	4b09      	ldr	r3, [pc, #36]	; (1390 <rtc_calendar_get_time+0x44>)
    136a:	4798      	blx	r3
    136c:	bd10      	pop	{r4, pc}
    136e:	8859      	ldrh	r1, [r3, #2]
    1370:	0449      	lsls	r1, r1, #17
    1372:	d4f8      	bmi.n	1366 <rtc_calendar_get_time+0x1a>
    1374:	21c0      	movs	r1, #192	; 0xc0
    1376:	885c      	ldrh	r4, [r3, #2]
    1378:	0209      	lsls	r1, r1, #8
    137a:	430c      	orrs	r4, r1
    137c:	805c      	strh	r4, [r3, #2]
    137e:	6801      	ldr	r1, [r0, #0]
    1380:	7a8c      	ldrb	r4, [r1, #10]
    1382:	b264      	sxtb	r4, r4
    1384:	2c00      	cmp	r4, #0
    1386:	daee      	bge.n	1366 <rtc_calendar_get_time+0x1a>
    1388:	e7fa      	b.n	1380 <rtc_calendar_get_time+0x34>
    138a:	46c0      	nop			; (mov r8, r8)
    138c:	ffff8000 	.word	0xffff8000
    1390:	0000130b 	.word	0x0000130b

00001394 <rtc_calendar_set_alarm>:
    1394:	b570      	push	{r4, r5, r6, lr}
    1396:	2317      	movs	r3, #23
    1398:	000e      	movs	r6, r1
    139a:	0015      	movs	r5, r2
    139c:	2a01      	cmp	r2, #1
    139e:	d80c      	bhi.n	13ba <rtc_calendar_set_alarm+0x26>
    13a0:	4b07      	ldr	r3, [pc, #28]	; (13c0 <rtc_calendar_set_alarm+0x2c>)
    13a2:	6804      	ldr	r4, [r0, #0]
    13a4:	4798      	blx	r3
    13a6:	7aa3      	ldrb	r3, [r4, #10]
    13a8:	b25b      	sxtb	r3, r3
    13aa:	2b00      	cmp	r3, #0
    13ac:	dbfb      	blt.n	13a6 <rtc_calendar_set_alarm+0x12>
    13ae:	00ed      	lsls	r5, r5, #3
    13b0:	1964      	adds	r4, r4, r5
    13b2:	61a0      	str	r0, [r4, #24]
    13b4:	7a33      	ldrb	r3, [r6, #8]
    13b6:	7723      	strb	r3, [r4, #28]
    13b8:	2300      	movs	r3, #0
    13ba:	0018      	movs	r0, r3
    13bc:	bd70      	pop	{r4, r5, r6, pc}
    13be:	46c0      	nop			; (mov r8, r8)
    13c0:	000012d1 	.word	0x000012d1

000013c4 <rtc_calendar_init>:
    13c4:	2320      	movs	r3, #32
    13c6:	b537      	push	{r0, r1, r2, r4, r5, lr}
    13c8:	0014      	movs	r4, r2
    13ca:	4a1c      	ldr	r2, [pc, #112]	; (143c <rtc_calendar_init+0x78>)
    13cc:	6001      	str	r1, [r0, #0]
    13ce:	6991      	ldr	r1, [r2, #24]
    13d0:	0005      	movs	r5, r0
    13d2:	430b      	orrs	r3, r1
    13d4:	6193      	str	r3, [r2, #24]
    13d6:	2302      	movs	r3, #2
    13d8:	a901      	add	r1, sp, #4
    13da:	700b      	strb	r3, [r1, #0]
    13dc:	2004      	movs	r0, #4
    13de:	4b18      	ldr	r3, [pc, #96]	; (1440 <rtc_calendar_init+0x7c>)
    13e0:	4798      	blx	r3
    13e2:	2004      	movs	r0, #4
    13e4:	4b17      	ldr	r3, [pc, #92]	; (1444 <rtc_calendar_init+0x80>)
    13e6:	4798      	blx	r3
    13e8:	4b17      	ldr	r3, [pc, #92]	; (1448 <rtc_calendar_init+0x84>)
    13ea:	0028      	movs	r0, r5
    13ec:	4798      	blx	r3
    13ee:	7923      	ldrb	r3, [r4, #4]
    13f0:	712b      	strb	r3, [r5, #4]
    13f2:	78e3      	ldrb	r3, [r4, #3]
    13f4:	716b      	strb	r3, [r5, #5]
    13f6:	88e3      	ldrh	r3, [r4, #6]
    13f8:	80eb      	strh	r3, [r5, #6]
    13fa:	4b14      	ldr	r3, [pc, #80]	; (144c <rtc_calendar_init+0x88>)
    13fc:	601d      	str	r5, [r3, #0]
    13fe:	7921      	ldrb	r1, [r4, #4]
    1400:	682a      	ldr	r2, [r5, #0]
    1402:	8823      	ldrh	r3, [r4, #0]
    1404:	2900      	cmp	r1, #0
    1406:	d016      	beq.n	1436 <rtc_calendar_init+0x72>
    1408:	2108      	movs	r1, #8
    140a:	430b      	orrs	r3, r1
    140c:	78a1      	ldrb	r1, [r4, #2]
    140e:	2900      	cmp	r1, #0
    1410:	d001      	beq.n	1416 <rtc_calendar_init+0x52>
    1412:	2180      	movs	r1, #128	; 0x80
    1414:	430b      	orrs	r3, r1
    1416:	8013      	strh	r3, [r2, #0]
    1418:	78e3      	ldrb	r3, [r4, #3]
    141a:	2b00      	cmp	r3, #0
    141c:	d004      	beq.n	1428 <rtc_calendar_init+0x64>
    141e:	2380      	movs	r3, #128	; 0x80
    1420:	8851      	ldrh	r1, [r2, #2]
    1422:	01db      	lsls	r3, r3, #7
    1424:	430b      	orrs	r3, r1
    1426:	8053      	strh	r3, [r2, #2]
    1428:	0021      	movs	r1, r4
    142a:	0028      	movs	r0, r5
    142c:	3108      	adds	r1, #8
    142e:	2200      	movs	r2, #0
    1430:	4b07      	ldr	r3, [pc, #28]	; (1450 <rtc_calendar_init+0x8c>)
    1432:	4798      	blx	r3
    1434:	bd37      	pop	{r0, r1, r2, r4, r5, pc}
    1436:	2148      	movs	r1, #72	; 0x48
    1438:	e7e7      	b.n	140a <rtc_calendar_init+0x46>
    143a:	46c0      	nop			; (mov r8, r8)
    143c:	40000400 	.word	0x40000400
    1440:	00002909 	.word	0x00002909
    1444:	00002881 	.word	0x00002881
    1448:	000012ad 	.word	0x000012ad
    144c:	20000178 	.word	0x20000178
    1450:	00001395 	.word	0x00001395

00001454 <long_division>:
    1454:	b5f0      	push	{r4, r5, r6, r7, lr}
    1456:	2400      	movs	r4, #0
    1458:	b089      	sub	sp, #36	; 0x24
    145a:	9200      	str	r2, [sp, #0]
    145c:	9301      	str	r3, [sp, #4]
    145e:	233f      	movs	r3, #63	; 0x3f
    1460:	2600      	movs	r6, #0
    1462:	2700      	movs	r7, #0
    1464:	0025      	movs	r5, r4
    1466:	9006      	str	r0, [sp, #24]
    1468:	9107      	str	r1, [sp, #28]
    146a:	9303      	str	r3, [sp, #12]
    146c:	9a03      	ldr	r2, [sp, #12]
    146e:	4b13      	ldr	r3, [pc, #76]	; (14bc <long_division+0x68>)
    1470:	2001      	movs	r0, #1
    1472:	2100      	movs	r1, #0
    1474:	4798      	blx	r3
    1476:	19b6      	adds	r6, r6, r6
    1478:	417f      	adcs	r7, r7
    147a:	9b06      	ldr	r3, [sp, #24]
    147c:	9a07      	ldr	r2, [sp, #28]
    147e:	4003      	ands	r3, r0
    1480:	400a      	ands	r2, r1
    1482:	9604      	str	r6, [sp, #16]
    1484:	9705      	str	r7, [sp, #20]
    1486:	4313      	orrs	r3, r2
    1488:	d003      	beq.n	1492 <long_division+0x3e>
    148a:	2301      	movs	r3, #1
    148c:	4333      	orrs	r3, r6
    148e:	001e      	movs	r6, r3
    1490:	9f05      	ldr	r7, [sp, #20]
    1492:	9b01      	ldr	r3, [sp, #4]
    1494:	42bb      	cmp	r3, r7
    1496:	d809      	bhi.n	14ac <long_division+0x58>
    1498:	d102      	bne.n	14a0 <long_division+0x4c>
    149a:	9b00      	ldr	r3, [sp, #0]
    149c:	42b3      	cmp	r3, r6
    149e:	d805      	bhi.n	14ac <long_division+0x58>
    14a0:	9a00      	ldr	r2, [sp, #0]
    14a2:	9b01      	ldr	r3, [sp, #4]
    14a4:	1ab6      	subs	r6, r6, r2
    14a6:	419f      	sbcs	r7, r3
    14a8:	4304      	orrs	r4, r0
    14aa:	430d      	orrs	r5, r1
    14ac:	9b03      	ldr	r3, [sp, #12]
    14ae:	1e5a      	subs	r2, r3, #1
    14b0:	9203      	str	r2, [sp, #12]
    14b2:	d2db      	bcs.n	146c <long_division+0x18>
    14b4:	0020      	movs	r0, r4
    14b6:	0029      	movs	r1, r5
    14b8:	b009      	add	sp, #36	; 0x24
    14ba:	bdf0      	pop	{r4, r5, r6, r7, pc}
    14bc:	0000479d 	.word	0x0000479d

000014c0 <_sercom_get_sync_baud_val>:
    14c0:	b510      	push	{r4, lr}
    14c2:	0849      	lsrs	r1, r1, #1
    14c4:	0004      	movs	r4, r0
    14c6:	2300      	movs	r3, #0
    14c8:	2040      	movs	r0, #64	; 0x40
    14ca:	42a1      	cmp	r1, r4
    14cc:	d201      	bcs.n	14d2 <_sercom_get_sync_baud_val+0x12>
    14ce:	bd10      	pop	{r4, pc}
    14d0:	0003      	movs	r3, r0
    14d2:	1c58      	adds	r0, r3, #1
    14d4:	1b09      	subs	r1, r1, r4
    14d6:	b280      	uxth	r0, r0
    14d8:	428c      	cmp	r4, r1
    14da:	d9f9      	bls.n	14d0 <_sercom_get_sync_baud_val+0x10>
    14dc:	2040      	movs	r0, #64	; 0x40
    14de:	2bff      	cmp	r3, #255	; 0xff
    14e0:	d8f5      	bhi.n	14ce <_sercom_get_sync_baud_val+0xe>
    14e2:	8013      	strh	r3, [r2, #0]
    14e4:	2000      	movs	r0, #0
    14e6:	e7f2      	b.n	14ce <_sercom_get_sync_baud_val+0xe>

000014e8 <_sercom_get_async_baud_val>:
    14e8:	b5f0      	push	{r4, r5, r6, r7, lr}
    14ea:	b085      	sub	sp, #20
    14ec:	001e      	movs	r6, r3
    14ee:	ab0a      	add	r3, sp, #40	; 0x28
    14f0:	000d      	movs	r5, r1
    14f2:	7819      	ldrb	r1, [r3, #0]
    14f4:	0003      	movs	r3, r0
    14f6:	434b      	muls	r3, r1
    14f8:	9203      	str	r2, [sp, #12]
    14fa:	2740      	movs	r7, #64	; 0x40
    14fc:	42ab      	cmp	r3, r5
    14fe:	d817      	bhi.n	1530 <_sercom_get_async_baud_val+0x48>
    1500:	2e00      	cmp	r6, #0
    1502:	d118      	bne.n	1536 <_sercom_get_async_baud_val+0x4e>
    1504:	0002      	movs	r2, r0
    1506:	0033      	movs	r3, r6
    1508:	0008      	movs	r0, r1
    150a:	4c1b      	ldr	r4, [pc, #108]	; (1578 <_sercom_get_async_baud_val+0x90>)
    150c:	0031      	movs	r1, r6
    150e:	47a0      	blx	r4
    1510:	002a      	movs	r2, r5
    1512:	0001      	movs	r1, r0
    1514:	0033      	movs	r3, r6
    1516:	4c19      	ldr	r4, [pc, #100]	; (157c <_sercom_get_async_baud_val+0x94>)
    1518:	0030      	movs	r0, r6
    151a:	47a0      	blx	r4
    151c:	2200      	movs	r2, #0
    151e:	2301      	movs	r3, #1
    1520:	1a12      	subs	r2, r2, r0
    1522:	418b      	sbcs	r3, r1
    1524:	0c14      	lsrs	r4, r2, #16
    1526:	0418      	lsls	r0, r3, #16
    1528:	4304      	orrs	r4, r0
    152a:	2700      	movs	r7, #0
    152c:	9b03      	ldr	r3, [sp, #12]
    152e:	801c      	strh	r4, [r3, #0]
    1530:	0038      	movs	r0, r7
    1532:	b005      	add	sp, #20
    1534:	bdf0      	pop	{r4, r5, r6, r7, pc}
    1536:	2400      	movs	r4, #0
    1538:	2e01      	cmp	r6, #1
    153a:	d1f6      	bne.n	152a <_sercom_get_async_baud_val+0x42>
    153c:	000a      	movs	r2, r1
    153e:	0023      	movs	r3, r4
    1540:	0021      	movs	r1, r4
    1542:	4e0d      	ldr	r6, [pc, #52]	; (1578 <_sercom_get_async_baud_val+0x90>)
    1544:	47b0      	blx	r6
    1546:	9000      	str	r0, [sp, #0]
    1548:	9101      	str	r1, [sp, #4]
    154a:	000b      	movs	r3, r1
    154c:	0002      	movs	r2, r0
    154e:	0021      	movs	r1, r4
    1550:	0028      	movs	r0, r5
    1552:	4c0a      	ldr	r4, [pc, #40]	; (157c <_sercom_get_async_baud_val+0x94>)
    1554:	47a0      	blx	r4
    1556:	2380      	movs	r3, #128	; 0x80
    1558:	0006      	movs	r6, r0
    155a:	019b      	lsls	r3, r3, #6
    155c:	4298      	cmp	r0, r3
    155e:	d8e7      	bhi.n	1530 <_sercom_get_async_baud_val+0x48>
    1560:	9a00      	ldr	r2, [sp, #0]
    1562:	9b01      	ldr	r3, [sp, #4]
    1564:	0f69      	lsrs	r1, r5, #29
    1566:	00e8      	lsls	r0, r5, #3
    1568:	47a0      	blx	r4
    156a:	00f4      	lsls	r4, r6, #3
    156c:	1b04      	subs	r4, r0, r4
    156e:	b2e4      	uxtb	r4, r4
    1570:	0364      	lsls	r4, r4, #13
    1572:	4334      	orrs	r4, r6
    1574:	e7d9      	b.n	152a <_sercom_get_async_baud_val+0x42>
    1576:	46c0      	nop			; (mov r8, r8)
    1578:	000047f5 	.word	0x000047f5
    157c:	00001455 	.word	0x00001455

00001580 <sercom_set_gclk_generator>:
    1580:	b537      	push	{r0, r1, r2, r4, r5, lr}
    1582:	4c0d      	ldr	r4, [pc, #52]	; (15b8 <sercom_set_gclk_generator+0x38>)
    1584:	0005      	movs	r5, r0
    1586:	7823      	ldrb	r3, [r4, #0]
    1588:	2b00      	cmp	r3, #0
    158a:	d001      	beq.n	1590 <sercom_set_gclk_generator+0x10>
    158c:	2900      	cmp	r1, #0
    158e:	d00c      	beq.n	15aa <sercom_set_gclk_generator+0x2a>
    1590:	a901      	add	r1, sp, #4
    1592:	2013      	movs	r0, #19
    1594:	4b09      	ldr	r3, [pc, #36]	; (15bc <sercom_set_gclk_generator+0x3c>)
    1596:	700d      	strb	r5, [r1, #0]
    1598:	4798      	blx	r3
    159a:	2013      	movs	r0, #19
    159c:	4b08      	ldr	r3, [pc, #32]	; (15c0 <sercom_set_gclk_generator+0x40>)
    159e:	4798      	blx	r3
    15a0:	2301      	movs	r3, #1
    15a2:	2000      	movs	r0, #0
    15a4:	7065      	strb	r5, [r4, #1]
    15a6:	7023      	strb	r3, [r4, #0]
    15a8:	bd3e      	pop	{r1, r2, r3, r4, r5, pc}
    15aa:	7863      	ldrb	r3, [r4, #1]
    15ac:	0008      	movs	r0, r1
    15ae:	42ab      	cmp	r3, r5
    15b0:	d0fa      	beq.n	15a8 <sercom_set_gclk_generator+0x28>
    15b2:	201d      	movs	r0, #29
    15b4:	e7f8      	b.n	15a8 <sercom_set_gclk_generator+0x28>
    15b6:	46c0      	nop			; (mov r8, r8)
    15b8:	20000115 	.word	0x20000115
    15bc:	00002909 	.word	0x00002909
    15c0:	00002881 	.word	0x00002881

000015c4 <_sercom_get_default_pad>:
    15c4:	4a39      	ldr	r2, [pc, #228]	; (16ac <_sercom_get_default_pad+0xe8>)
    15c6:	0003      	movs	r3, r0
    15c8:	b500      	push	{lr}
    15ca:	0008      	movs	r0, r1
    15cc:	4293      	cmp	r3, r2
    15ce:	d033      	beq.n	1638 <_sercom_get_default_pad+0x74>
    15d0:	d807      	bhi.n	15e2 <_sercom_get_default_pad+0x1e>
    15d2:	4a37      	ldr	r2, [pc, #220]	; (16b0 <_sercom_get_default_pad+0xec>)
    15d4:	4293      	cmp	r3, r2
    15d6:	d014      	beq.n	1602 <_sercom_get_default_pad+0x3e>
    15d8:	4a36      	ldr	r2, [pc, #216]	; (16b4 <_sercom_get_default_pad+0xf0>)
    15da:	4293      	cmp	r3, r2
    15dc:	d01f      	beq.n	161e <_sercom_get_default_pad+0x5a>
    15de:	2300      	movs	r3, #0
    15e0:	e017      	b.n	1612 <_sercom_get_default_pad+0x4e>
    15e2:	4a35      	ldr	r2, [pc, #212]	; (16b8 <_sercom_get_default_pad+0xf4>)
    15e4:	4293      	cmp	r3, r2
    15e6:	d03a      	beq.n	165e <_sercom_get_default_pad+0x9a>
    15e8:	4a34      	ldr	r2, [pc, #208]	; (16bc <_sercom_get_default_pad+0xf8>)
    15ea:	4293      	cmp	r3, r2
    15ec:	d044      	beq.n	1678 <_sercom_get_default_pad+0xb4>
    15ee:	4a34      	ldr	r2, [pc, #208]	; (16c0 <_sercom_get_default_pad+0xfc>)
    15f0:	4293      	cmp	r3, r2
    15f2:	d1f4      	bne.n	15de <_sercom_get_default_pad+0x1a>
    15f4:	2300      	movs	r3, #0
    15f6:	2903      	cmp	r1, #3
    15f8:	d80b      	bhi.n	1612 <_sercom_get_default_pad+0x4e>
    15fa:	f002 ff4f 	bl	449c <__gnu_thumb1_case_uqi>
    15fe:	2a50      	.short	0x2a50
    1600:	2e2c      	.short	0x2e2c
    1602:	2300      	movs	r3, #0
    1604:	2903      	cmp	r1, #3
    1606:	d804      	bhi.n	1612 <_sercom_get_default_pad+0x4e>
    1608:	f002 ff48 	bl	449c <__gnu_thumb1_case_uqi>
    160c:	07050243 	.word	0x07050243
    1610:	4b2c      	ldr	r3, [pc, #176]	; (16c4 <_sercom_get_default_pad+0x100>)
    1612:	0018      	movs	r0, r3
    1614:	bd00      	pop	{pc}
    1616:	4b2c      	ldr	r3, [pc, #176]	; (16c8 <_sercom_get_default_pad+0x104>)
    1618:	e7fb      	b.n	1612 <_sercom_get_default_pad+0x4e>
    161a:	4b2c      	ldr	r3, [pc, #176]	; (16cc <_sercom_get_default_pad+0x108>)
    161c:	e7f9      	b.n	1612 <_sercom_get_default_pad+0x4e>
    161e:	2300      	movs	r3, #0
    1620:	2903      	cmp	r1, #3
    1622:	d8f6      	bhi.n	1612 <_sercom_get_default_pad+0x4e>
    1624:	f002 ff3a 	bl	449c <__gnu_thumb1_case_uqi>
    1628:	06040237 	.word	0x06040237
    162c:	4b28      	ldr	r3, [pc, #160]	; (16d0 <_sercom_get_default_pad+0x10c>)
    162e:	e7f0      	b.n	1612 <_sercom_get_default_pad+0x4e>
    1630:	4b28      	ldr	r3, [pc, #160]	; (16d4 <_sercom_get_default_pad+0x110>)
    1632:	e7ee      	b.n	1612 <_sercom_get_default_pad+0x4e>
    1634:	4b28      	ldr	r3, [pc, #160]	; (16d8 <_sercom_get_default_pad+0x114>)
    1636:	e7ec      	b.n	1612 <_sercom_get_default_pad+0x4e>
    1638:	2300      	movs	r3, #0
    163a:	2903      	cmp	r1, #3
    163c:	d8e9      	bhi.n	1612 <_sercom_get_default_pad+0x4e>
    163e:	f002 ff2d 	bl	449c <__gnu_thumb1_case_uqi>
    1642:	022c      	.short	0x022c
    1644:	0604      	.short	0x0604
    1646:	4b25      	ldr	r3, [pc, #148]	; (16dc <_sercom_get_default_pad+0x118>)
    1648:	e7e3      	b.n	1612 <_sercom_get_default_pad+0x4e>
    164a:	4b25      	ldr	r3, [pc, #148]	; (16e0 <_sercom_get_default_pad+0x11c>)
    164c:	e7e1      	b.n	1612 <_sercom_get_default_pad+0x4e>
    164e:	4b25      	ldr	r3, [pc, #148]	; (16e4 <_sercom_get_default_pad+0x120>)
    1650:	e7df      	b.n	1612 <_sercom_get_default_pad+0x4e>
    1652:	4b25      	ldr	r3, [pc, #148]	; (16e8 <_sercom_get_default_pad+0x124>)
    1654:	e7dd      	b.n	1612 <_sercom_get_default_pad+0x4e>
    1656:	4b25      	ldr	r3, [pc, #148]	; (16ec <_sercom_get_default_pad+0x128>)
    1658:	e7db      	b.n	1612 <_sercom_get_default_pad+0x4e>
    165a:	4b25      	ldr	r3, [pc, #148]	; (16f0 <_sercom_get_default_pad+0x12c>)
    165c:	e7d9      	b.n	1612 <_sercom_get_default_pad+0x4e>
    165e:	2300      	movs	r3, #0
    1660:	2903      	cmp	r1, #3
    1662:	d8d6      	bhi.n	1612 <_sercom_get_default_pad+0x4e>
    1664:	f002 ff1a 	bl	449c <__gnu_thumb1_case_uqi>
    1668:	0604021d 	.word	0x0604021d
    166c:	4b21      	ldr	r3, [pc, #132]	; (16f4 <_sercom_get_default_pad+0x130>)
    166e:	e7d0      	b.n	1612 <_sercom_get_default_pad+0x4e>
    1670:	4b21      	ldr	r3, [pc, #132]	; (16f8 <_sercom_get_default_pad+0x134>)
    1672:	e7ce      	b.n	1612 <_sercom_get_default_pad+0x4e>
    1674:	4b21      	ldr	r3, [pc, #132]	; (16fc <_sercom_get_default_pad+0x138>)
    1676:	e7cc      	b.n	1612 <_sercom_get_default_pad+0x4e>
    1678:	2300      	movs	r3, #0
    167a:	2903      	cmp	r1, #3
    167c:	d8c9      	bhi.n	1612 <_sercom_get_default_pad+0x4e>
    167e:	f002 ff0d 	bl	449c <__gnu_thumb1_case_uqi>
    1682:	0212      	.short	0x0212
    1684:	0604      	.short	0x0604
    1686:	4b1e      	ldr	r3, [pc, #120]	; (1700 <_sercom_get_default_pad+0x13c>)
    1688:	e7c3      	b.n	1612 <_sercom_get_default_pad+0x4e>
    168a:	4b1e      	ldr	r3, [pc, #120]	; (1704 <_sercom_get_default_pad+0x140>)
    168c:	e7c1      	b.n	1612 <_sercom_get_default_pad+0x4e>
    168e:	4b1e      	ldr	r3, [pc, #120]	; (1708 <_sercom_get_default_pad+0x144>)
    1690:	e7bf      	b.n	1612 <_sercom_get_default_pad+0x4e>
    1692:	4b1e      	ldr	r3, [pc, #120]	; (170c <_sercom_get_default_pad+0x148>)
    1694:	e7bd      	b.n	1612 <_sercom_get_default_pad+0x4e>
    1696:	2303      	movs	r3, #3
    1698:	e7bb      	b.n	1612 <_sercom_get_default_pad+0x4e>
    169a:	4b1d      	ldr	r3, [pc, #116]	; (1710 <_sercom_get_default_pad+0x14c>)
    169c:	e7b9      	b.n	1612 <_sercom_get_default_pad+0x4e>
    169e:	4b1d      	ldr	r3, [pc, #116]	; (1714 <_sercom_get_default_pad+0x150>)
    16a0:	e7b7      	b.n	1612 <_sercom_get_default_pad+0x4e>
    16a2:	4b1d      	ldr	r3, [pc, #116]	; (1718 <_sercom_get_default_pad+0x154>)
    16a4:	e7b5      	b.n	1612 <_sercom_get_default_pad+0x4e>
    16a6:	4b1d      	ldr	r3, [pc, #116]	; (171c <_sercom_get_default_pad+0x158>)
    16a8:	e7b3      	b.n	1612 <_sercom_get_default_pad+0x4e>
    16aa:	46c0      	nop			; (mov r8, r8)
    16ac:	42001000 	.word	0x42001000
    16b0:	42000800 	.word	0x42000800
    16b4:	42000c00 	.word	0x42000c00
    16b8:	42001800 	.word	0x42001800
    16bc:	42001c00 	.word	0x42001c00
    16c0:	42001400 	.word	0x42001400
    16c4:	00050003 	.word	0x00050003
    16c8:	00060003 	.word	0x00060003
    16cc:	00070003 	.word	0x00070003
    16d0:	00010003 	.word	0x00010003
    16d4:	001e0003 	.word	0x001e0003
    16d8:	001f0003 	.word	0x001f0003
    16dc:	000d0002 	.word	0x000d0002
    16e0:	000e0002 	.word	0x000e0002
    16e4:	000f0002 	.word	0x000f0002
    16e8:	00110003 	.word	0x00110003
    16ec:	00120003 	.word	0x00120003
    16f0:	00130003 	.word	0x00130003
    16f4:	003f0005 	.word	0x003f0005
    16f8:	003e0005 	.word	0x003e0005
    16fc:	00520005 	.word	0x00520005
    1700:	00170003 	.word	0x00170003
    1704:	00180003 	.word	0x00180003
    1708:	00190003 	.word	0x00190003
    170c:	00040003 	.word	0x00040003
    1710:	000c0002 	.word	0x000c0002
    1714:	00100003 	.word	0x00100003
    1718:	00530005 	.word	0x00530005
    171c:	00160003 	.word	0x00160003

00001720 <_sercom_get_sercom_inst_index>:
    1720:	b570      	push	{r4, r5, r6, lr}
    1722:	b086      	sub	sp, #24
    1724:	4669      	mov	r1, sp
    1726:	4b09      	ldr	r3, [pc, #36]	; (174c <_sercom_get_sercom_inst_index+0x2c>)
    1728:	466a      	mov	r2, sp
    172a:	cb70      	ldmia	r3!, {r4, r5, r6}
    172c:	c170      	stmia	r1!, {r4, r5, r6}
    172e:	cb70      	ldmia	r3!, {r4, r5, r6}
    1730:	c170      	stmia	r1!, {r4, r5, r6}
    1732:	2300      	movs	r3, #0
    1734:	0099      	lsls	r1, r3, #2
    1736:	5851      	ldr	r1, [r2, r1]
    1738:	4281      	cmp	r1, r0
    173a:	d102      	bne.n	1742 <_sercom_get_sercom_inst_index+0x22>
    173c:	b2d8      	uxtb	r0, r3
    173e:	b006      	add	sp, #24
    1740:	bd70      	pop	{r4, r5, r6, pc}
    1742:	3301      	adds	r3, #1
    1744:	2b06      	cmp	r3, #6
    1746:	d1f5      	bne.n	1734 <_sercom_get_sercom_inst_index+0x14>
    1748:	2000      	movs	r0, #0
    174a:	e7f8      	b.n	173e <_sercom_get_sercom_inst_index+0x1e>
    174c:	00005bdc 	.word	0x00005bdc

00001750 <_sercom_default_handler>:
    1750:	4770      	bx	lr
	...

00001754 <_sercom_set_handler>:
    1754:	b5f0      	push	{r4, r5, r6, r7, lr}
    1756:	4c09      	ldr	r4, [pc, #36]	; (177c <_sercom_set_handler+0x28>)
    1758:	4a09      	ldr	r2, [pc, #36]	; (1780 <_sercom_set_handler+0x2c>)
    175a:	7823      	ldrb	r3, [r4, #0]
    175c:	2b00      	cmp	r3, #0
    175e:	d109      	bne.n	1774 <_sercom_set_handler+0x20>
    1760:	001e      	movs	r6, r3
    1762:	4f08      	ldr	r7, [pc, #32]	; (1784 <_sercom_set_handler+0x30>)
    1764:	4d08      	ldr	r5, [pc, #32]	; (1788 <_sercom_set_handler+0x34>)
    1766:	50d7      	str	r7, [r2, r3]
    1768:	50ee      	str	r6, [r5, r3]
    176a:	3304      	adds	r3, #4
    176c:	2b18      	cmp	r3, #24
    176e:	d1fa      	bne.n	1766 <_sercom_set_handler+0x12>
    1770:	3b17      	subs	r3, #23
    1772:	7023      	strb	r3, [r4, #0]
    1774:	0080      	lsls	r0, r0, #2
    1776:	5011      	str	r1, [r2, r0]
    1778:	bdf0      	pop	{r4, r5, r6, r7, pc}
    177a:	46c0      	nop			; (mov r8, r8)
    177c:	20000117 	.word	0x20000117
    1780:	20000118 	.word	0x20000118
    1784:	00001751 	.word	0x00001751
    1788:	2000017c 	.word	0x2000017c

0000178c <_sercom_get_interrupt_vector>:
    178c:	b507      	push	{r0, r1, r2, lr}
    178e:	2309      	movs	r3, #9
    1790:	466a      	mov	r2, sp
    1792:	7013      	strb	r3, [r2, #0]
    1794:	3301      	adds	r3, #1
    1796:	7053      	strb	r3, [r2, #1]
    1798:	3301      	adds	r3, #1
    179a:	7093      	strb	r3, [r2, #2]
    179c:	3301      	adds	r3, #1
    179e:	70d3      	strb	r3, [r2, #3]
    17a0:	3301      	adds	r3, #1
    17a2:	7113      	strb	r3, [r2, #4]
    17a4:	3301      	adds	r3, #1
    17a6:	7153      	strb	r3, [r2, #5]
    17a8:	4b02      	ldr	r3, [pc, #8]	; (17b4 <_sercom_get_interrupt_vector+0x28>)
    17aa:	4798      	blx	r3
    17ac:	466b      	mov	r3, sp
    17ae:	5618      	ldrsb	r0, [r3, r0]
    17b0:	bd0e      	pop	{r1, r2, r3, pc}
    17b2:	46c0      	nop			; (mov r8, r8)
    17b4:	00001721 	.word	0x00001721

000017b8 <SERCOM0_Handler>:
    17b8:	b510      	push	{r4, lr}
    17ba:	4b02      	ldr	r3, [pc, #8]	; (17c4 <SERCOM0_Handler+0xc>)
    17bc:	2000      	movs	r0, #0
    17be:	681b      	ldr	r3, [r3, #0]
    17c0:	4798      	blx	r3
    17c2:	bd10      	pop	{r4, pc}
    17c4:	20000118 	.word	0x20000118

000017c8 <SERCOM1_Handler>:
    17c8:	b510      	push	{r4, lr}
    17ca:	4b02      	ldr	r3, [pc, #8]	; (17d4 <SERCOM1_Handler+0xc>)
    17cc:	2001      	movs	r0, #1
    17ce:	685b      	ldr	r3, [r3, #4]
    17d0:	4798      	blx	r3
    17d2:	bd10      	pop	{r4, pc}
    17d4:	20000118 	.word	0x20000118

000017d8 <SERCOM2_Handler>:
    17d8:	b510      	push	{r4, lr}
    17da:	4b02      	ldr	r3, [pc, #8]	; (17e4 <SERCOM2_Handler+0xc>)
    17dc:	2002      	movs	r0, #2
    17de:	689b      	ldr	r3, [r3, #8]
    17e0:	4798      	blx	r3
    17e2:	bd10      	pop	{r4, pc}
    17e4:	20000118 	.word	0x20000118

000017e8 <SERCOM3_Handler>:
    17e8:	b510      	push	{r4, lr}
    17ea:	4b02      	ldr	r3, [pc, #8]	; (17f4 <SERCOM3_Handler+0xc>)
    17ec:	2003      	movs	r0, #3
    17ee:	68db      	ldr	r3, [r3, #12]
    17f0:	4798      	blx	r3
    17f2:	bd10      	pop	{r4, pc}
    17f4:	20000118 	.word	0x20000118

000017f8 <SERCOM4_Handler>:
    17f8:	b510      	push	{r4, lr}
    17fa:	4b02      	ldr	r3, [pc, #8]	; (1804 <SERCOM4_Handler+0xc>)
    17fc:	2004      	movs	r0, #4
    17fe:	691b      	ldr	r3, [r3, #16]
    1800:	4798      	blx	r3
    1802:	bd10      	pop	{r4, pc}
    1804:	20000118 	.word	0x20000118

00001808 <SERCOM5_Handler>:
    1808:	b510      	push	{r4, lr}
    180a:	4b02      	ldr	r3, [pc, #8]	; (1814 <SERCOM5_Handler+0xc>)
    180c:	2005      	movs	r0, #5
    180e:	695b      	ldr	r3, [r3, #20]
    1810:	4798      	blx	r3
    1812:	bd10      	pop	{r4, pc}
    1814:	20000118 	.word	0x20000118

00001818 <port_pin_set_output_level>:
    1818:	2200      	movs	r2, #0
    181a:	b510      	push	{r4, lr}
    181c:	0943      	lsrs	r3, r0, #5
    181e:	09c4      	lsrs	r4, r0, #7
    1820:	4294      	cmp	r4, r2
    1822:	d102      	bne.n	182a <port_pin_set_output_level+0x12>
    1824:	01da      	lsls	r2, r3, #7
    1826:	4b06      	ldr	r3, [pc, #24]	; (1840 <port_pin_set_output_level+0x28>)
    1828:	18d2      	adds	r2, r2, r3
    182a:	231f      	movs	r3, #31
    182c:	4018      	ands	r0, r3
    182e:	3b1e      	subs	r3, #30
    1830:	4083      	lsls	r3, r0
    1832:	2900      	cmp	r1, #0
    1834:	d001      	beq.n	183a <port_pin_set_output_level+0x22>
    1836:	6193      	str	r3, [r2, #24]
    1838:	bd10      	pop	{r4, pc}
    183a:	6153      	str	r3, [r2, #20]
    183c:	e7fc      	b.n	1838 <port_pin_set_output_level+0x20>
    183e:	46c0      	nop			; (mov r8, r8)
    1840:	41004400 	.word	0x41004400

00001844 <spi_disable>:
    1844:	b570      	push	{r4, r5, r6, lr}
    1846:	6804      	ldr	r4, [r0, #0]
    1848:	0005      	movs	r5, r0
    184a:	4b0a      	ldr	r3, [pc, #40]	; (1874 <spi_disable+0x30>)
    184c:	0020      	movs	r0, r4
    184e:	4798      	blx	r3
    1850:	231f      	movs	r3, #31
    1852:	4018      	ands	r0, r3
    1854:	3b1e      	subs	r3, #30
    1856:	4083      	lsls	r3, r0
    1858:	4a07      	ldr	r2, [pc, #28]	; (1878 <spi_disable+0x34>)
    185a:	67d3      	str	r3, [r2, #124]	; 0x7c
    185c:	682a      	ldr	r2, [r5, #0]
    185e:	69d3      	ldr	r3, [r2, #28]
    1860:	2b00      	cmp	r3, #0
    1862:	d1fc      	bne.n	185e <spi_disable+0x1a>
    1864:	2202      	movs	r2, #2
    1866:	338f      	adds	r3, #143	; 0x8f
    1868:	7523      	strb	r3, [r4, #20]
    186a:	7623      	strb	r3, [r4, #24]
    186c:	6823      	ldr	r3, [r4, #0]
    186e:	4393      	bics	r3, r2
    1870:	6023      	str	r3, [r4, #0]
    1872:	bd70      	pop	{r4, r5, r6, pc}
    1874:	0000178d 	.word	0x0000178d
    1878:	e000e104 	.word	0xe000e104

0000187c <spi_write>:
    187c:	6803      	ldr	r3, [r0, #0]
    187e:	2005      	movs	r0, #5
    1880:	7e1a      	ldrb	r2, [r3, #24]
    1882:	07d2      	lsls	r2, r2, #31
    1884:	d503      	bpl.n	188e <spi_write+0x12>
    1886:	2000      	movs	r0, #0
    1888:	05c9      	lsls	r1, r1, #23
    188a:	0dc9      	lsrs	r1, r1, #23
    188c:	6299      	str	r1, [r3, #40]	; 0x28
    188e:	4770      	bx	lr

00001890 <spi_read>:
    1890:	b530      	push	{r4, r5, lr}
    1892:	2404      	movs	r4, #4
    1894:	6803      	ldr	r3, [r0, #0]
    1896:	2210      	movs	r2, #16
    1898:	7e1d      	ldrb	r5, [r3, #24]
    189a:	4225      	tst	r5, r4
    189c:	d00c      	beq.n	18b8 <spi_read+0x28>
    189e:	8b5d      	ldrh	r5, [r3, #26]
    18a0:	2200      	movs	r2, #0
    18a2:	4225      	tst	r5, r4
    18a4:	d001      	beq.n	18aa <spi_read+0x1a>
    18a6:	835c      	strh	r4, [r3, #26]
    18a8:	321e      	adds	r2, #30
    18aa:	7980      	ldrb	r0, [r0, #6]
    18ac:	6a9b      	ldr	r3, [r3, #40]	; 0x28
    18ae:	2801      	cmp	r0, #1
    18b0:	d104      	bne.n	18bc <spi_read+0x2c>
    18b2:	05db      	lsls	r3, r3, #23
    18b4:	0ddb      	lsrs	r3, r3, #23
    18b6:	800b      	strh	r3, [r1, #0]
    18b8:	0010      	movs	r0, r2
    18ba:	bd30      	pop	{r4, r5, pc}
    18bc:	b2db      	uxtb	r3, r3
    18be:	e7fa      	b.n	18b6 <spi_read+0x26>

000018c0 <spi_set_baudrate>:
    18c0:	b5f7      	push	{r0, r1, r2, r4, r5, r6, r7, lr}
    18c2:	466b      	mov	r3, sp
    18c4:	1d9d      	adds	r5, r3, #6
    18c6:	2300      	movs	r3, #0
    18c8:	0004      	movs	r4, r0
    18ca:	802b      	strh	r3, [r5, #0]
    18cc:	4b19      	ldr	r3, [pc, #100]	; (1934 <spi_set_baudrate+0x74>)
    18ce:	6806      	ldr	r6, [r0, #0]
    18d0:	000f      	movs	r7, r1
    18d2:	4798      	blx	r3
    18d4:	6820      	ldr	r0, [r4, #0]
    18d6:	69c3      	ldr	r3, [r0, #28]
    18d8:	2b00      	cmp	r3, #0
    18da:	d1fc      	bne.n	18d6 <spi_set_baudrate+0x16>
    18dc:	4b16      	ldr	r3, [pc, #88]	; (1938 <spi_set_baudrate+0x78>)
    18de:	4798      	blx	r3
    18e0:	3014      	adds	r0, #20
    18e2:	4b16      	ldr	r3, [pc, #88]	; (193c <spi_set_baudrate+0x7c>)
    18e4:	b2c0      	uxtb	r0, r0
    18e6:	4798      	blx	r3
    18e8:	002a      	movs	r2, r5
    18ea:	0001      	movs	r1, r0
    18ec:	4b14      	ldr	r3, [pc, #80]	; (1940 <spi_set_baudrate+0x80>)
    18ee:	0038      	movs	r0, r7
    18f0:	4798      	blx	r3
    18f2:	1e07      	subs	r7, r0, #0
    18f4:	d11c      	bne.n	1930 <spi_set_baudrate+0x70>
    18f6:	782b      	ldrb	r3, [r5, #0]
    18f8:	7333      	strb	r3, [r6, #12]
    18fa:	6825      	ldr	r5, [r4, #0]
    18fc:	69eb      	ldr	r3, [r5, #28]
    18fe:	2b00      	cmp	r3, #0
    1900:	d1fc      	bne.n	18fc <spi_set_baudrate+0x3c>
    1902:	4b10      	ldr	r3, [pc, #64]	; (1944 <spi_set_baudrate+0x84>)
    1904:	0028      	movs	r0, r5
    1906:	4798      	blx	r3
    1908:	231f      	movs	r3, #31
    190a:	4018      	ands	r0, r3
    190c:	3b1e      	subs	r3, #30
    190e:	4083      	lsls	r3, r0
    1910:	4a0d      	ldr	r2, [pc, #52]	; (1948 <spi_set_baudrate+0x88>)
    1912:	6013      	str	r3, [r2, #0]
    1914:	6822      	ldr	r2, [r4, #0]
    1916:	69d3      	ldr	r3, [r2, #28]
    1918:	2b00      	cmp	r3, #0
    191a:	d1fc      	bne.n	1916 <spi_set_baudrate+0x56>
    191c:	682a      	ldr	r2, [r5, #0]
    191e:	3302      	adds	r3, #2
    1920:	4313      	orrs	r3, r2
    1922:	602b      	str	r3, [r5, #0]
    1924:	6822      	ldr	r2, [r4, #0]
    1926:	69d3      	ldr	r3, [r2, #28]
    1928:	2b00      	cmp	r3, #0
    192a:	d1fc      	bne.n	1926 <spi_set_baudrate+0x66>
    192c:	0038      	movs	r0, r7
    192e:	bdfe      	pop	{r1, r2, r3, r4, r5, r6, r7, pc}
    1930:	2717      	movs	r7, #23
    1932:	e7fb      	b.n	192c <spi_set_baudrate+0x6c>
    1934:	00001845 	.word	0x00001845
    1938:	00001721 	.word	0x00001721
    193c:	00002925 	.word	0x00002925
    1940:	000014c1 	.word	0x000014c1
    1944:	0000178d 	.word	0x0000178d
    1948:	e000e100 	.word	0xe000e100

0000194c <spi_init>:
    194c:	b5f0      	push	{r4, r5, r6, r7, lr}
    194e:	0005      	movs	r5, r0
    1950:	6029      	str	r1, [r5, #0]
    1952:	0014      	movs	r4, r2
    1954:	680a      	ldr	r2, [r1, #0]
    1956:	b089      	sub	sp, #36	; 0x24
    1958:	000f      	movs	r7, r1
    195a:	231c      	movs	r3, #28
    195c:	0792      	lsls	r2, r2, #30
    195e:	d500      	bpl.n	1962 <spi_init+0x16>
    1960:	e0ba      	b.n	1ad8 <spi_init+0x18c>
    1962:	2601      	movs	r6, #1
    1964:	680b      	ldr	r3, [r1, #0]
    1966:	4033      	ands	r3, r6
    1968:	9301      	str	r3, [sp, #4]
    196a:	9a01      	ldr	r2, [sp, #4]
    196c:	2305      	movs	r3, #5
    196e:	2a00      	cmp	r2, #0
    1970:	d000      	beq.n	1974 <spi_init+0x28>
    1972:	e0b1      	b.n	1ad8 <spi_init+0x18c>
    1974:	0008      	movs	r0, r1
    1976:	4b5a      	ldr	r3, [pc, #360]	; (1ae0 <spi_init+0x194>)
    1978:	4798      	blx	r3
    197a:	1c81      	adds	r1, r0, #2
    197c:	408e      	lsls	r6, r1
    197e:	4b59      	ldr	r3, [pc, #356]	; (1ae4 <spi_init+0x198>)
    1980:	3014      	adds	r0, #20
    1982:	6a1a      	ldr	r2, [r3, #32]
    1984:	4316      	orrs	r6, r2
    1986:	621e      	str	r6, [r3, #32]
    1988:	1d63      	adds	r3, r4, #5
    198a:	7fdb      	ldrb	r3, [r3, #31]
    198c:	aa02      	add	r2, sp, #8
    198e:	b2c6      	uxtb	r6, r0
    1990:	7013      	strb	r3, [r2, #0]
    1992:	0011      	movs	r1, r2
    1994:	0030      	movs	r0, r6
    1996:	4b54      	ldr	r3, [pc, #336]	; (1ae8 <spi_init+0x19c>)
    1998:	4798      	blx	r3
    199a:	0030      	movs	r0, r6
    199c:	4b53      	ldr	r3, [pc, #332]	; (1aec <spi_init+0x1a0>)
    199e:	4798      	blx	r3
    19a0:	1d63      	adds	r3, r4, #5
    19a2:	7fd8      	ldrb	r0, [r3, #31]
    19a4:	9901      	ldr	r1, [sp, #4]
    19a6:	4b52      	ldr	r3, [pc, #328]	; (1af0 <spi_init+0x1a4>)
    19a8:	4798      	blx	r3
    19aa:	7823      	ldrb	r3, [r4, #0]
    19ac:	2b01      	cmp	r3, #1
    19ae:	d103      	bne.n	19b8 <spi_init+0x6c>
    19b0:	683a      	ldr	r2, [r7, #0]
    19b2:	330b      	adds	r3, #11
    19b4:	4313      	orrs	r3, r2
    19b6:	603b      	str	r3, [r7, #0]
    19b8:	002b      	movs	r3, r5
    19ba:	002a      	movs	r2, r5
    19bc:	2600      	movs	r6, #0
    19be:	330c      	adds	r3, #12
    19c0:	3228      	adds	r2, #40	; 0x28
    19c2:	c340      	stmia	r3!, {r6}
    19c4:	4293      	cmp	r3, r2
    19c6:	d1fc      	bne.n	19c2 <spi_init+0x76>
    19c8:	002b      	movs	r3, r5
    19ca:	3336      	adds	r3, #54	; 0x36
    19cc:	86ae      	strh	r6, [r5, #52]	; 0x34
    19ce:	62ee      	str	r6, [r5, #44]	; 0x2c
    19d0:	862e      	strh	r6, [r5, #48]	; 0x30
    19d2:	62ae      	str	r6, [r5, #40]	; 0x28
    19d4:	701e      	strb	r6, [r3, #0]
    19d6:	705e      	strb	r6, [r3, #1]
    19d8:	709e      	strb	r6, [r3, #2]
    19da:	2303      	movs	r3, #3
    19dc:	6828      	ldr	r0, [r5, #0]
    19de:	726b      	strb	r3, [r5, #9]
    19e0:	4b3f      	ldr	r3, [pc, #252]	; (1ae0 <spi_init+0x194>)
    19e2:	712e      	strb	r6, [r5, #4]
    19e4:	4798      	blx	r3
    19e6:	0007      	movs	r7, r0
    19e8:	4b42      	ldr	r3, [pc, #264]	; (1af4 <spi_init+0x1a8>)
    19ea:	4943      	ldr	r1, [pc, #268]	; (1af8 <spi_init+0x1ac>)
    19ec:	4798      	blx	r3
    19ee:	4b43      	ldr	r3, [pc, #268]	; (1afc <spi_init+0x1b0>)
    19f0:	00bf      	lsls	r7, r7, #2
    19f2:	50fd      	str	r5, [r7, r3]
    19f4:	2380      	movs	r3, #128	; 0x80
    19f6:	aa02      	add	r2, sp, #8
    19f8:	7113      	strb	r3, [r2, #4]
    19fa:	2301      	movs	r3, #1
    19fc:	7193      	strb	r3, [r2, #6]
    19fe:	7823      	ldrb	r3, [r4, #0]
    1a00:	682f      	ldr	r7, [r5, #0]
    1a02:	7156      	strb	r6, [r2, #5]
    1a04:	71d6      	strb	r6, [r2, #7]
    1a06:	2b00      	cmp	r3, #0
    1a08:	d100      	bne.n	1a0c <spi_init+0xc0>
    1a0a:	7196      	strb	r6, [r2, #6]
    1a0c:	2600      	movs	r6, #0
    1a0e:	6aa3      	ldr	r3, [r4, #40]	; 0x28
    1a10:	9304      	str	r3, [sp, #16]
    1a12:	6ae3      	ldr	r3, [r4, #44]	; 0x2c
    1a14:	9305      	str	r3, [sp, #20]
    1a16:	6b23      	ldr	r3, [r4, #48]	; 0x30
    1a18:	9306      	str	r3, [sp, #24]
    1a1a:	6b63      	ldr	r3, [r4, #52]	; 0x34
    1a1c:	9307      	str	r3, [sp, #28]
    1a1e:	00b3      	lsls	r3, r6, #2
    1a20:	aa04      	add	r2, sp, #16
    1a22:	5898      	ldr	r0, [r3, r2]
    1a24:	b2f1      	uxtb	r1, r6
    1a26:	2800      	cmp	r0, #0
    1a28:	d102      	bne.n	1a30 <spi_init+0xe4>
    1a2a:	0038      	movs	r0, r7
    1a2c:	4b34      	ldr	r3, [pc, #208]	; (1b00 <spi_init+0x1b4>)
    1a2e:	4798      	blx	r3
    1a30:	1c43      	adds	r3, r0, #1
    1a32:	d006      	beq.n	1a42 <spi_init+0xf6>
    1a34:	ab02      	add	r3, sp, #8
    1a36:	7118      	strb	r0, [r3, #4]
    1a38:	0c00      	lsrs	r0, r0, #16
    1a3a:	b2c0      	uxtb	r0, r0
    1a3c:	a903      	add	r1, sp, #12
    1a3e:	4b31      	ldr	r3, [pc, #196]	; (1b04 <spi_init+0x1b8>)
    1a40:	4798      	blx	r3
    1a42:	3601      	adds	r6, #1
    1a44:	2e04      	cmp	r6, #4
    1a46:	d1ea      	bne.n	1a1e <spi_init+0xd2>
    1a48:	7823      	ldrb	r3, [r4, #0]
    1a4a:	716b      	strb	r3, [r5, #5]
    1a4c:	7c23      	ldrb	r3, [r4, #16]
    1a4e:	71ab      	strb	r3, [r5, #6]
    1a50:	7ca3      	ldrb	r3, [r4, #18]
    1a52:	71eb      	strb	r3, [r5, #7]
    1a54:	7d23      	ldrb	r3, [r4, #20]
    1a56:	722b      	strb	r3, [r5, #8]
    1a58:	ab02      	add	r3, sp, #8
    1a5a:	1c9e      	adds	r6, r3, #2
    1a5c:	2300      	movs	r3, #0
    1a5e:	8033      	strh	r3, [r6, #0]
    1a60:	7823      	ldrb	r3, [r4, #0]
    1a62:	2b01      	cmp	r3, #1
    1a64:	d110      	bne.n	1a88 <spi_init+0x13c>
    1a66:	4b1e      	ldr	r3, [pc, #120]	; (1ae0 <spi_init+0x194>)
    1a68:	6828      	ldr	r0, [r5, #0]
    1a6a:	4798      	blx	r3
    1a6c:	3014      	adds	r0, #20
    1a6e:	4b26      	ldr	r3, [pc, #152]	; (1b08 <spi_init+0x1bc>)
    1a70:	b2c0      	uxtb	r0, r0
    1a72:	4798      	blx	r3
    1a74:	4b25      	ldr	r3, [pc, #148]	; (1b0c <spi_init+0x1c0>)
    1a76:	0001      	movs	r1, r0
    1a78:	0032      	movs	r2, r6
    1a7a:	69a0      	ldr	r0, [r4, #24]
    1a7c:	4798      	blx	r3
    1a7e:	2317      	movs	r3, #23
    1a80:	2800      	cmp	r0, #0
    1a82:	d129      	bne.n	1ad8 <spi_init+0x18c>
    1a84:	7833      	ldrb	r3, [r6, #0]
    1a86:	733b      	strb	r3, [r7, #12]
    1a88:	68a3      	ldr	r3, [r4, #8]
    1a8a:	6862      	ldr	r2, [r4, #4]
    1a8c:	7c61      	ldrb	r1, [r4, #17]
    1a8e:	431a      	orrs	r2, r3
    1a90:	68e3      	ldr	r3, [r4, #12]
    1a92:	431a      	orrs	r2, r3
    1a94:	7c23      	ldrb	r3, [r4, #16]
    1a96:	2900      	cmp	r1, #0
    1a98:	d103      	bne.n	1aa2 <spi_init+0x156>
    1a9a:	491d      	ldr	r1, [pc, #116]	; (1b10 <spi_init+0x1c4>)
    1a9c:	7889      	ldrb	r1, [r1, #2]
    1a9e:	0789      	lsls	r1, r1, #30
    1aa0:	d501      	bpl.n	1aa6 <spi_init+0x15a>
    1aa2:	2180      	movs	r1, #128	; 0x80
    1aa4:	430a      	orrs	r2, r1
    1aa6:	7ca1      	ldrb	r1, [r4, #18]
    1aa8:	2900      	cmp	r1, #0
    1aaa:	d002      	beq.n	1ab2 <spi_init+0x166>
    1aac:	2180      	movs	r1, #128	; 0x80
    1aae:	0289      	lsls	r1, r1, #10
    1ab0:	430b      	orrs	r3, r1
    1ab2:	7ce1      	ldrb	r1, [r4, #19]
    1ab4:	2900      	cmp	r1, #0
    1ab6:	d002      	beq.n	1abe <spi_init+0x172>
    1ab8:	2180      	movs	r1, #128	; 0x80
    1aba:	0089      	lsls	r1, r1, #2
    1abc:	430b      	orrs	r3, r1
    1abe:	7d21      	ldrb	r1, [r4, #20]
    1ac0:	2900      	cmp	r1, #0
    1ac2:	d002      	beq.n	1aca <spi_init+0x17e>
    1ac4:	2180      	movs	r1, #128	; 0x80
    1ac6:	0189      	lsls	r1, r1, #6
    1ac8:	430b      	orrs	r3, r1
    1aca:	6839      	ldr	r1, [r7, #0]
    1acc:	430a      	orrs	r2, r1
    1ace:	603a      	str	r2, [r7, #0]
    1ad0:	687a      	ldr	r2, [r7, #4]
    1ad2:	4313      	orrs	r3, r2
    1ad4:	607b      	str	r3, [r7, #4]
    1ad6:	2300      	movs	r3, #0
    1ad8:	0018      	movs	r0, r3
    1ada:	b009      	add	sp, #36	; 0x24
    1adc:	bdf0      	pop	{r4, r5, r6, r7, pc}
    1ade:	46c0      	nop			; (mov r8, r8)
    1ae0:	00001721 	.word	0x00001721
    1ae4:	40000400 	.word	0x40000400
    1ae8:	00002909 	.word	0x00002909
    1aec:	00002881 	.word	0x00002881
    1af0:	00001581 	.word	0x00001581
    1af4:	00001755 	.word	0x00001755
    1af8:	00001cad 	.word	0x00001cad
    1afc:	2000017c 	.word	0x2000017c
    1b00:	000015c5 	.word	0x000015c5
    1b04:	000029dd 	.word	0x000029dd
    1b08:	00002925 	.word	0x00002925
    1b0c:	000014c1 	.word	0x000014c1
    1b10:	41002000 	.word	0x41002000

00001b14 <spi_read_buffer_wait>:
    1b14:	b5f0      	push	{r4, r5, r6, r7, lr}
    1b16:	b085      	sub	sp, #20
    1b18:	9301      	str	r3, [sp, #4]
    1b1a:	0003      	movs	r3, r0
    1b1c:	0004      	movs	r4, r0
    1b1e:	2005      	movs	r0, #5
    1b20:	9100      	str	r1, [sp, #0]
    1b22:	3338      	adds	r3, #56	; 0x38
    1b24:	781b      	ldrb	r3, [r3, #0]
    1b26:	0016      	movs	r6, r2
    1b28:	4283      	cmp	r3, r0
    1b2a:	d033      	beq.n	1b94 <spi_read_buffer_wait+0x80>
    1b2c:	3012      	adds	r0, #18
    1b2e:	2a00      	cmp	r2, #0
    1b30:	d030      	beq.n	1b94 <spi_read_buffer_wait+0x80>
    1b32:	79e3      	ldrb	r3, [r4, #7]
    1b34:	3005      	adds	r0, #5
    1b36:	2b00      	cmp	r3, #0
    1b38:	d02c      	beq.n	1b94 <spi_read_buffer_wait+0x80>
    1b3a:	2500      	movs	r5, #0
    1b3c:	7963      	ldrb	r3, [r4, #5]
    1b3e:	2b01      	cmp	r3, #1
    1b40:	d108      	bne.n	1b54 <spi_read_buffer_wait+0x40>
    1b42:	6822      	ldr	r2, [r4, #0]
    1b44:	2101      	movs	r1, #1
    1b46:	7e13      	ldrb	r3, [r2, #24]
    1b48:	420b      	tst	r3, r1
    1b4a:	d0fb      	beq.n	1b44 <spi_read_buffer_wait+0x30>
    1b4c:	9901      	ldr	r1, [sp, #4]
    1b4e:	0020      	movs	r0, r4
    1b50:	4b12      	ldr	r3, [pc, #72]	; (1b9c <spi_read_buffer_wait+0x88>)
    1b52:	4798      	blx	r3
    1b54:	6822      	ldr	r2, [r4, #0]
    1b56:	2104      	movs	r1, #4
    1b58:	7e13      	ldrb	r3, [r2, #24]
    1b5a:	420b      	tst	r3, r1
    1b5c:	d0fb      	beq.n	1b56 <spi_read_buffer_wait+0x42>
    1b5e:	ab02      	add	r3, sp, #8
    1b60:	1d9f      	adds	r7, r3, #6
    1b62:	2300      	movs	r3, #0
    1b64:	0039      	movs	r1, r7
    1b66:	803b      	strh	r3, [r7, #0]
    1b68:	0020      	movs	r0, r4
    1b6a:	4b0d      	ldr	r3, [pc, #52]	; (1ba0 <spi_read_buffer_wait+0x8c>)
    1b6c:	4798      	blx	r3
    1b6e:	2800      	cmp	r0, #0
    1b70:	d110      	bne.n	1b94 <spi_read_buffer_wait+0x80>
    1b72:	9900      	ldr	r1, [sp, #0]
    1b74:	883a      	ldrh	r2, [r7, #0]
    1b76:	1c6b      	adds	r3, r5, #1
    1b78:	554a      	strb	r2, [r1, r5]
    1b7a:	79a1      	ldrb	r1, [r4, #6]
    1b7c:	b29b      	uxth	r3, r3
    1b7e:	2901      	cmp	r1, #1
    1b80:	d10a      	bne.n	1b98 <spi_read_buffer_wait+0x84>
    1b82:	9900      	ldr	r1, [sp, #0]
    1b84:	3502      	adds	r5, #2
    1b86:	0a12      	lsrs	r2, r2, #8
    1b88:	b2ad      	uxth	r5, r5
    1b8a:	54ca      	strb	r2, [r1, r3]
    1b8c:	3e01      	subs	r6, #1
    1b8e:	b2b6      	uxth	r6, r6
    1b90:	2e00      	cmp	r6, #0
    1b92:	d1d3      	bne.n	1b3c <spi_read_buffer_wait+0x28>
    1b94:	b005      	add	sp, #20
    1b96:	bdf0      	pop	{r4, r5, r6, r7, pc}
    1b98:	001d      	movs	r5, r3
    1b9a:	e7f7      	b.n	1b8c <spi_read_buffer_wait+0x78>
    1b9c:	0000187d 	.word	0x0000187d
    1ba0:	00001891 	.word	0x00001891

00001ba4 <spi_select_slave>:
    1ba4:	b573      	push	{r0, r1, r4, r5, r6, lr}
    1ba6:	000e      	movs	r6, r1
    1ba8:	7941      	ldrb	r1, [r0, #5]
    1baa:	0005      	movs	r5, r0
    1bac:	0014      	movs	r4, r2
    1bae:	2015      	movs	r0, #21
    1bb0:	2901      	cmp	r1, #1
    1bb2:	d103      	bne.n	1bbc <spi_select_slave+0x18>
    1bb4:	7a2a      	ldrb	r2, [r5, #8]
    1bb6:	2a00      	cmp	r2, #0
    1bb8:	d001      	beq.n	1bbe <spi_select_slave+0x1a>
    1bba:	2000      	movs	r0, #0
    1bbc:	bd76      	pop	{r1, r2, r4, r5, r6, pc}
    1bbe:	7830      	ldrb	r0, [r6, #0]
    1bc0:	4b14      	ldr	r3, [pc, #80]	; (1c14 <spi_select_slave+0x70>)
    1bc2:	2c00      	cmp	r4, #0
    1bc4:	d022      	beq.n	1c0c <spi_select_slave+0x68>
    1bc6:	7874      	ldrb	r4, [r6, #1]
    1bc8:	2c00      	cmp	r4, #0
    1bca:	d01c      	beq.n	1c06 <spi_select_slave+0x62>
    1bcc:	682c      	ldr	r4, [r5, #0]
    1bce:	7e24      	ldrb	r4, [r4, #24]
    1bd0:	420c      	tst	r4, r1
    1bd2:	d102      	bne.n	1bda <spi_select_slave+0x36>
    1bd4:	4798      	blx	r3
    1bd6:	2005      	movs	r0, #5
    1bd8:	e7f0      	b.n	1bbc <spi_select_slave+0x18>
    1bda:	0011      	movs	r1, r2
    1bdc:	4798      	blx	r3
    1bde:	4b0e      	ldr	r3, [pc, #56]	; (1c18 <spi_select_slave+0x74>)
    1be0:	78b1      	ldrb	r1, [r6, #2]
    1be2:	0028      	movs	r0, r5
    1be4:	4798      	blx	r3
    1be6:	79eb      	ldrb	r3, [r5, #7]
    1be8:	2b00      	cmp	r3, #0
    1bea:	d1e6      	bne.n	1bba <spi_select_slave+0x16>
    1bec:	6829      	ldr	r1, [r5, #0]
    1bee:	3304      	adds	r3, #4
    1bf0:	7e0a      	ldrb	r2, [r1, #24]
    1bf2:	421a      	tst	r2, r3
    1bf4:	d0fc      	beq.n	1bf0 <spi_select_slave+0x4c>
    1bf6:	466b      	mov	r3, sp
    1bf8:	2400      	movs	r4, #0
    1bfa:	1d99      	adds	r1, r3, #6
    1bfc:	0028      	movs	r0, r5
    1bfe:	4b07      	ldr	r3, [pc, #28]	; (1c1c <spi_select_slave+0x78>)
    1c00:	800c      	strh	r4, [r1, #0]
    1c02:	4798      	blx	r3
    1c04:	e7d9      	b.n	1bba <spi_select_slave+0x16>
    1c06:	0021      	movs	r1, r4
    1c08:	4798      	blx	r3
    1c0a:	e7d6      	b.n	1bba <spi_select_slave+0x16>
    1c0c:	4798      	blx	r3
    1c0e:	0020      	movs	r0, r4
    1c10:	e7d4      	b.n	1bbc <spi_select_slave+0x18>
    1c12:	46c0      	nop			; (mov r8, r8)
    1c14:	00001819 	.word	0x00001819
    1c18:	0000187d 	.word	0x0000187d
    1c1c:	00001891 	.word	0x00001891

00001c20 <spi_write_buffer_wait>:
    1c20:	0003      	movs	r3, r0
    1c22:	b5f7      	push	{r0, r1, r2, r4, r5, r6, r7, lr}
    1c24:	0004      	movs	r4, r0
    1c26:	2005      	movs	r0, #5
    1c28:	3338      	adds	r3, #56	; 0x38
    1c2a:	781b      	ldrb	r3, [r3, #0]
    1c2c:	000f      	movs	r7, r1
    1c2e:	0015      	movs	r5, r2
    1c30:	4283      	cmp	r3, r0
    1c32:	d003      	beq.n	1c3c <spi_write_buffer_wait+0x1c>
    1c34:	3012      	adds	r0, #18
    1c36:	2600      	movs	r6, #0
    1c38:	2a00      	cmp	r2, #0
    1c3a:	d120      	bne.n	1c7e <spi_write_buffer_wait+0x5e>
    1c3c:	bdfe      	pop	{r1, r2, r3, r4, r5, r6, r7, pc}
    1c3e:	2101      	movs	r1, #1
    1c40:	7e1a      	ldrb	r2, [r3, #24]
    1c42:	420a      	tst	r2, r1
    1c44:	d0fb      	beq.n	1c3e <spi_write_buffer_wait+0x1e>
    1c46:	79a2      	ldrb	r2, [r4, #6]
    1c48:	1873      	adds	r3, r6, r1
    1c4a:	b29b      	uxth	r3, r3
    1c4c:	5db9      	ldrb	r1, [r7, r6]
    1c4e:	2a01      	cmp	r2, #1
    1c50:	d017      	beq.n	1c82 <spi_write_buffer_wait+0x62>
    1c52:	001e      	movs	r6, r3
    1c54:	b289      	uxth	r1, r1
    1c56:	4b13      	ldr	r3, [pc, #76]	; (1ca4 <spi_write_buffer_wait+0x84>)
    1c58:	0020      	movs	r0, r4
    1c5a:	4798      	blx	r3
    1c5c:	79e3      	ldrb	r3, [r4, #7]
    1c5e:	2b00      	cmp	r3, #0
    1c60:	d009      	beq.n	1c76 <spi_write_buffer_wait+0x56>
    1c62:	6822      	ldr	r2, [r4, #0]
    1c64:	2104      	movs	r1, #4
    1c66:	7e13      	ldrb	r3, [r2, #24]
    1c68:	420b      	tst	r3, r1
    1c6a:	d0fb      	beq.n	1c64 <spi_write_buffer_wait+0x44>
    1c6c:	466b      	mov	r3, sp
    1c6e:	0020      	movs	r0, r4
    1c70:	1d99      	adds	r1, r3, #6
    1c72:	4b0d      	ldr	r3, [pc, #52]	; (1ca8 <spi_write_buffer_wait+0x88>)
    1c74:	4798      	blx	r3
    1c76:	3d01      	subs	r5, #1
    1c78:	b2ad      	uxth	r5, r5
    1c7a:	2d00      	cmp	r5, #0
    1c7c:	d007      	beq.n	1c8e <spi_write_buffer_wait+0x6e>
    1c7e:	6823      	ldr	r3, [r4, #0]
    1c80:	e7dd      	b.n	1c3e <spi_write_buffer_wait+0x1e>
    1c82:	5cfb      	ldrb	r3, [r7, r3]
    1c84:	3602      	adds	r6, #2
    1c86:	021b      	lsls	r3, r3, #8
    1c88:	b2b6      	uxth	r6, r6
    1c8a:	4319      	orrs	r1, r3
    1c8c:	e7e3      	b.n	1c56 <spi_write_buffer_wait+0x36>
    1c8e:	7963      	ldrb	r3, [r4, #5]
    1c90:	0028      	movs	r0, r5
    1c92:	2b01      	cmp	r3, #1
    1c94:	d1d2      	bne.n	1c3c <spi_write_buffer_wait+0x1c>
    1c96:	6821      	ldr	r1, [r4, #0]
    1c98:	3301      	adds	r3, #1
    1c9a:	7e0a      	ldrb	r2, [r1, #24]
    1c9c:	421a      	tst	r2, r3
    1c9e:	d0fc      	beq.n	1c9a <spi_write_buffer_wait+0x7a>
    1ca0:	2000      	movs	r0, #0
    1ca2:	e7cb      	b.n	1c3c <spi_write_buffer_wait+0x1c>
    1ca4:	0000187d 	.word	0x0000187d
    1ca8:	00001891 	.word	0x00001891

00001cac <_spi_interrupt_handler>:
    1cac:	b5f8      	push	{r3, r4, r5, r6, r7, lr}
    1cae:	4b68      	ldr	r3, [pc, #416]	; (1e50 <_spi_interrupt_handler+0x1a4>)
    1cb0:	0080      	lsls	r0, r0, #2
    1cb2:	58c4      	ldr	r4, [r0, r3]
    1cb4:	0023      	movs	r3, r4
    1cb6:	0022      	movs	r2, r4
    1cb8:	3337      	adds	r3, #55	; 0x37
    1cba:	3236      	adds	r2, #54	; 0x36
    1cbc:	6825      	ldr	r5, [r4, #0]
    1cbe:	781b      	ldrb	r3, [r3, #0]
    1cc0:	7816      	ldrb	r6, [r2, #0]
    1cc2:	401e      	ands	r6, r3
    1cc4:	7e2b      	ldrb	r3, [r5, #24]
    1cc6:	7daf      	ldrb	r7, [r5, #22]
    1cc8:	401f      	ands	r7, r3
    1cca:	07fb      	lsls	r3, r7, #31
    1ccc:	d534      	bpl.n	1d38 <_spi_interrupt_handler+0x8c>
    1cce:	7962      	ldrb	r2, [r4, #5]
    1cd0:	2a01      	cmp	r2, #1
    1cd2:	d131      	bne.n	1d38 <_spi_interrupt_handler+0x8c>
    1cd4:	7a63      	ldrb	r3, [r4, #9]
    1cd6:	2b00      	cmp	r3, #0
    1cd8:	d10d      	bne.n	1cf6 <_spi_interrupt_handler+0x4a>
    1cda:	4b5e      	ldr	r3, [pc, #376]	; (1e54 <_spi_interrupt_handler+0x1a8>)
    1cdc:	881b      	ldrh	r3, [r3, #0]
    1cde:	62ab      	str	r3, [r5, #40]	; 0x28
    1ce0:	8e63      	ldrh	r3, [r4, #50]	; 0x32
    1ce2:	3b01      	subs	r3, #1
    1ce4:	b29b      	uxth	r3, r3
    1ce6:	8663      	strh	r3, [r4, #50]	; 0x32
    1ce8:	8e63      	ldrh	r3, [r4, #50]	; 0x32
    1cea:	2b00      	cmp	r3, #0
    1cec:	d100      	bne.n	1cf0 <_spi_interrupt_handler+0x44>
    1cee:	752a      	strb	r2, [r5, #20]
    1cf0:	7963      	ldrb	r3, [r4, #5]
    1cf2:	2b01      	cmp	r3, #1
    1cf4:	d120      	bne.n	1d38 <_spi_interrupt_handler+0x8c>
    1cf6:	7a63      	ldrb	r3, [r4, #9]
    1cf8:	2b00      	cmp	r3, #0
    1cfa:	d01d      	beq.n	1d38 <_spi_interrupt_handler+0x8c>
    1cfc:	6ae1      	ldr	r1, [r4, #44]	; 0x2c
    1cfe:	6822      	ldr	r2, [r4, #0]
    1d00:	1c48      	adds	r0, r1, #1
    1d02:	780b      	ldrb	r3, [r1, #0]
    1d04:	62e0      	str	r0, [r4, #44]	; 0x2c
    1d06:	79a0      	ldrb	r0, [r4, #6]
    1d08:	b2db      	uxtb	r3, r3
    1d0a:	2801      	cmp	r0, #1
    1d0c:	d051      	beq.n	1db2 <_spi_interrupt_handler+0x106>
    1d0e:	b29b      	uxth	r3, r3
    1d10:	05db      	lsls	r3, r3, #23
    1d12:	0ddb      	lsrs	r3, r3, #23
    1d14:	6293      	str	r3, [r2, #40]	; 0x28
    1d16:	8ea3      	ldrh	r3, [r4, #52]	; 0x34
    1d18:	3b01      	subs	r3, #1
    1d1a:	b29b      	uxth	r3, r3
    1d1c:	86a3      	strh	r3, [r4, #52]	; 0x34
    1d1e:	8ea3      	ldrh	r3, [r4, #52]	; 0x34
    1d20:	2b00      	cmp	r3, #0
    1d22:	d109      	bne.n	1d38 <_spi_interrupt_handler+0x8c>
    1d24:	3301      	adds	r3, #1
    1d26:	752b      	strb	r3, [r5, #20]
    1d28:	7a63      	ldrb	r3, [r4, #9]
    1d2a:	2b01      	cmp	r3, #1
    1d2c:	d104      	bne.n	1d38 <_spi_interrupt_handler+0x8c>
    1d2e:	79e3      	ldrb	r3, [r4, #7]
    1d30:	2b00      	cmp	r3, #0
    1d32:	d101      	bne.n	1d38 <_spi_interrupt_handler+0x8c>
    1d34:	3302      	adds	r3, #2
    1d36:	75ab      	strb	r3, [r5, #22]
    1d38:	2104      	movs	r1, #4
    1d3a:	420f      	tst	r7, r1
    1d3c:	d015      	beq.n	1d6a <_spi_interrupt_handler+0xbe>
    1d3e:	8b6b      	ldrh	r3, [r5, #26]
    1d40:	420b      	tst	r3, r1
    1d42:	d03c      	beq.n	1dbe <_spi_interrupt_handler+0x112>
    1d44:	7a63      	ldrb	r3, [r4, #9]
    1d46:	2b01      	cmp	r3, #1
    1d48:	d00c      	beq.n	1d64 <_spi_interrupt_handler+0xb8>
    1d4a:	0023      	movs	r3, r4
    1d4c:	221e      	movs	r2, #30
    1d4e:	3338      	adds	r3, #56	; 0x38
    1d50:	701a      	strb	r2, [r3, #0]
    1d52:	2303      	movs	r3, #3
    1d54:	7263      	strb	r3, [r4, #9]
    1d56:	3302      	adds	r3, #2
    1d58:	752b      	strb	r3, [r5, #20]
    1d5a:	0733      	lsls	r3, r6, #28
    1d5c:	d502      	bpl.n	1d64 <_spi_interrupt_handler+0xb8>
    1d5e:	0020      	movs	r0, r4
    1d60:	69a3      	ldr	r3, [r4, #24]
    1d62:	4798      	blx	r3
    1d64:	6aab      	ldr	r3, [r5, #40]	; 0x28
    1d66:	2304      	movs	r3, #4
    1d68:	836b      	strh	r3, [r5, #26]
    1d6a:	2102      	movs	r1, #2
    1d6c:	420f      	tst	r7, r1
    1d6e:	d014      	beq.n	1d9a <_spi_interrupt_handler+0xee>
    1d70:	7963      	ldrb	r3, [r4, #5]
    1d72:	2b01      	cmp	r3, #1
    1d74:	d111      	bne.n	1d9a <_spi_interrupt_handler+0xee>
    1d76:	7a63      	ldrb	r3, [r4, #9]
    1d78:	b2db      	uxtb	r3, r3
    1d7a:	2b01      	cmp	r3, #1
    1d7c:	d10d      	bne.n	1d9a <_spi_interrupt_handler+0xee>
    1d7e:	79e2      	ldrb	r2, [r4, #7]
    1d80:	2a00      	cmp	r2, #0
    1d82:	d10a      	bne.n	1d9a <_spi_interrupt_handler+0xee>
    1d84:	7529      	strb	r1, [r5, #20]
    1d86:	3101      	adds	r1, #1
    1d88:	7261      	strb	r1, [r4, #9]
    1d8a:	0021      	movs	r1, r4
    1d8c:	3138      	adds	r1, #56	; 0x38
    1d8e:	700a      	strb	r2, [r1, #0]
    1d90:	421e      	tst	r6, r3
    1d92:	d002      	beq.n	1d9a <_spi_interrupt_handler+0xee>
    1d94:	0020      	movs	r0, r4
    1d96:	68e3      	ldr	r3, [r4, #12]
    1d98:	4798      	blx	r3
    1d9a:	b27f      	sxtb	r7, r7
    1d9c:	2f00      	cmp	r7, #0
    1d9e:	da07      	bge.n	1db0 <_spi_interrupt_handler+0x104>
    1da0:	2380      	movs	r3, #128	; 0x80
    1da2:	752b      	strb	r3, [r5, #20]
    1da4:	762b      	strb	r3, [r5, #24]
    1da6:	0673      	lsls	r3, r6, #25
    1da8:	d502      	bpl.n	1db0 <_spi_interrupt_handler+0x104>
    1daa:	6a63      	ldr	r3, [r4, #36]	; 0x24
    1dac:	0020      	movs	r0, r4
    1dae:	4798      	blx	r3
    1db0:	bdf8      	pop	{r3, r4, r5, r6, r7, pc}
    1db2:	7848      	ldrb	r0, [r1, #1]
    1db4:	3102      	adds	r1, #2
    1db6:	0200      	lsls	r0, r0, #8
    1db8:	4303      	orrs	r3, r0
    1dba:	62e1      	str	r1, [r4, #44]	; 0x2c
    1dbc:	e7a8      	b.n	1d10 <_spi_interrupt_handler+0x64>
    1dbe:	7a62      	ldrb	r2, [r4, #9]
    1dc0:	6823      	ldr	r3, [r4, #0]
    1dc2:	b2d2      	uxtb	r2, r2
    1dc4:	6a9b      	ldr	r3, [r3, #40]	; 0x28
    1dc6:	2a01      	cmp	r2, #1
    1dc8:	d113      	bne.n	1df2 <_spi_interrupt_handler+0x146>
    1dca:	8e63      	ldrh	r3, [r4, #50]	; 0x32
    1dcc:	3b01      	subs	r3, #1
    1dce:	b29b      	uxth	r3, r3
    1dd0:	8663      	strh	r3, [r4, #50]	; 0x32
    1dd2:	8e63      	ldrh	r3, [r4, #50]	; 0x32
    1dd4:	b29b      	uxth	r3, r3
    1dd6:	2b00      	cmp	r3, #0
    1dd8:	d1c7      	bne.n	1d6a <_spi_interrupt_handler+0xbe>
    1dda:	7529      	strb	r1, [r5, #20]
    1ddc:	0021      	movs	r1, r4
    1dde:	3138      	adds	r1, #56	; 0x38
    1de0:	700b      	strb	r3, [r1, #0]
    1de2:	3303      	adds	r3, #3
    1de4:	7263      	strb	r3, [r4, #9]
    1de6:	4216      	tst	r6, r2
    1de8:	d0bf      	beq.n	1d6a <_spi_interrupt_handler+0xbe>
    1dea:	0020      	movs	r0, r4
    1dec:	68e3      	ldr	r3, [r4, #12]
    1dee:	4798      	blx	r3
    1df0:	e7bb      	b.n	1d6a <_spi_interrupt_handler+0xbe>
    1df2:	05db      	lsls	r3, r3, #23
    1df4:	6aa1      	ldr	r1, [r4, #40]	; 0x28
    1df6:	0ddb      	lsrs	r3, r3, #23
    1df8:	b2da      	uxtb	r2, r3
    1dfa:	700a      	strb	r2, [r1, #0]
    1dfc:	6aa2      	ldr	r2, [r4, #40]	; 0x28
    1dfe:	1c51      	adds	r1, r2, #1
    1e00:	62a1      	str	r1, [r4, #40]	; 0x28
    1e02:	79a1      	ldrb	r1, [r4, #6]
    1e04:	2901      	cmp	r1, #1
    1e06:	d104      	bne.n	1e12 <_spi_interrupt_handler+0x166>
    1e08:	0a1b      	lsrs	r3, r3, #8
    1e0a:	7053      	strb	r3, [r2, #1]
    1e0c:	6aa3      	ldr	r3, [r4, #40]	; 0x28
    1e0e:	3301      	adds	r3, #1
    1e10:	62a3      	str	r3, [r4, #40]	; 0x28
    1e12:	8e23      	ldrh	r3, [r4, #48]	; 0x30
    1e14:	3b01      	subs	r3, #1
    1e16:	b29b      	uxth	r3, r3
    1e18:	8623      	strh	r3, [r4, #48]	; 0x30
    1e1a:	8e23      	ldrh	r3, [r4, #48]	; 0x30
    1e1c:	b29b      	uxth	r3, r3
    1e1e:	2b00      	cmp	r3, #0
    1e20:	d1a3      	bne.n	1d6a <_spi_interrupt_handler+0xbe>
    1e22:	0022      	movs	r2, r4
    1e24:	3238      	adds	r2, #56	; 0x38
    1e26:	7013      	strb	r3, [r2, #0]
    1e28:	3304      	adds	r3, #4
    1e2a:	752b      	strb	r3, [r5, #20]
    1e2c:	7a62      	ldrb	r2, [r4, #9]
    1e2e:	2a02      	cmp	r2, #2
    1e30:	d104      	bne.n	1e3c <_spi_interrupt_handler+0x190>
    1e32:	421e      	tst	r6, r3
    1e34:	d099      	beq.n	1d6a <_spi_interrupt_handler+0xbe>
    1e36:	0020      	movs	r0, r4
    1e38:	6963      	ldr	r3, [r4, #20]
    1e3a:	e7d8      	b.n	1dee <_spi_interrupt_handler+0x142>
    1e3c:	7a63      	ldrb	r3, [r4, #9]
    1e3e:	2b00      	cmp	r3, #0
    1e40:	d000      	beq.n	1e44 <_spi_interrupt_handler+0x198>
    1e42:	e792      	b.n	1d6a <_spi_interrupt_handler+0xbe>
    1e44:	07b3      	lsls	r3, r6, #30
    1e46:	d400      	bmi.n	1e4a <_spi_interrupt_handler+0x19e>
    1e48:	e78f      	b.n	1d6a <_spi_interrupt_handler+0xbe>
    1e4a:	0020      	movs	r0, r4
    1e4c:	6923      	ldr	r3, [r4, #16]
    1e4e:	e7ce      	b.n	1dee <_spi_interrupt_handler+0x142>
    1e50:	2000017c 	.word	0x2000017c
    1e54:	20000194 	.word	0x20000194

00001e58 <usart_init>:
    1e58:	b5f0      	push	{r4, r5, r6, r7, lr}
    1e5a:	0007      	movs	r7, r0
    1e5c:	b093      	sub	sp, #76	; 0x4c
    1e5e:	4b9e      	ldr	r3, [pc, #632]	; (20d8 <STACK_SIZE+0xd8>)
    1e60:	6039      	str	r1, [r7, #0]
    1e62:	0008      	movs	r0, r1
    1e64:	0014      	movs	r4, r2
    1e66:	9104      	str	r1, [sp, #16]
    1e68:	4798      	blx	r3
    1e6a:	2201      	movs	r2, #1
    1e6c:	9b04      	ldr	r3, [sp, #16]
    1e6e:	0006      	movs	r6, r0
    1e70:	681b      	ldr	r3, [r3, #0]
    1e72:	2005      	movs	r0, #5
    1e74:	4213      	tst	r3, r2
    1e76:	d000      	beq.n	1e7a <usart_init+0x22>
    1e78:	e10a      	b.n	2090 <STACK_SIZE+0x90>
    1e7a:	9b04      	ldr	r3, [sp, #16]
    1e7c:	3017      	adds	r0, #23
    1e7e:	681d      	ldr	r5, [r3, #0]
    1e80:	2302      	movs	r3, #2
    1e82:	401d      	ands	r5, r3
    1e84:	d000      	beq.n	1e88 <usart_init+0x30>
    1e86:	e103      	b.n	2090 <STACK_SIZE+0x90>
    1e88:	18f3      	adds	r3, r6, r3
    1e8a:	381b      	subs	r0, #27
    1e8c:	4098      	lsls	r0, r3
    1e8e:	0003      	movs	r3, r0
    1e90:	4a92      	ldr	r2, [pc, #584]	; (20dc <STACK_SIZE+0xdc>)
    1e92:	3614      	adds	r6, #20
    1e94:	6a11      	ldr	r1, [r2, #32]
    1e96:	b2f6      	uxtb	r6, r6
    1e98:	430b      	orrs	r3, r1
    1e9a:	6213      	str	r3, [r2, #32]
    1e9c:	0023      	movs	r3, r4
    1e9e:	332d      	adds	r3, #45	; 0x2d
    1ea0:	9302      	str	r3, [sp, #8]
    1ea2:	781b      	ldrb	r3, [r3, #0]
    1ea4:	a90c      	add	r1, sp, #48	; 0x30
    1ea6:	700b      	strb	r3, [r1, #0]
    1ea8:	0030      	movs	r0, r6
    1eaa:	4b8d      	ldr	r3, [pc, #564]	; (20e0 <STACK_SIZE+0xe0>)
    1eac:	4798      	blx	r3
    1eae:	0030      	movs	r0, r6
    1eb0:	4b8c      	ldr	r3, [pc, #560]	; (20e4 <STACK_SIZE+0xe4>)
    1eb2:	4798      	blx	r3
    1eb4:	9b02      	ldr	r3, [sp, #8]
    1eb6:	0029      	movs	r1, r5
    1eb8:	7818      	ldrb	r0, [r3, #0]
    1eba:	4b8b      	ldr	r3, [pc, #556]	; (20e8 <STACK_SIZE+0xe8>)
    1ebc:	4798      	blx	r3
    1ebe:	7ae3      	ldrb	r3, [r4, #11]
    1ec0:	2608      	movs	r6, #8
    1ec2:	717b      	strb	r3, [r7, #5]
    1ec4:	1d63      	adds	r3, r4, #5
    1ec6:	7fdb      	ldrb	r3, [r3, #31]
    1ec8:	71bb      	strb	r3, [r7, #6]
    1eca:	1da3      	adds	r3, r4, #6
    1ecc:	7fdb      	ldrb	r3, [r3, #31]
    1ece:	71fb      	strb	r3, [r7, #7]
    1ed0:	7ee3      	ldrb	r3, [r4, #27]
    1ed2:	723b      	strb	r3, [r7, #8]
    1ed4:	7f23      	ldrb	r3, [r4, #28]
    1ed6:	727b      	strb	r3, [r7, #9]
    1ed8:	683b      	ldr	r3, [r7, #0]
    1eda:	9303      	str	r3, [sp, #12]
    1edc:	0018      	movs	r0, r3
    1ede:	4b7e      	ldr	r3, [pc, #504]	; (20d8 <STACK_SIZE+0xd8>)
    1ee0:	4798      	blx	r3
    1ee2:	ab0e      	add	r3, sp, #56	; 0x38
    1ee4:	801d      	strh	r5, [r3, #0]
    1ee6:	8a23      	ldrh	r3, [r4, #16]
    1ee8:	3014      	adds	r0, #20
    1eea:	9302      	str	r3, [sp, #8]
    1eec:	2380      	movs	r3, #128	; 0x80
    1eee:	9a02      	ldr	r2, [sp, #8]
    1ef0:	01db      	lsls	r3, r3, #7
    1ef2:	429a      	cmp	r2, r3
    1ef4:	d014      	beq.n	1f20 <usart_init+0xc8>
    1ef6:	d808      	bhi.n	1f0a <usart_init+0xb2>
    1ef8:	2380      	movs	r3, #128	; 0x80
    1efa:	2610      	movs	r6, #16
    1efc:	019b      	lsls	r3, r3, #6
    1efe:	429a      	cmp	r2, r3
    1f00:	d100      	bne.n	1f04 <usart_init+0xac>
    1f02:	e0c8      	b.n	2096 <STACK_SIZE+0x96>
    1f04:	2610      	movs	r6, #16
    1f06:	2500      	movs	r5, #0
    1f08:	e00a      	b.n	1f20 <usart_init+0xc8>
    1f0a:	23c0      	movs	r3, #192	; 0xc0
    1f0c:	9a02      	ldr	r2, [sp, #8]
    1f0e:	01db      	lsls	r3, r3, #7
    1f10:	429a      	cmp	r2, r3
    1f12:	d100      	bne.n	1f16 <usart_init+0xbe>
    1f14:	e0be      	b.n	2094 <STACK_SIZE+0x94>
    1f16:	2380      	movs	r3, #128	; 0x80
    1f18:	2603      	movs	r6, #3
    1f1a:	021b      	lsls	r3, r3, #8
    1f1c:	429a      	cmp	r2, r3
    1f1e:	d1f1      	bne.n	1f04 <usart_init+0xac>
    1f20:	6823      	ldr	r3, [r4, #0]
    1f22:	9306      	str	r3, [sp, #24]
    1f24:	68e3      	ldr	r3, [r4, #12]
    1f26:	9307      	str	r3, [sp, #28]
    1f28:	6963      	ldr	r3, [r4, #20]
    1f2a:	9308      	str	r3, [sp, #32]
    1f2c:	7e23      	ldrb	r3, [r4, #24]
    1f2e:	9309      	str	r3, [sp, #36]	; 0x24
    1f30:	1de3      	adds	r3, r4, #7
    1f32:	7fdb      	ldrb	r3, [r3, #31]
    1f34:	930a      	str	r3, [sp, #40]	; 0x28
    1f36:	6863      	ldr	r3, [r4, #4]
    1f38:	9305      	str	r3, [sp, #20]
    1f3a:	0023      	movs	r3, r4
    1f3c:	9a05      	ldr	r2, [sp, #20]
    1f3e:	3308      	adds	r3, #8
    1f40:	2a00      	cmp	r2, #0
    1f42:	d100      	bne.n	1f46 <usart_init+0xee>
    1f44:	e0a9      	b.n	209a <STACK_SIZE+0x9a>
    1f46:	2280      	movs	r2, #128	; 0x80
    1f48:	9905      	ldr	r1, [sp, #20]
    1f4a:	0552      	lsls	r2, r2, #21
    1f4c:	4291      	cmp	r1, r2
    1f4e:	d10e      	bne.n	1f6e <usart_init+0x116>
    1f50:	7fdb      	ldrb	r3, [r3, #31]
    1f52:	2b00      	cmp	r3, #0
    1f54:	d10b      	bne.n	1f6e <usart_init+0x116>
    1f56:	4b65      	ldr	r3, [pc, #404]	; (20ec <STACK_SIZE+0xec>)
    1f58:	b2c0      	uxtb	r0, r0
    1f5a:	6a25      	ldr	r5, [r4, #32]
    1f5c:	4798      	blx	r3
    1f5e:	aa0e      	add	r2, sp, #56	; 0x38
    1f60:	0001      	movs	r1, r0
    1f62:	4b63      	ldr	r3, [pc, #396]	; (20f0 <STACK_SIZE+0xf0>)
    1f64:	0028      	movs	r0, r5
    1f66:	4798      	blx	r3
    1f68:	2800      	cmp	r0, #0
    1f6a:	d000      	beq.n	1f6e <usart_init+0x116>
    1f6c:	e090      	b.n	2090 <STACK_SIZE+0x90>
    1f6e:	7e63      	ldrb	r3, [r4, #25]
    1f70:	2b00      	cmp	r3, #0
    1f72:	d002      	beq.n	1f7a <usart_init+0x122>
    1f74:	7ea3      	ldrb	r3, [r4, #26]
    1f76:	9a03      	ldr	r2, [sp, #12]
    1f78:	7393      	strb	r3, [r2, #14]
    1f7a:	ae0e      	add	r6, sp, #56	; 0x38
    1f7c:	8833      	ldrh	r3, [r6, #0]
    1f7e:	9a03      	ldr	r2, [sp, #12]
    1f80:	8193      	strh	r3, [r2, #12]
    1f82:	9a07      	ldr	r2, [sp, #28]
    1f84:	9b06      	ldr	r3, [sp, #24]
    1f86:	4313      	orrs	r3, r2
    1f88:	9a08      	ldr	r2, [sp, #32]
    1f8a:	4313      	orrs	r3, r2
    1f8c:	9a05      	ldr	r2, [sp, #20]
    1f8e:	4313      	orrs	r3, r2
    1f90:	9a02      	ldr	r2, [sp, #8]
    1f92:	4313      	orrs	r3, r2
    1f94:	9a09      	ldr	r2, [sp, #36]	; 0x24
    1f96:	0212      	lsls	r2, r2, #8
    1f98:	4313      	orrs	r3, r2
    1f9a:	9a0a      	ldr	r2, [sp, #40]	; 0x28
    1f9c:	0752      	lsls	r2, r2, #29
    1f9e:	4313      	orrs	r3, r2
    1fa0:	0022      	movs	r2, r4
    1fa2:	3208      	adds	r2, #8
    1fa4:	7fd2      	ldrb	r2, [r2, #31]
    1fa6:	2a00      	cmp	r2, #0
    1fa8:	d101      	bne.n	1fae <usart_init+0x156>
    1faa:	3204      	adds	r2, #4
    1fac:	4313      	orrs	r3, r2
    1fae:	7e62      	ldrb	r2, [r4, #25]
    1fb0:	7f21      	ldrb	r1, [r4, #28]
    1fb2:	0292      	lsls	r2, r2, #10
    1fb4:	0249      	lsls	r1, r1, #9
    1fb6:	430a      	orrs	r2, r1
    1fb8:	7f61      	ldrb	r1, [r4, #29]
    1fba:	7ae0      	ldrb	r0, [r4, #11]
    1fbc:	0209      	lsls	r1, r1, #8
    1fbe:	430a      	orrs	r2, r1
    1fc0:	1d61      	adds	r1, r4, #5
    1fc2:	7fc9      	ldrb	r1, [r1, #31]
    1fc4:	0449      	lsls	r1, r1, #17
    1fc6:	430a      	orrs	r2, r1
    1fc8:	1da1      	adds	r1, r4, #6
    1fca:	7fc9      	ldrb	r1, [r1, #31]
    1fcc:	0409      	lsls	r1, r1, #16
    1fce:	430a      	orrs	r2, r1
    1fd0:	7aa1      	ldrb	r1, [r4, #10]
    1fd2:	4301      	orrs	r1, r0
    1fd4:	430a      	orrs	r2, r1
    1fd6:	8921      	ldrh	r1, [r4, #8]
    1fd8:	29ff      	cmp	r1, #255	; 0xff
    1fda:	d100      	bne.n	1fde <usart_init+0x186>
    1fdc:	e073      	b.n	20c6 <STACK_SIZE+0xc6>
    1fde:	2080      	movs	r0, #128	; 0x80
    1fe0:	0440      	lsls	r0, r0, #17
    1fe2:	4303      	orrs	r3, r0
    1fe4:	430a      	orrs	r2, r1
    1fe6:	0021      	movs	r1, r4
    1fe8:	312c      	adds	r1, #44	; 0x2c
    1fea:	7809      	ldrb	r1, [r1, #0]
    1fec:	2900      	cmp	r1, #0
    1fee:	d103      	bne.n	1ff8 <usart_init+0x1a0>
    1ff0:	4940      	ldr	r1, [pc, #256]	; (20f4 <STACK_SIZE+0xf4>)
    1ff2:	7889      	ldrb	r1, [r1, #2]
    1ff4:	0789      	lsls	r1, r1, #30
    1ff6:	d501      	bpl.n	1ffc <usart_init+0x1a4>
    1ff8:	2180      	movs	r1, #128	; 0x80
    1ffa:	430b      	orrs	r3, r1
    1ffc:	6838      	ldr	r0, [r7, #0]
    1ffe:	69c1      	ldr	r1, [r0, #28]
    2000:	2900      	cmp	r1, #0
    2002:	d1fc      	bne.n	1ffe <usart_init+0x1a6>
    2004:	9903      	ldr	r1, [sp, #12]
    2006:	604a      	str	r2, [r1, #4]
    2008:	6839      	ldr	r1, [r7, #0]
    200a:	69ca      	ldr	r2, [r1, #28]
    200c:	2a00      	cmp	r2, #0
    200e:	d1fc      	bne.n	200a <STACK_SIZE+0xa>
    2010:	9903      	ldr	r1, [sp, #12]
    2012:	ad0d      	add	r5, sp, #52	; 0x34
    2014:	600b      	str	r3, [r1, #0]
    2016:	2380      	movs	r3, #128	; 0x80
    2018:	702b      	strb	r3, [r5, #0]
    201a:	6b23      	ldr	r3, [r4, #48]	; 0x30
    201c:	706a      	strb	r2, [r5, #1]
    201e:	930e      	str	r3, [sp, #56]	; 0x38
    2020:	6b63      	ldr	r3, [r4, #52]	; 0x34
    2022:	70ea      	strb	r2, [r5, #3]
    2024:	6073      	str	r3, [r6, #4]
    2026:	6ba3      	ldr	r3, [r4, #56]	; 0x38
    2028:	70aa      	strb	r2, [r5, #2]
    202a:	60b3      	str	r3, [r6, #8]
    202c:	6be3      	ldr	r3, [r4, #60]	; 0x3c
    202e:	0014      	movs	r4, r2
    2030:	60f3      	str	r3, [r6, #12]
    2032:	00a3      	lsls	r3, r4, #2
    2034:	58f0      	ldr	r0, [r6, r3]
    2036:	b2e1      	uxtb	r1, r4
    2038:	2800      	cmp	r0, #0
    203a:	d102      	bne.n	2042 <STACK_SIZE+0x42>
    203c:	9804      	ldr	r0, [sp, #16]
    203e:	4b2e      	ldr	r3, [pc, #184]	; (20f8 <STACK_SIZE+0xf8>)
    2040:	4798      	blx	r3
    2042:	1c43      	adds	r3, r0, #1
    2044:	d005      	beq.n	2052 <STACK_SIZE+0x52>
    2046:	7028      	strb	r0, [r5, #0]
    2048:	0c00      	lsrs	r0, r0, #16
    204a:	b2c0      	uxtb	r0, r0
    204c:	0029      	movs	r1, r5
    204e:	4b2b      	ldr	r3, [pc, #172]	; (20fc <STACK_SIZE+0xfc>)
    2050:	4798      	blx	r3
    2052:	3401      	adds	r4, #1
    2054:	2c04      	cmp	r4, #4
    2056:	d1ec      	bne.n	2032 <STACK_SIZE+0x32>
    2058:	003b      	movs	r3, r7
    205a:	2400      	movs	r4, #0
    205c:	3330      	adds	r3, #48	; 0x30
    205e:	85fc      	strh	r4, [r7, #46]	; 0x2e
    2060:	60fc      	str	r4, [r7, #12]
    2062:	613c      	str	r4, [r7, #16]
    2064:	617c      	str	r4, [r7, #20]
    2066:	61bc      	str	r4, [r7, #24]
    2068:	61fc      	str	r4, [r7, #28]
    206a:	623c      	str	r4, [r7, #32]
    206c:	62bc      	str	r4, [r7, #40]	; 0x28
    206e:	627c      	str	r4, [r7, #36]	; 0x24
    2070:	85bc      	strh	r4, [r7, #44]	; 0x2c
    2072:	709c      	strb	r4, [r3, #2]
    2074:	701c      	strb	r4, [r3, #0]
    2076:	705c      	strb	r4, [r3, #1]
    2078:	70dc      	strb	r4, [r3, #3]
    207a:	6838      	ldr	r0, [r7, #0]
    207c:	4b16      	ldr	r3, [pc, #88]	; (20d8 <STACK_SIZE+0xd8>)
    207e:	4798      	blx	r3
    2080:	0005      	movs	r5, r0
    2082:	4b1f      	ldr	r3, [pc, #124]	; (2100 <STACK_SIZE+0x100>)
    2084:	491f      	ldr	r1, [pc, #124]	; (2104 <STACK_SIZE+0x104>)
    2086:	4798      	blx	r3
    2088:	0020      	movs	r0, r4
    208a:	4b1f      	ldr	r3, [pc, #124]	; (2108 <STACK_SIZE+0x108>)
    208c:	00ad      	lsls	r5, r5, #2
    208e:	50ef      	str	r7, [r5, r3]
    2090:	b013      	add	sp, #76	; 0x4c
    2092:	bdf0      	pop	{r4, r5, r6, r7, pc}
    2094:	2608      	movs	r6, #8
    2096:	2501      	movs	r5, #1
    2098:	e742      	b.n	1f20 <usart_init+0xc8>
    209a:	7fdb      	ldrb	r3, [r3, #31]
    209c:	2b00      	cmp	r3, #0
    209e:	d007      	beq.n	20b0 <STACK_SIZE+0xb0>
    20a0:	002b      	movs	r3, r5
    20a2:	9600      	str	r6, [sp, #0]
    20a4:	6aa1      	ldr	r1, [r4, #40]	; 0x28
    20a6:	6a20      	ldr	r0, [r4, #32]
    20a8:	aa0e      	add	r2, sp, #56	; 0x38
    20aa:	4d18      	ldr	r5, [pc, #96]	; (210c <STACK_SIZE+0x10c>)
    20ac:	47a8      	blx	r5
    20ae:	e75b      	b.n	1f68 <usart_init+0x110>
    20b0:	6a23      	ldr	r3, [r4, #32]
    20b2:	b2c0      	uxtb	r0, r0
    20b4:	930b      	str	r3, [sp, #44]	; 0x2c
    20b6:	4b0d      	ldr	r3, [pc, #52]	; (20ec <STACK_SIZE+0xec>)
    20b8:	4798      	blx	r3
    20ba:	9600      	str	r6, [sp, #0]
    20bc:	0001      	movs	r1, r0
    20be:	002b      	movs	r3, r5
    20c0:	aa0e      	add	r2, sp, #56	; 0x38
    20c2:	980b      	ldr	r0, [sp, #44]	; 0x2c
    20c4:	e7f1      	b.n	20aa <STACK_SIZE+0xaa>
    20c6:	7ee1      	ldrb	r1, [r4, #27]
    20c8:	2900      	cmp	r1, #0
    20ca:	d100      	bne.n	20ce <STACK_SIZE+0xce>
    20cc:	e78b      	b.n	1fe6 <usart_init+0x18e>
    20ce:	2180      	movs	r1, #128	; 0x80
    20d0:	04c9      	lsls	r1, r1, #19
    20d2:	430b      	orrs	r3, r1
    20d4:	e787      	b.n	1fe6 <usart_init+0x18e>
    20d6:	46c0      	nop			; (mov r8, r8)
    20d8:	00001721 	.word	0x00001721
    20dc:	40000400 	.word	0x40000400
    20e0:	00002909 	.word	0x00002909
    20e4:	00002881 	.word	0x00002881
    20e8:	00001581 	.word	0x00001581
    20ec:	00002925 	.word	0x00002925
    20f0:	000014c1 	.word	0x000014c1
    20f4:	41002000 	.word	0x41002000
    20f8:	000015c5 	.word	0x000015c5
    20fc:	000029dd 	.word	0x000029dd
    2100:	00001755 	.word	0x00001755
    2104:	0000219d 	.word	0x0000219d
    2108:	2000017c 	.word	0x2000017c
    210c:	000014e9 	.word	0x000014e9

00002110 <usart_write_wait>:
    2110:	79c2      	ldrb	r2, [r0, #7]
    2112:	231c      	movs	r3, #28
    2114:	2a00      	cmp	r2, #0
    2116:	d00a      	beq.n	212e <usart_write_wait+0x1e>
    2118:	8dc2      	ldrh	r2, [r0, #46]	; 0x2e
    211a:	3b17      	subs	r3, #23
    211c:	2a00      	cmp	r2, #0
    211e:	d106      	bne.n	212e <usart_write_wait+0x1e>
    2120:	6803      	ldr	r3, [r0, #0]
    2122:	3202      	adds	r2, #2
    2124:	8519      	strh	r1, [r3, #40]	; 0x28
    2126:	7e19      	ldrb	r1, [r3, #24]
    2128:	4211      	tst	r1, r2
    212a:	d0fc      	beq.n	2126 <usart_write_wait+0x16>
    212c:	2300      	movs	r3, #0
    212e:	0018      	movs	r0, r3
    2130:	4770      	bx	lr

00002132 <usart_read_wait>:
    2132:	b510      	push	{r4, lr}
    2134:	7982      	ldrb	r2, [r0, #6]
    2136:	231c      	movs	r3, #28
    2138:	2a00      	cmp	r2, #0
    213a:	d011      	beq.n	2160 <usart_read_wait+0x2e>
    213c:	8d82      	ldrh	r2, [r0, #44]	; 0x2c
    213e:	3b17      	subs	r3, #23
    2140:	2a00      	cmp	r2, #0
    2142:	d10d      	bne.n	2160 <usart_read_wait+0x2e>
    2144:	6802      	ldr	r2, [r0, #0]
    2146:	2004      	movs	r0, #4
    2148:	7e14      	ldrb	r4, [r2, #24]
    214a:	4204      	tst	r4, r0
    214c:	d008      	beq.n	2160 <usart_read_wait+0x2e>
    214e:	8b53      	ldrh	r3, [r2, #26]
    2150:	b2db      	uxtb	r3, r3
    2152:	069c      	lsls	r4, r3, #26
    2154:	d01d      	beq.n	2192 <usart_read_wait+0x60>
    2156:	2402      	movs	r4, #2
    2158:	4223      	tst	r3, r4
    215a:	d003      	beq.n	2164 <usart_read_wait+0x32>
    215c:	231a      	movs	r3, #26
    215e:	8354      	strh	r4, [r2, #26]
    2160:	0018      	movs	r0, r3
    2162:	bd10      	pop	{r4, pc}
    2164:	4203      	tst	r3, r0
    2166:	d002      	beq.n	216e <usart_read_wait+0x3c>
    2168:	8350      	strh	r0, [r2, #26]
    216a:	231e      	movs	r3, #30
    216c:	e7f8      	b.n	2160 <usart_read_wait+0x2e>
    216e:	2001      	movs	r0, #1
    2170:	4203      	tst	r3, r0
    2172:	d002      	beq.n	217a <usart_read_wait+0x48>
    2174:	8350      	strh	r0, [r2, #26]
    2176:	2313      	movs	r3, #19
    2178:	e7f2      	b.n	2160 <usart_read_wait+0x2e>
    217a:	2010      	movs	r0, #16
    217c:	4203      	tst	r3, r0
    217e:	d002      	beq.n	2186 <usart_read_wait+0x54>
    2180:	8350      	strh	r0, [r2, #26]
    2182:	2342      	movs	r3, #66	; 0x42
    2184:	e7ec      	b.n	2160 <usart_read_wait+0x2e>
    2186:	2020      	movs	r0, #32
    2188:	4203      	tst	r3, r0
    218a:	d002      	beq.n	2192 <usart_read_wait+0x60>
    218c:	8350      	strh	r0, [r2, #26]
    218e:	2341      	movs	r3, #65	; 0x41
    2190:	e7e6      	b.n	2160 <usart_read_wait+0x2e>
    2192:	8d13      	ldrh	r3, [r2, #40]	; 0x28
    2194:	800b      	strh	r3, [r1, #0]
    2196:	2300      	movs	r3, #0
    2198:	e7e2      	b.n	2160 <usart_read_wait+0x2e>
	...

0000219c <_usart_interrupt_handler>:
    219c:	b5f8      	push	{r3, r4, r5, r6, r7, lr}
    219e:	4b58      	ldr	r3, [pc, #352]	; (2300 <_usart_interrupt_handler+0x164>)
    21a0:	0080      	lsls	r0, r0, #2
    21a2:	58c4      	ldr	r4, [r0, r3]
    21a4:	6825      	ldr	r5, [r4, #0]
    21a6:	69eb      	ldr	r3, [r5, #28]
    21a8:	2b00      	cmp	r3, #0
    21aa:	d1fc      	bne.n	21a6 <_usart_interrupt_handler+0xa>
    21ac:	7e2b      	ldrb	r3, [r5, #24]
    21ae:	7daf      	ldrb	r7, [r5, #22]
    21b0:	401f      	ands	r7, r3
    21b2:	0023      	movs	r3, r4
    21b4:	3330      	adds	r3, #48	; 0x30
    21b6:	781a      	ldrb	r2, [r3, #0]
    21b8:	785e      	ldrb	r6, [r3, #1]
    21ba:	2301      	movs	r3, #1
    21bc:	4016      	ands	r6, r2
    21be:	421f      	tst	r7, r3
    21c0:	d019      	beq.n	21f6 <_usart_interrupt_handler+0x5a>
    21c2:	8de2      	ldrh	r2, [r4, #46]	; 0x2e
    21c4:	2a00      	cmp	r2, #0
    21c6:	d100      	bne.n	21ca <_usart_interrupt_handler+0x2e>
    21c8:	e072      	b.n	22b0 <_usart_interrupt_handler+0x114>
    21ca:	6aa2      	ldr	r2, [r4, #40]	; 0x28
    21cc:	1c51      	adds	r1, r2, #1
    21ce:	7813      	ldrb	r3, [r2, #0]
    21d0:	62a1      	str	r1, [r4, #40]	; 0x28
    21d2:	7961      	ldrb	r1, [r4, #5]
    21d4:	b2db      	uxtb	r3, r3
    21d6:	2901      	cmp	r1, #1
    21d8:	d064      	beq.n	22a4 <_usart_interrupt_handler+0x108>
    21da:	b29b      	uxth	r3, r3
    21dc:	05db      	lsls	r3, r3, #23
    21de:	0ddb      	lsrs	r3, r3, #23
    21e0:	852b      	strh	r3, [r5, #40]	; 0x28
    21e2:	8de3      	ldrh	r3, [r4, #46]	; 0x2e
    21e4:	3b01      	subs	r3, #1
    21e6:	b29b      	uxth	r3, r3
    21e8:	85e3      	strh	r3, [r4, #46]	; 0x2e
    21ea:	2b00      	cmp	r3, #0
    21ec:	d103      	bne.n	21f6 <_usart_interrupt_handler+0x5a>
    21ee:	3301      	adds	r3, #1
    21f0:	752b      	strb	r3, [r5, #20]
    21f2:	3301      	adds	r3, #1
    21f4:	75ab      	strb	r3, [r5, #22]
    21f6:	2302      	movs	r3, #2
    21f8:	421f      	tst	r7, r3
    21fa:	d009      	beq.n	2210 <_usart_interrupt_handler+0x74>
    21fc:	752b      	strb	r3, [r5, #20]
    21fe:	0023      	movs	r3, r4
    2200:	2200      	movs	r2, #0
    2202:	3333      	adds	r3, #51	; 0x33
    2204:	701a      	strb	r2, [r3, #0]
    2206:	07f3      	lsls	r3, r6, #31
    2208:	d502      	bpl.n	2210 <_usart_interrupt_handler+0x74>
    220a:	0020      	movs	r0, r4
    220c:	68e3      	ldr	r3, [r4, #12]
    220e:	4798      	blx	r3
    2210:	2304      	movs	r3, #4
    2212:	421f      	tst	r7, r3
    2214:	d027      	beq.n	2266 <_usart_interrupt_handler+0xca>
    2216:	8da2      	ldrh	r2, [r4, #44]	; 0x2c
    2218:	2a00      	cmp	r2, #0
    221a:	d100      	bne.n	221e <_usart_interrupt_handler+0x82>
    221c:	e06d      	b.n	22fa <_usart_interrupt_handler+0x15e>
    221e:	8b6b      	ldrh	r3, [r5, #26]
    2220:	b2db      	uxtb	r3, r3
    2222:	071a      	lsls	r2, r3, #28
    2224:	d446      	bmi.n	22b4 <_usart_interrupt_handler+0x118>
    2226:	223f      	movs	r2, #63	; 0x3f
    2228:	4013      	ands	r3, r2
    222a:	d045      	beq.n	22b8 <_usart_interrupt_handler+0x11c>
    222c:	2202      	movs	r2, #2
    222e:	211a      	movs	r1, #26
    2230:	4213      	tst	r3, r2
    2232:	d10f      	bne.n	2254 <_usart_interrupt_handler+0xb8>
    2234:	2204      	movs	r2, #4
    2236:	211e      	movs	r1, #30
    2238:	4213      	tst	r3, r2
    223a:	d10b      	bne.n	2254 <_usart_interrupt_handler+0xb8>
    223c:	2201      	movs	r2, #1
    223e:	2113      	movs	r1, #19
    2240:	4213      	tst	r3, r2
    2242:	d107      	bne.n	2254 <_usart_interrupt_handler+0xb8>
    2244:	2210      	movs	r2, #16
    2246:	2142      	movs	r1, #66	; 0x42
    2248:	4213      	tst	r3, r2
    224a:	d103      	bne.n	2254 <_usart_interrupt_handler+0xb8>
    224c:	2220      	movs	r2, #32
    224e:	4213      	tst	r3, r2
    2250:	d004      	beq.n	225c <_usart_interrupt_handler+0xc0>
    2252:	2141      	movs	r1, #65	; 0x41
    2254:	0023      	movs	r3, r4
    2256:	3332      	adds	r3, #50	; 0x32
    2258:	7019      	strb	r1, [r3, #0]
    225a:	836a      	strh	r2, [r5, #26]
    225c:	0773      	lsls	r3, r6, #29
    225e:	d502      	bpl.n	2266 <_usart_interrupt_handler+0xca>
    2260:	0020      	movs	r0, r4
    2262:	6963      	ldr	r3, [r4, #20]
    2264:	4798      	blx	r3
    2266:	2310      	movs	r3, #16
    2268:	421f      	tst	r7, r3
    226a:	d006      	beq.n	227a <_usart_interrupt_handler+0xde>
    226c:	752b      	strb	r3, [r5, #20]
    226e:	762b      	strb	r3, [r5, #24]
    2270:	421e      	tst	r6, r3
    2272:	d002      	beq.n	227a <_usart_interrupt_handler+0xde>
    2274:	0020      	movs	r0, r4
    2276:	69e3      	ldr	r3, [r4, #28]
    2278:	4798      	blx	r3
    227a:	2320      	movs	r3, #32
    227c:	421f      	tst	r7, r3
    227e:	d006      	beq.n	228e <_usart_interrupt_handler+0xf2>
    2280:	752b      	strb	r3, [r5, #20]
    2282:	762b      	strb	r3, [r5, #24]
    2284:	0733      	lsls	r3, r6, #28
    2286:	d502      	bpl.n	228e <_usart_interrupt_handler+0xf2>
    2288:	0020      	movs	r0, r4
    228a:	69a3      	ldr	r3, [r4, #24]
    228c:	4798      	blx	r3
    228e:	2308      	movs	r3, #8
    2290:	421f      	tst	r7, r3
    2292:	d006      	beq.n	22a2 <_usart_interrupt_handler+0x106>
    2294:	752b      	strb	r3, [r5, #20]
    2296:	762b      	strb	r3, [r5, #24]
    2298:	06b3      	lsls	r3, r6, #26
    229a:	d502      	bpl.n	22a2 <_usart_interrupt_handler+0x106>
    229c:	6a23      	ldr	r3, [r4, #32]
    229e:	0020      	movs	r0, r4
    22a0:	4798      	blx	r3
    22a2:	bdf8      	pop	{r3, r4, r5, r6, r7, pc}
    22a4:	7851      	ldrb	r1, [r2, #1]
    22a6:	3202      	adds	r2, #2
    22a8:	0209      	lsls	r1, r1, #8
    22aa:	430b      	orrs	r3, r1
    22ac:	62a2      	str	r2, [r4, #40]	; 0x28
    22ae:	e795      	b.n	21dc <_usart_interrupt_handler+0x40>
    22b0:	752b      	strb	r3, [r5, #20]
    22b2:	e7a0      	b.n	21f6 <_usart_interrupt_handler+0x5a>
    22b4:	2237      	movs	r2, #55	; 0x37
    22b6:	e7b7      	b.n	2228 <_usart_interrupt_handler+0x8c>
    22b8:	8d2b      	ldrh	r3, [r5, #40]	; 0x28
    22ba:	6a61      	ldr	r1, [r4, #36]	; 0x24
    22bc:	05db      	lsls	r3, r3, #23
    22be:	0ddb      	lsrs	r3, r3, #23
    22c0:	b2da      	uxtb	r2, r3
    22c2:	700a      	strb	r2, [r1, #0]
    22c4:	6a62      	ldr	r2, [r4, #36]	; 0x24
    22c6:	1c51      	adds	r1, r2, #1
    22c8:	6261      	str	r1, [r4, #36]	; 0x24
    22ca:	7961      	ldrb	r1, [r4, #5]
    22cc:	2901      	cmp	r1, #1
    22ce:	d104      	bne.n	22da <_usart_interrupt_handler+0x13e>
    22d0:	0a1b      	lsrs	r3, r3, #8
    22d2:	7053      	strb	r3, [r2, #1]
    22d4:	6a63      	ldr	r3, [r4, #36]	; 0x24
    22d6:	3301      	adds	r3, #1
    22d8:	6263      	str	r3, [r4, #36]	; 0x24
    22da:	8da3      	ldrh	r3, [r4, #44]	; 0x2c
    22dc:	3b01      	subs	r3, #1
    22de:	b29b      	uxth	r3, r3
    22e0:	85a3      	strh	r3, [r4, #44]	; 0x2c
    22e2:	2b00      	cmp	r3, #0
    22e4:	d1bf      	bne.n	2266 <_usart_interrupt_handler+0xca>
    22e6:	2204      	movs	r2, #4
    22e8:	752a      	strb	r2, [r5, #20]
    22ea:	0022      	movs	r2, r4
    22ec:	3232      	adds	r2, #50	; 0x32
    22ee:	7013      	strb	r3, [r2, #0]
    22f0:	07b3      	lsls	r3, r6, #30
    22f2:	d5b8      	bpl.n	2266 <_usart_interrupt_handler+0xca>
    22f4:	0020      	movs	r0, r4
    22f6:	6923      	ldr	r3, [r4, #16]
    22f8:	e7b4      	b.n	2264 <_usart_interrupt_handler+0xc8>
    22fa:	752b      	strb	r3, [r5, #20]
    22fc:	e7b3      	b.n	2266 <_usart_interrupt_handler+0xca>
    22fe:	46c0      	nop			; (mov r8, r8)
    2300:	2000017c 	.word	0x2000017c

00002304 <_system_dfll_wait_for_sync>:
    2304:	2310      	movs	r3, #16
    2306:	4902      	ldr	r1, [pc, #8]	; (2310 <_system_dfll_wait_for_sync+0xc>)
    2308:	68ca      	ldr	r2, [r1, #12]
    230a:	421a      	tst	r2, r3
    230c:	d0fc      	beq.n	2308 <_system_dfll_wait_for_sync+0x4>
    230e:	4770      	bx	lr
    2310:	40000800 	.word	0x40000800

00002314 <system_clock_source_enable.part.0>:
    2314:	2202      	movs	r2, #2
    2316:	b5f8      	push	{r3, r4, r5, r6, r7, lr}
    2318:	2600      	movs	r6, #0
    231a:	4d09      	ldr	r5, [pc, #36]	; (2340 <system_clock_source_enable.part.0+0x2c>)
    231c:	4c09      	ldr	r4, [pc, #36]	; (2344 <system_clock_source_enable.part.0+0x30>)
    231e:	682b      	ldr	r3, [r5, #0]
    2320:	4f09      	ldr	r7, [pc, #36]	; (2348 <system_clock_source_enable.part.0+0x34>)
    2322:	4313      	orrs	r3, r2
    2324:	602b      	str	r3, [r5, #0]
    2326:	84a2      	strh	r2, [r4, #36]	; 0x24
    2328:	47b8      	blx	r7
    232a:	68ab      	ldr	r3, [r5, #8]
    232c:	62e3      	str	r3, [r4, #44]	; 0x2c
    232e:	686b      	ldr	r3, [r5, #4]
    2330:	62a3      	str	r3, [r4, #40]	; 0x28
    2332:	84a6      	strh	r6, [r4, #36]	; 0x24
    2334:	47b8      	blx	r7
    2336:	682b      	ldr	r3, [r5, #0]
    2338:	0030      	movs	r0, r6
    233a:	b29b      	uxth	r3, r3
    233c:	84a3      	strh	r3, [r4, #36]	; 0x24
    233e:	bdf8      	pop	{r3, r4, r5, r6, r7, pc}
    2340:	20000130 	.word	0x20000130
    2344:	40000800 	.word	0x40000800
    2348:	00002305 	.word	0x00002305

0000234c <system_clock_source_get_hz>:
    234c:	b570      	push	{r4, r5, r6, lr}
    234e:	2808      	cmp	r0, #8
    2350:	d806      	bhi.n	2360 <system_clock_source_get_hz+0x14>
    2352:	f002 f8a3 	bl	449c <__gnu_thumb1_case_uqi>
    2356:	0508      	.short	0x0508
    2358:	12303005 	.word	0x12303005
    235c:	150b      	.short	0x150b
    235e:	28          	.byte	0x28
    235f:	00          	.byte	0x00
    2360:	2400      	movs	r4, #0
    2362:	0020      	movs	r0, r4
    2364:	bd70      	pop	{r4, r5, r6, pc}
    2366:	4b16      	ldr	r3, [pc, #88]	; (23c0 <system_clock_source_get_hz+0x74>)
    2368:	691c      	ldr	r4, [r3, #16]
    236a:	e7fa      	b.n	2362 <system_clock_source_get_hz+0x16>
    236c:	4b15      	ldr	r3, [pc, #84]	; (23c4 <system_clock_source_get_hz+0x78>)
    236e:	4c16      	ldr	r4, [pc, #88]	; (23c8 <system_clock_source_get_hz+0x7c>)
    2370:	6a1b      	ldr	r3, [r3, #32]
    2372:	059b      	lsls	r3, r3, #22
    2374:	0f9b      	lsrs	r3, r3, #30
    2376:	40dc      	lsrs	r4, r3
    2378:	e7f3      	b.n	2362 <system_clock_source_get_hz+0x16>
    237a:	4b11      	ldr	r3, [pc, #68]	; (23c0 <system_clock_source_get_hz+0x74>)
    237c:	695c      	ldr	r4, [r3, #20]
    237e:	e7f0      	b.n	2362 <system_clock_source_get_hz+0x16>
    2380:	4d0f      	ldr	r5, [pc, #60]	; (23c0 <system_clock_source_get_hz+0x74>)
    2382:	2400      	movs	r4, #0
    2384:	682b      	ldr	r3, [r5, #0]
    2386:	079b      	lsls	r3, r3, #30
    2388:	d5eb      	bpl.n	2362 <system_clock_source_get_hz+0x16>
    238a:	4b10      	ldr	r3, [pc, #64]	; (23cc <system_clock_source_get_hz+0x80>)
    238c:	4798      	blx	r3
    238e:	2224      	movs	r2, #36	; 0x24
    2390:	682b      	ldr	r3, [r5, #0]
    2392:	4013      	ands	r3, r2
    2394:	2b04      	cmp	r3, #4
    2396:	d111      	bne.n	23bc <system_clock_source_get_hz+0x70>
    2398:	0020      	movs	r0, r4
    239a:	4b0d      	ldr	r3, [pc, #52]	; (23d0 <system_clock_source_get_hz+0x84>)
    239c:	4798      	blx	r3
    239e:	68ac      	ldr	r4, [r5, #8]
    23a0:	b2a4      	uxth	r4, r4
    23a2:	4344      	muls	r4, r0
    23a4:	e7dd      	b.n	2362 <system_clock_source_get_hz+0x16>
    23a6:	4b0b      	ldr	r3, [pc, #44]	; (23d4 <system_clock_source_get_hz+0x88>)
    23a8:	2400      	movs	r4, #0
    23aa:	781b      	ldrb	r3, [r3, #0]
    23ac:	075b      	lsls	r3, r3, #29
    23ae:	d5d8      	bpl.n	2362 <system_clock_source_get_hz+0x16>
    23b0:	4b03      	ldr	r3, [pc, #12]	; (23c0 <system_clock_source_get_hz+0x74>)
    23b2:	68dc      	ldr	r4, [r3, #12]
    23b4:	e7d5      	b.n	2362 <system_clock_source_get_hz+0x16>
    23b6:	2480      	movs	r4, #128	; 0x80
    23b8:	0224      	lsls	r4, r4, #8
    23ba:	e7d2      	b.n	2362 <system_clock_source_get_hz+0x16>
    23bc:	4c06      	ldr	r4, [pc, #24]	; (23d8 <system_clock_source_get_hz+0x8c>)
    23be:	e7d0      	b.n	2362 <system_clock_source_get_hz+0x16>
    23c0:	20000130 	.word	0x20000130
    23c4:	40000800 	.word	0x40000800
    23c8:	007a1200 	.word	0x007a1200
    23cc:	00002305 	.word	0x00002305
    23d0:	00002925 	.word	0x00002925
    23d4:	40000850 	.word	0x40000850
    23d8:	02dc6c00 	.word	0x02dc6c00

000023dc <system_clock_source_osc8m_set_config>:
    23dc:	b570      	push	{r4, r5, r6, lr}
    23de:	7884      	ldrb	r4, [r0, #2]
    23e0:	7802      	ldrb	r2, [r0, #0]
    23e2:	7845      	ldrb	r5, [r0, #1]
    23e4:	2001      	movs	r0, #1
    23e6:	2640      	movs	r6, #64	; 0x40
    23e8:	4005      	ands	r5, r0
    23ea:	4020      	ands	r0, r4
    23ec:	2480      	movs	r4, #128	; 0x80
    23ee:	4908      	ldr	r1, [pc, #32]	; (2410 <system_clock_source_osc8m_set_config+0x34>)
    23f0:	01ad      	lsls	r5, r5, #6
    23f2:	6a0b      	ldr	r3, [r1, #32]
    23f4:	01c0      	lsls	r0, r0, #7
    23f6:	43b3      	bics	r3, r6
    23f8:	432b      	orrs	r3, r5
    23fa:	43a3      	bics	r3, r4
    23fc:	4303      	orrs	r3, r0
    23fe:	2003      	movs	r0, #3
    2400:	4002      	ands	r2, r0
    2402:	4804      	ldr	r0, [pc, #16]	; (2414 <system_clock_source_osc8m_set_config+0x38>)
    2404:	0212      	lsls	r2, r2, #8
    2406:	4003      	ands	r3, r0
    2408:	4313      	orrs	r3, r2
    240a:	620b      	str	r3, [r1, #32]
    240c:	bd70      	pop	{r4, r5, r6, pc}
    240e:	46c0      	nop			; (mov r8, r8)
    2410:	40000800 	.word	0x40000800
    2414:	fffffcff 	.word	0xfffffcff

00002418 <system_clock_source_xosc32k_set_config>:
    2418:	b5f0      	push	{r4, r5, r6, r7, lr}
    241a:	4b22      	ldr	r3, [pc, #136]	; (24a4 <system_clock_source_xosc32k_set_config+0x8c>)
    241c:	7842      	ldrb	r2, [r0, #1]
    241e:	7807      	ldrb	r7, [r0, #0]
    2420:	b085      	sub	sp, #20
    2422:	469c      	mov	ip, r3
    2424:	8a9b      	ldrh	r3, [r3, #20]
    2426:	9203      	str	r2, [sp, #12]
    2428:	427a      	negs	r2, r7
    242a:	4157      	adcs	r7, r2
    242c:	7b42      	ldrb	r2, [r0, #13]
    242e:	7884      	ldrb	r4, [r0, #2]
    2430:	78c5      	ldrb	r5, [r0, #3]
    2432:	7906      	ldrb	r6, [r0, #4]
    2434:	9201      	str	r2, [sp, #4]
    2436:	7b02      	ldrb	r2, [r0, #12]
    2438:	9202      	str	r2, [sp, #8]
    243a:	7b81      	ldrb	r1, [r0, #14]
    243c:	4a1a      	ldr	r2, [pc, #104]	; (24a8 <system_clock_source_xosc32k_set_config+0x90>)
    243e:	6880      	ldr	r0, [r0, #8]
    2440:	6150      	str	r0, [r2, #20]
    2442:	00b8      	lsls	r0, r7, #2
    2444:	2704      	movs	r7, #4
    2446:	2201      	movs	r2, #1
    2448:	43bb      	bics	r3, r7
    244a:	4318      	orrs	r0, r3
    244c:	2308      	movs	r3, #8
    244e:	4015      	ands	r5, r2
    2450:	40bd      	lsls	r5, r7
    2452:	4016      	ands	r6, r2
    2454:	4398      	bics	r0, r3
    2456:	00f6      	lsls	r6, r6, #3
    2458:	4306      	orrs	r6, r0
    245a:	18db      	adds	r3, r3, r3
    245c:	439e      	bics	r6, r3
    245e:	4335      	orrs	r5, r6
    2460:	3310      	adds	r3, #16
    2462:	439d      	bics	r5, r3
    2464:	002b      	movs	r3, r5
    2466:	2040      	movs	r0, #64	; 0x40
    2468:	4014      	ands	r4, r2
    246a:	0164      	lsls	r4, r4, #5
    246c:	4323      	orrs	r3, r4
    246e:	9c02      	ldr	r4, [sp, #8]
    2470:	4383      	bics	r3, r0
    2472:	4014      	ands	r4, r2
    2474:	01a4      	lsls	r4, r4, #6
    2476:	4323      	orrs	r3, r4
    2478:	2480      	movs	r4, #128	; 0x80
    247a:	9801      	ldr	r0, [sp, #4]
    247c:	43a3      	bics	r3, r4
    247e:	4010      	ands	r0, r2
    2480:	01c0      	lsls	r0, r0, #7
    2482:	4303      	orrs	r3, r0
    2484:	2007      	movs	r0, #7
    2486:	9c03      	ldr	r4, [sp, #12]
    2488:	4011      	ands	r1, r2
    248a:	4020      	ands	r0, r4
    248c:	4c07      	ldr	r4, [pc, #28]	; (24ac <system_clock_source_xosc32k_set_config+0x94>)
    248e:	0200      	lsls	r0, r0, #8
    2490:	4023      	ands	r3, r4
    2492:	4a07      	ldr	r2, [pc, #28]	; (24b0 <system_clock_source_xosc32k_set_config+0x98>)
    2494:	4303      	orrs	r3, r0
    2496:	401a      	ands	r2, r3
    2498:	4663      	mov	r3, ip
    249a:	0309      	lsls	r1, r1, #12
    249c:	430a      	orrs	r2, r1
    249e:	829a      	strh	r2, [r3, #20]
    24a0:	b005      	add	sp, #20
    24a2:	bdf0      	pop	{r4, r5, r6, r7, pc}
    24a4:	40000800 	.word	0x40000800
    24a8:	20000130 	.word	0x20000130
    24ac:	fffff8ff 	.word	0xfffff8ff
    24b0:	ffffefff 	.word	0xffffefff

000024b4 <system_clock_source_dfll_set_config>:
    24b4:	b510      	push	{r4, lr}
    24b6:	7a02      	ldrb	r2, [r0, #8]
    24b8:	8943      	ldrh	r3, [r0, #10]
    24ba:	0692      	lsls	r2, r2, #26
    24bc:	059b      	lsls	r3, r3, #22
    24be:	0d9b      	lsrs	r3, r3, #22
    24c0:	0c12      	lsrs	r2, r2, #16
    24c2:	431a      	orrs	r2, r3
    24c4:	4b17      	ldr	r3, [pc, #92]	; (2524 <system_clock_source_dfll_set_config+0x70>)
    24c6:	605a      	str	r2, [r3, #4]
    24c8:	79c1      	ldrb	r1, [r0, #7]
    24ca:	7982      	ldrb	r2, [r0, #6]
    24cc:	8884      	ldrh	r4, [r0, #4]
    24ce:	430a      	orrs	r2, r1
    24d0:	8841      	ldrh	r1, [r0, #2]
    24d2:	4321      	orrs	r1, r4
    24d4:	430a      	orrs	r2, r1
    24d6:	7841      	ldrb	r1, [r0, #1]
    24d8:	7804      	ldrb	r4, [r0, #0]
    24da:	01c9      	lsls	r1, r1, #7
    24dc:	430a      	orrs	r2, r1
    24de:	601a      	str	r2, [r3, #0]
    24e0:	2c04      	cmp	r4, #4
    24e2:	d10d      	bne.n	2500 <system_clock_source_dfll_set_config+0x4c>
    24e4:	7b02      	ldrb	r2, [r0, #12]
    24e6:	8a01      	ldrh	r1, [r0, #16]
    24e8:	0692      	lsls	r2, r2, #26
    24ea:	430a      	orrs	r2, r1
    24ec:	89c1      	ldrh	r1, [r0, #14]
    24ee:	480e      	ldr	r0, [pc, #56]	; (2528 <system_clock_source_dfll_set_config+0x74>)
    24f0:	0409      	lsls	r1, r1, #16
    24f2:	4001      	ands	r1, r0
    24f4:	430a      	orrs	r2, r1
    24f6:	609a      	str	r2, [r3, #8]
    24f8:	681a      	ldr	r2, [r3, #0]
    24fa:	4314      	orrs	r4, r2
    24fc:	601c      	str	r4, [r3, #0]
    24fe:	bd10      	pop	{r4, pc}
    2500:	2c20      	cmp	r4, #32
    2502:	d1fc      	bne.n	24fe <system_clock_source_dfll_set_config+0x4a>
    2504:	7b02      	ldrb	r2, [r0, #12]
    2506:	8a01      	ldrh	r1, [r0, #16]
    2508:	0692      	lsls	r2, r2, #26
    250a:	430a      	orrs	r2, r1
    250c:	89c1      	ldrh	r1, [r0, #14]
    250e:	4806      	ldr	r0, [pc, #24]	; (2528 <system_clock_source_dfll_set_config+0x74>)
    2510:	0409      	lsls	r1, r1, #16
    2512:	4001      	ands	r1, r0
    2514:	430a      	orrs	r2, r1
    2516:	609a      	str	r2, [r3, #8]
    2518:	6819      	ldr	r1, [r3, #0]
    251a:	4a04      	ldr	r2, [pc, #16]	; (252c <system_clock_source_dfll_set_config+0x78>)
    251c:	430a      	orrs	r2, r1
    251e:	601a      	str	r2, [r3, #0]
    2520:	e7ed      	b.n	24fe <system_clock_source_dfll_set_config+0x4a>
    2522:	46c0      	nop			; (mov r8, r8)
    2524:	20000130 	.word	0x20000130
    2528:	03ff0000 	.word	0x03ff0000
    252c:	00000424 	.word	0x00000424

00002530 <system_clock_source_enable>:
    2530:	b510      	push	{r4, lr}
    2532:	2808      	cmp	r0, #8
    2534:	d806      	bhi.n	2544 <system_clock_source_enable+0x14>
    2536:	f001 ffb1 	bl	449c <__gnu_thumb1_case_uqi>
    253a:	0514      	.short	0x0514
    253c:	1a0e0c05 	.word	0x1a0e0c05
    2540:	2007      	.short	0x2007
    2542:	23          	.byte	0x23
    2543:	00          	.byte	0x00
    2544:	2017      	movs	r0, #23
    2546:	bd10      	pop	{r4, pc}
    2548:	2302      	movs	r3, #2
    254a:	4a10      	ldr	r2, [pc, #64]	; (258c <system_clock_source_enable+0x5c>)
    254c:	6a11      	ldr	r1, [r2, #32]
    254e:	430b      	orrs	r3, r1
    2550:	6213      	str	r3, [r2, #32]
    2552:	2000      	movs	r0, #0
    2554:	e7f7      	b.n	2546 <system_clock_source_enable+0x16>
    2556:	2302      	movs	r3, #2
    2558:	4a0c      	ldr	r2, [pc, #48]	; (258c <system_clock_source_enable+0x5c>)
    255a:	6991      	ldr	r1, [r2, #24]
    255c:	430b      	orrs	r3, r1
    255e:	6193      	str	r3, [r2, #24]
    2560:	e7f7      	b.n	2552 <system_clock_source_enable+0x22>
    2562:	2302      	movs	r3, #2
    2564:	4a09      	ldr	r2, [pc, #36]	; (258c <system_clock_source_enable+0x5c>)
    2566:	8a11      	ldrh	r1, [r2, #16]
    2568:	430b      	orrs	r3, r1
    256a:	8213      	strh	r3, [r2, #16]
    256c:	e7f1      	b.n	2552 <system_clock_source_enable+0x22>
    256e:	2302      	movs	r3, #2
    2570:	4a06      	ldr	r2, [pc, #24]	; (258c <system_clock_source_enable+0x5c>)
    2572:	8a91      	ldrh	r1, [r2, #20]
    2574:	430b      	orrs	r3, r1
    2576:	8293      	strh	r3, [r2, #20]
    2578:	e7eb      	b.n	2552 <system_clock_source_enable+0x22>
    257a:	4b05      	ldr	r3, [pc, #20]	; (2590 <system_clock_source_enable+0x60>)
    257c:	4798      	blx	r3
    257e:	e7e2      	b.n	2546 <system_clock_source_enable+0x16>
    2580:	2302      	movs	r3, #2
    2582:	4a04      	ldr	r2, [pc, #16]	; (2594 <system_clock_source_enable+0x64>)
    2584:	7811      	ldrb	r1, [r2, #0]
    2586:	430b      	orrs	r3, r1
    2588:	7013      	strb	r3, [r2, #0]
    258a:	e7e2      	b.n	2552 <system_clock_source_enable+0x22>
    258c:	40000800 	.word	0x40000800
    2590:	00002315 	.word	0x00002315
    2594:	40000844 	.word	0x40000844

00002598 <system_clock_init>:
    2598:	23c2      	movs	r3, #194	; 0xc2
    259a:	221e      	movs	r2, #30
    259c:	b5f0      	push	{r4, r5, r6, r7, lr}
    259e:	4f44      	ldr	r7, [pc, #272]	; (26b0 <system_clock_init+0x118>)
    25a0:	00db      	lsls	r3, r3, #3
    25a2:	4944      	ldr	r1, [pc, #272]	; (26b4 <system_clock_init+0x11c>)
    25a4:	60bb      	str	r3, [r7, #8]
    25a6:	684b      	ldr	r3, [r1, #4]
    25a8:	2400      	movs	r4, #0
    25aa:	4393      	bics	r3, r2
    25ac:	001a      	movs	r2, r3
    25ae:	2304      	movs	r3, #4
    25b0:	4313      	orrs	r3, r2
    25b2:	604b      	str	r3, [r1, #4]
    25b4:	2302      	movs	r3, #2
    25b6:	b08f      	sub	sp, #60	; 0x3c
    25b8:	ad09      	add	r5, sp, #36	; 0x24
    25ba:	702b      	strb	r3, [r5, #0]
    25bc:	b2e0      	uxtb	r0, r4
    25be:	0029      	movs	r1, r5
    25c0:	4b3d      	ldr	r3, [pc, #244]	; (26b8 <system_clock_init+0x120>)
    25c2:	3401      	adds	r4, #1
    25c4:	4798      	blx	r3
    25c6:	2c25      	cmp	r4, #37	; 0x25
    25c8:	d1f8      	bne.n	25bc <system_clock_init+0x24>
    25ca:	2280      	movs	r2, #128	; 0x80
    25cc:	a805      	add	r0, sp, #20
    25ce:	2300      	movs	r3, #0
    25d0:	0212      	lsls	r2, r2, #8
    25d2:	6082      	str	r2, [r0, #8]
    25d4:	2106      	movs	r1, #6
    25d6:	2201      	movs	r2, #1
    25d8:	7003      	strb	r3, [r0, #0]
    25da:	7083      	strb	r3, [r0, #2]
    25dc:	70c3      	strb	r3, [r0, #3]
    25de:	7383      	strb	r3, [r0, #14]
    25e0:	7343      	strb	r3, [r0, #13]
    25e2:	4b36      	ldr	r3, [pc, #216]	; (26bc <system_clock_init+0x124>)
    25e4:	7102      	strb	r2, [r0, #4]
    25e6:	7041      	strb	r1, [r0, #1]
    25e8:	7302      	strb	r2, [r0, #12]
    25ea:	4798      	blx	r3
    25ec:	2005      	movs	r0, #5
    25ee:	4c34      	ldr	r4, [pc, #208]	; (26c0 <system_clock_init+0x128>)
    25f0:	47a0      	blx	r4
    25f2:	2302      	movs	r3, #2
    25f4:	68fa      	ldr	r2, [r7, #12]
    25f6:	421a      	tst	r2, r3
    25f8:	d0fc      	beq.n	25f4 <system_clock_init+0x5c>
    25fa:	2300      	movs	r3, #0
    25fc:	223f      	movs	r2, #63	; 0x3f
    25fe:	806b      	strh	r3, [r5, #2]
    2600:	80ab      	strh	r3, [r5, #4]
    2602:	71ab      	strb	r3, [r5, #6]
    2604:	71eb      	strb	r3, [r5, #7]
    2606:	816a      	strh	r2, [r5, #10]
    2608:	706b      	strb	r3, [r5, #1]
    260a:	3a3b      	subs	r2, #59	; 0x3b
    260c:	4b2d      	ldr	r3, [pc, #180]	; (26c4 <system_clock_init+0x12c>)
    260e:	702a      	strb	r2, [r5, #0]
    2610:	681b      	ldr	r3, [r3, #0]
    2612:	0e9b      	lsrs	r3, r3, #26
    2614:	2b3f      	cmp	r3, #63	; 0x3f
    2616:	d100      	bne.n	261a <system_clock_init+0x82>
    2618:	3b20      	subs	r3, #32
    261a:	722b      	strb	r3, [r5, #8]
    261c:	23b7      	movs	r3, #183	; 0xb7
    261e:	00db      	lsls	r3, r3, #3
    2620:	822b      	strh	r3, [r5, #16]
    2622:	2303      	movs	r3, #3
    2624:	732b      	strb	r3, [r5, #12]
    2626:	331c      	adds	r3, #28
    2628:	2601      	movs	r6, #1
    262a:	81eb      	strh	r3, [r5, #14]
    262c:	0028      	movs	r0, r5
    262e:	2500      	movs	r5, #0
    2630:	4b25      	ldr	r3, [pc, #148]	; (26c8 <system_clock_init+0x130>)
    2632:	4798      	blx	r3
    2634:	a801      	add	r0, sp, #4
    2636:	4b25      	ldr	r3, [pc, #148]	; (26cc <system_clock_init+0x134>)
    2638:	7086      	strb	r6, [r0, #2]
    263a:	7005      	strb	r5, [r0, #0]
    263c:	7046      	strb	r6, [r0, #1]
    263e:	4798      	blx	r3
    2640:	2006      	movs	r0, #6
    2642:	47a0      	blx	r4
    2644:	4b22      	ldr	r3, [pc, #136]	; (26d0 <system_clock_init+0x138>)
    2646:	4798      	blx	r3
    2648:	2305      	movs	r3, #5
    264a:	ac02      	add	r4, sp, #8
    264c:	0021      	movs	r1, r4
    264e:	7023      	strb	r3, [r4, #0]
    2650:	0030      	movs	r0, r6
    2652:	4b20      	ldr	r3, [pc, #128]	; (26d4 <system_clock_init+0x13c>)
    2654:	6066      	str	r6, [r4, #4]
    2656:	7065      	strb	r5, [r4, #1]
    2658:	7225      	strb	r5, [r4, #8]
    265a:	7265      	strb	r5, [r4, #9]
    265c:	4798      	blx	r3
    265e:	0030      	movs	r0, r6
    2660:	4b1d      	ldr	r3, [pc, #116]	; (26d8 <system_clock_init+0x140>)
    2662:	4798      	blx	r3
    2664:	0021      	movs	r1, r4
    2666:	0028      	movs	r0, r5
    2668:	4b13      	ldr	r3, [pc, #76]	; (26b8 <system_clock_init+0x120>)
    266a:	7026      	strb	r6, [r4, #0]
    266c:	4798      	blx	r3
    266e:	0028      	movs	r0, r5
    2670:	4b1a      	ldr	r3, [pc, #104]	; (26dc <system_clock_init+0x144>)
    2672:	4798      	blx	r3
    2674:	4b1a      	ldr	r3, [pc, #104]	; (26e0 <system_clock_init+0x148>)
    2676:	4798      	blx	r3
    2678:	22d0      	movs	r2, #208	; 0xd0
    267a:	68fb      	ldr	r3, [r7, #12]
    267c:	4013      	ands	r3, r2
    267e:	2bd0      	cmp	r3, #208	; 0xd0
    2680:	d1fb      	bne.n	267a <system_clock_init+0xe2>
    2682:	2500      	movs	r5, #0
    2684:	4b17      	ldr	r3, [pc, #92]	; (26e4 <system_clock_init+0x14c>)
    2686:	2207      	movs	r2, #7
    2688:	721d      	strb	r5, [r3, #8]
    268a:	725d      	strb	r5, [r3, #9]
    268c:	729d      	strb	r5, [r3, #10]
    268e:	72dd      	strb	r5, [r3, #11]
    2690:	2301      	movs	r3, #1
    2692:	0021      	movs	r1, r4
    2694:	6063      	str	r3, [r4, #4]
    2696:	7223      	strb	r3, [r4, #8]
    2698:	0028      	movs	r0, r5
    269a:	4b0e      	ldr	r3, [pc, #56]	; (26d4 <system_clock_init+0x13c>)
    269c:	7022      	strb	r2, [r4, #0]
    269e:	7065      	strb	r5, [r4, #1]
    26a0:	7265      	strb	r5, [r4, #9]
    26a2:	4798      	blx	r3
    26a4:	0028      	movs	r0, r5
    26a6:	4b0c      	ldr	r3, [pc, #48]	; (26d8 <system_clock_init+0x140>)
    26a8:	4798      	blx	r3
    26aa:	b00f      	add	sp, #60	; 0x3c
    26ac:	bdf0      	pop	{r4, r5, r6, r7, pc}
    26ae:	46c0      	nop			; (mov r8, r8)
    26b0:	40000800 	.word	0x40000800
    26b4:	41004000 	.word	0x41004000
    26b8:	00002909 	.word	0x00002909
    26bc:	00002419 	.word	0x00002419
    26c0:	00002531 	.word	0x00002531
    26c4:	00806024 	.word	0x00806024
    26c8:	000024b5 	.word	0x000024b5
    26cc:	000023dd 	.word	0x000023dd
    26d0:	000026f5 	.word	0x000026f5
    26d4:	00002715 	.word	0x00002715
    26d8:	000027b9 	.word	0x000027b9
    26dc:	00002881 	.word	0x00002881
    26e0:	00002315 	.word	0x00002315
    26e4:	40000400 	.word	0x40000400

000026e8 <system_gclk_is_syncing>:
    26e8:	4b01      	ldr	r3, [pc, #4]	; (26f0 <system_gclk_is_syncing+0x8>)
    26ea:	7858      	ldrb	r0, [r3, #1]
    26ec:	09c0      	lsrs	r0, r0, #7
    26ee:	4770      	bx	lr
    26f0:	40000c00 	.word	0x40000c00

000026f4 <system_gclk_init>:
    26f4:	2308      	movs	r3, #8
    26f6:	4a05      	ldr	r2, [pc, #20]	; (270c <system_gclk_init+0x18>)
    26f8:	6991      	ldr	r1, [r2, #24]
    26fa:	430b      	orrs	r3, r1
    26fc:	6193      	str	r3, [r2, #24]
    26fe:	2301      	movs	r3, #1
    2700:	4a03      	ldr	r2, [pc, #12]	; (2710 <system_gclk_init+0x1c>)
    2702:	7013      	strb	r3, [r2, #0]
    2704:	7811      	ldrb	r1, [r2, #0]
    2706:	4219      	tst	r1, r3
    2708:	d1fc      	bne.n	2704 <system_gclk_init+0x10>
    270a:	4770      	bx	lr
    270c:	40000400 	.word	0x40000400
    2710:	40000c00 	.word	0x40000c00

00002714 <system_gclk_gen_set_config>:
    2714:	b5f8      	push	{r3, r4, r5, r6, r7, lr}
    2716:	780c      	ldrb	r4, [r1, #0]
    2718:	784b      	ldrb	r3, [r1, #1]
    271a:	0224      	lsls	r4, r4, #8
    271c:	0006      	movs	r6, r0
    271e:	0005      	movs	r5, r0
    2720:	4304      	orrs	r4, r0
    2722:	2b00      	cmp	r3, #0
    2724:	d002      	beq.n	272c <system_gclk_gen_set_config+0x18>
    2726:	2380      	movs	r3, #128	; 0x80
    2728:	02db      	lsls	r3, r3, #11
    272a:	431c      	orrs	r4, r3
    272c:	7a4b      	ldrb	r3, [r1, #9]
    272e:	2b00      	cmp	r3, #0
    2730:	d002      	beq.n	2738 <system_gclk_gen_set_config+0x24>
    2732:	2380      	movs	r3, #128	; 0x80
    2734:	031b      	lsls	r3, r3, #12
    2736:	431c      	orrs	r4, r3
    2738:	684b      	ldr	r3, [r1, #4]
    273a:	2b01      	cmp	r3, #1
    273c:	d912      	bls.n	2764 <system_gclk_gen_set_config+0x50>
    273e:	1e5d      	subs	r5, r3, #1
    2740:	401d      	ands	r5, r3
    2742:	2202      	movs	r2, #2
    2744:	2d00      	cmp	r5, #0
    2746:	d006      	beq.n	2756 <system_gclk_gen_set_config+0x42>
    2748:	021d      	lsls	r5, r3, #8
    274a:	2380      	movs	r3, #128	; 0x80
    274c:	4335      	orrs	r5, r6
    274e:	029b      	lsls	r3, r3, #10
    2750:	e007      	b.n	2762 <system_gclk_gen_set_config+0x4e>
    2752:	3501      	adds	r5, #1
    2754:	0052      	lsls	r2, r2, #1
    2756:	429a      	cmp	r2, r3
    2758:	d3fb      	bcc.n	2752 <system_gclk_gen_set_config+0x3e>
    275a:	2380      	movs	r3, #128	; 0x80
    275c:	022d      	lsls	r5, r5, #8
    275e:	4335      	orrs	r5, r6
    2760:	035b      	lsls	r3, r3, #13
    2762:	431c      	orrs	r4, r3
    2764:	7a0b      	ldrb	r3, [r1, #8]
    2766:	2b00      	cmp	r3, #0
    2768:	d002      	beq.n	2770 <system_gclk_gen_set_config+0x5c>
    276a:	2380      	movs	r3, #128	; 0x80
    276c:	039b      	lsls	r3, r3, #14
    276e:	431c      	orrs	r4, r3
    2770:	4f0c      	ldr	r7, [pc, #48]	; (27a4 <system_gclk_gen_set_config+0x90>)
    2772:	47b8      	blx	r7
    2774:	2800      	cmp	r0, #0
    2776:	d1fb      	bne.n	2770 <system_gclk_gen_set_config+0x5c>
    2778:	4b0b      	ldr	r3, [pc, #44]	; (27a8 <system_gclk_gen_set_config+0x94>)
    277a:	4798      	blx	r3
    277c:	4b0b      	ldr	r3, [pc, #44]	; (27ac <system_gclk_gen_set_config+0x98>)
    277e:	701e      	strb	r6, [r3, #0]
    2780:	47b8      	blx	r7
    2782:	2800      	cmp	r0, #0
    2784:	d1fc      	bne.n	2780 <system_gclk_gen_set_config+0x6c>
    2786:	4b0a      	ldr	r3, [pc, #40]	; (27b0 <system_gclk_gen_set_config+0x9c>)
    2788:	609d      	str	r5, [r3, #8]
    278a:	001d      	movs	r5, r3
    278c:	47b8      	blx	r7
    278e:	2800      	cmp	r0, #0
    2790:	d1fc      	bne.n	278c <system_gclk_gen_set_config+0x78>
    2792:	2280      	movs	r2, #128	; 0x80
    2794:	686b      	ldr	r3, [r5, #4]
    2796:	0252      	lsls	r2, r2, #9
    2798:	4013      	ands	r3, r2
    279a:	431c      	orrs	r4, r3
    279c:	606c      	str	r4, [r5, #4]
    279e:	4b05      	ldr	r3, [pc, #20]	; (27b4 <system_gclk_gen_set_config+0xa0>)
    27a0:	4798      	blx	r3
    27a2:	bdf8      	pop	{r3, r4, r5, r6, r7, pc}
    27a4:	000026e9 	.word	0x000026e9
    27a8:	000011c5 	.word	0x000011c5
    27ac:	40000c08 	.word	0x40000c08
    27b0:	40000c00 	.word	0x40000c00
    27b4:	000011f9 	.word	0x000011f9

000027b8 <system_gclk_gen_enable>:
    27b8:	b570      	push	{r4, r5, r6, lr}
    27ba:	0005      	movs	r5, r0
    27bc:	4c09      	ldr	r4, [pc, #36]	; (27e4 <system_gclk_gen_enable+0x2c>)
    27be:	47a0      	blx	r4
    27c0:	2800      	cmp	r0, #0
    27c2:	d1fb      	bne.n	27bc <system_gclk_gen_enable+0x4>
    27c4:	4b08      	ldr	r3, [pc, #32]	; (27e8 <system_gclk_gen_enable+0x30>)
    27c6:	4798      	blx	r3
    27c8:	4b08      	ldr	r3, [pc, #32]	; (27ec <system_gclk_gen_enable+0x34>)
    27ca:	701d      	strb	r5, [r3, #0]
    27cc:	47a0      	blx	r4
    27ce:	2800      	cmp	r0, #0
    27d0:	d1fc      	bne.n	27cc <system_gclk_gen_enable+0x14>
    27d2:	2380      	movs	r3, #128	; 0x80
    27d4:	4a06      	ldr	r2, [pc, #24]	; (27f0 <system_gclk_gen_enable+0x38>)
    27d6:	025b      	lsls	r3, r3, #9
    27d8:	6851      	ldr	r1, [r2, #4]
    27da:	430b      	orrs	r3, r1
    27dc:	6053      	str	r3, [r2, #4]
    27de:	4b05      	ldr	r3, [pc, #20]	; (27f4 <system_gclk_gen_enable+0x3c>)
    27e0:	4798      	blx	r3
    27e2:	bd70      	pop	{r4, r5, r6, pc}
    27e4:	000026e9 	.word	0x000026e9
    27e8:	000011c5 	.word	0x000011c5
    27ec:	40000c04 	.word	0x40000c04
    27f0:	40000c00 	.word	0x40000c00
    27f4:	000011f9 	.word	0x000011f9

000027f8 <system_gclk_gen_get_hz>:
    27f8:	b5f7      	push	{r0, r1, r2, r4, r5, r6, r7, lr}
    27fa:	0007      	movs	r7, r0
    27fc:	4e18      	ldr	r6, [pc, #96]	; (2860 <system_gclk_gen_get_hz+0x68>)
    27fe:	47b0      	blx	r6
    2800:	2800      	cmp	r0, #0
    2802:	d1fb      	bne.n	27fc <system_gclk_gen_get_hz+0x4>
    2804:	4b17      	ldr	r3, [pc, #92]	; (2864 <system_gclk_gen_get_hz+0x6c>)
    2806:	4798      	blx	r3
    2808:	4b17      	ldr	r3, [pc, #92]	; (2868 <system_gclk_gen_get_hz+0x70>)
    280a:	701f      	strb	r7, [r3, #0]
    280c:	9301      	str	r3, [sp, #4]
    280e:	47b0      	blx	r6
    2810:	2800      	cmp	r0, #0
    2812:	d1fc      	bne.n	280e <system_gclk_gen_get_hz+0x16>
    2814:	4d15      	ldr	r5, [pc, #84]	; (286c <system_gclk_gen_get_hz+0x74>)
    2816:	4b16      	ldr	r3, [pc, #88]	; (2870 <system_gclk_gen_get_hz+0x78>)
    2818:	6868      	ldr	r0, [r5, #4]
    281a:	04c0      	lsls	r0, r0, #19
    281c:	0ec0      	lsrs	r0, r0, #27
    281e:	4798      	blx	r3
    2820:	0004      	movs	r4, r0
    2822:	9b01      	ldr	r3, [sp, #4]
    2824:	701f      	strb	r7, [r3, #0]
    2826:	686b      	ldr	r3, [r5, #4]
    2828:	02db      	lsls	r3, r3, #11
    282a:	0fdb      	lsrs	r3, r3, #31
    282c:	9301      	str	r3, [sp, #4]
    282e:	4b11      	ldr	r3, [pc, #68]	; (2874 <system_gclk_gen_get_hz+0x7c>)
    2830:	701f      	strb	r7, [r3, #0]
    2832:	47b0      	blx	r6
    2834:	2800      	cmp	r0, #0
    2836:	d1fc      	bne.n	2832 <system_gclk_gen_get_hz+0x3a>
    2838:	68ad      	ldr	r5, [r5, #8]
    283a:	4b0f      	ldr	r3, [pc, #60]	; (2878 <system_gclk_gen_get_hz+0x80>)
    283c:	4798      	blx	r3
    283e:	9b01      	ldr	r3, [sp, #4]
    2840:	022d      	lsls	r5, r5, #8
    2842:	0c2d      	lsrs	r5, r5, #16
    2844:	2b00      	cmp	r3, #0
    2846:	d108      	bne.n	285a <system_gclk_gen_get_hz+0x62>
    2848:	2d01      	cmp	r5, #1
    284a:	d904      	bls.n	2856 <system_gclk_gen_get_hz+0x5e>
    284c:	0020      	movs	r0, r4
    284e:	0029      	movs	r1, r5
    2850:	4b0a      	ldr	r3, [pc, #40]	; (287c <system_gclk_gen_get_hz+0x84>)
    2852:	4798      	blx	r3
    2854:	0004      	movs	r4, r0
    2856:	0020      	movs	r0, r4
    2858:	bdfe      	pop	{r1, r2, r3, r4, r5, r6, r7, pc}
    285a:	3501      	adds	r5, #1
    285c:	40ec      	lsrs	r4, r5
    285e:	e7fa      	b.n	2856 <system_gclk_gen_get_hz+0x5e>
    2860:	000026e9 	.word	0x000026e9
    2864:	000011c5 	.word	0x000011c5
    2868:	40000c04 	.word	0x40000c04
    286c:	40000c00 	.word	0x40000c00
    2870:	0000234d 	.word	0x0000234d
    2874:	40000c08 	.word	0x40000c08
    2878:	000011f9 	.word	0x000011f9
    287c:	000044b1 	.word	0x000044b1

00002880 <system_gclk_chan_enable>:
    2880:	b510      	push	{r4, lr}
    2882:	0004      	movs	r4, r0
    2884:	4b06      	ldr	r3, [pc, #24]	; (28a0 <system_gclk_chan_enable+0x20>)
    2886:	4798      	blx	r3
    2888:	4b06      	ldr	r3, [pc, #24]	; (28a4 <system_gclk_chan_enable+0x24>)
    288a:	4a07      	ldr	r2, [pc, #28]	; (28a8 <system_gclk_chan_enable+0x28>)
    288c:	701c      	strb	r4, [r3, #0]
    288e:	2380      	movs	r3, #128	; 0x80
    2890:	8851      	ldrh	r1, [r2, #2]
    2892:	01db      	lsls	r3, r3, #7
    2894:	430b      	orrs	r3, r1
    2896:	8053      	strh	r3, [r2, #2]
    2898:	4b04      	ldr	r3, [pc, #16]	; (28ac <system_gclk_chan_enable+0x2c>)
    289a:	4798      	blx	r3
    289c:	bd10      	pop	{r4, pc}
    289e:	46c0      	nop			; (mov r8, r8)
    28a0:	000011c5 	.word	0x000011c5
    28a4:	40000c02 	.word	0x40000c02
    28a8:	40000c00 	.word	0x40000c00
    28ac:	000011f9 	.word	0x000011f9

000028b0 <system_gclk_chan_disable>:
    28b0:	b510      	push	{r4, lr}
    28b2:	0004      	movs	r4, r0
    28b4:	4b0e      	ldr	r3, [pc, #56]	; (28f0 <system_gclk_chan_disable+0x40>)
    28b6:	4798      	blx	r3
    28b8:	4b0e      	ldr	r3, [pc, #56]	; (28f4 <system_gclk_chan_disable+0x44>)
    28ba:	4a0f      	ldr	r2, [pc, #60]	; (28f8 <system_gclk_chan_disable+0x48>)
    28bc:	701c      	strb	r4, [r3, #0]
    28be:	4b0f      	ldr	r3, [pc, #60]	; (28fc <system_gclk_chan_disable+0x4c>)
    28c0:	4c0f      	ldr	r4, [pc, #60]	; (2900 <system_gclk_chan_disable+0x50>)
    28c2:	8858      	ldrh	r0, [r3, #2]
    28c4:	8859      	ldrh	r1, [r3, #2]
    28c6:	0500      	lsls	r0, r0, #20
    28c8:	4011      	ands	r1, r2
    28ca:	8059      	strh	r1, [r3, #2]
    28cc:	8859      	ldrh	r1, [r3, #2]
    28ce:	0f00      	lsrs	r0, r0, #28
    28d0:	4021      	ands	r1, r4
    28d2:	8059      	strh	r1, [r3, #2]
    28d4:	0011      	movs	r1, r2
    28d6:	2280      	movs	r2, #128	; 0x80
    28d8:	01d2      	lsls	r2, r2, #7
    28da:	885c      	ldrh	r4, [r3, #2]
    28dc:	4214      	tst	r4, r2
    28de:	d1fc      	bne.n	28da <system_gclk_chan_disable+0x2a>
    28e0:	885a      	ldrh	r2, [r3, #2]
    28e2:	0200      	lsls	r0, r0, #8
    28e4:	400a      	ands	r2, r1
    28e6:	4302      	orrs	r2, r0
    28e8:	805a      	strh	r2, [r3, #2]
    28ea:	4b06      	ldr	r3, [pc, #24]	; (2904 <system_gclk_chan_disable+0x54>)
    28ec:	4798      	blx	r3
    28ee:	bd10      	pop	{r4, pc}
    28f0:	000011c5 	.word	0x000011c5
    28f4:	40000c02 	.word	0x40000c02
    28f8:	fffff0ff 	.word	0xfffff0ff
    28fc:	40000c00 	.word	0x40000c00
    2900:	ffffbfff 	.word	0xffffbfff
    2904:	000011f9 	.word	0x000011f9

00002908 <system_gclk_chan_set_config>:
    2908:	b510      	push	{r4, lr}
    290a:	780c      	ldrb	r4, [r1, #0]
    290c:	4b03      	ldr	r3, [pc, #12]	; (291c <system_gclk_chan_set_config+0x14>)
    290e:	0224      	lsls	r4, r4, #8
    2910:	4304      	orrs	r4, r0
    2912:	4798      	blx	r3
    2914:	4b02      	ldr	r3, [pc, #8]	; (2920 <system_gclk_chan_set_config+0x18>)
    2916:	b2a4      	uxth	r4, r4
    2918:	805c      	strh	r4, [r3, #2]
    291a:	bd10      	pop	{r4, pc}
    291c:	000028b1 	.word	0x000028b1
    2920:	40000c00 	.word	0x40000c00

00002924 <system_gclk_chan_get_hz>:
    2924:	b510      	push	{r4, lr}
    2926:	0004      	movs	r4, r0
    2928:	4b06      	ldr	r3, [pc, #24]	; (2944 <system_gclk_chan_get_hz+0x20>)
    292a:	4798      	blx	r3
    292c:	4b06      	ldr	r3, [pc, #24]	; (2948 <system_gclk_chan_get_hz+0x24>)
    292e:	701c      	strb	r4, [r3, #0]
    2930:	4b06      	ldr	r3, [pc, #24]	; (294c <system_gclk_chan_get_hz+0x28>)
    2932:	885c      	ldrh	r4, [r3, #2]
    2934:	4b06      	ldr	r3, [pc, #24]	; (2950 <system_gclk_chan_get_hz+0x2c>)
    2936:	0524      	lsls	r4, r4, #20
    2938:	0f24      	lsrs	r4, r4, #28
    293a:	4798      	blx	r3
    293c:	0020      	movs	r0, r4
    293e:	4b05      	ldr	r3, [pc, #20]	; (2954 <system_gclk_chan_get_hz+0x30>)
    2940:	4798      	blx	r3
    2942:	bd10      	pop	{r4, pc}
    2944:	000011c5 	.word	0x000011c5
    2948:	40000c02 	.word	0x40000c02
    294c:	40000c00 	.word	0x40000c00
    2950:	000011f9 	.word	0x000011f9
    2954:	000027f9 	.word	0x000027f9

00002958 <_system_pinmux_config>:
    2958:	78d3      	ldrb	r3, [r2, #3]
    295a:	b530      	push	{r4, r5, lr}
    295c:	2b00      	cmp	r3, #0
    295e:	d135      	bne.n	29cc <_system_pinmux_config+0x74>
    2960:	7814      	ldrb	r4, [r2, #0]
    2962:	2c80      	cmp	r4, #128	; 0x80
    2964:	d003      	beq.n	296e <_system_pinmux_config+0x16>
    2966:	2380      	movs	r3, #128	; 0x80
    2968:	0624      	lsls	r4, r4, #24
    296a:	025b      	lsls	r3, r3, #9
    296c:	4323      	orrs	r3, r4
    296e:	2502      	movs	r5, #2
    2970:	7854      	ldrb	r4, [r2, #1]
    2972:	43ac      	bics	r4, r5
    2974:	d106      	bne.n	2984 <_system_pinmux_config+0x2c>
    2976:	7894      	ldrb	r4, [r2, #2]
    2978:	2c00      	cmp	r4, #0
    297a:	d124      	bne.n	29c6 <_system_pinmux_config+0x6e>
    297c:	2480      	movs	r4, #128	; 0x80
    297e:	02a4      	lsls	r4, r4, #10
    2980:	4323      	orrs	r3, r4
    2982:	6041      	str	r1, [r0, #4]
    2984:	7854      	ldrb	r4, [r2, #1]
    2986:	3c01      	subs	r4, #1
    2988:	2c01      	cmp	r4, #1
    298a:	d801      	bhi.n	2990 <_system_pinmux_config+0x38>
    298c:	4c12      	ldr	r4, [pc, #72]	; (29d8 <_system_pinmux_config+0x80>)
    298e:	4023      	ands	r3, r4
    2990:	24a0      	movs	r4, #160	; 0xa0
    2992:	b28d      	uxth	r5, r1
    2994:	05e4      	lsls	r4, r4, #23
    2996:	432c      	orrs	r4, r5
    2998:	431c      	orrs	r4, r3
    299a:	6284      	str	r4, [r0, #40]	; 0x28
    299c:	24d0      	movs	r4, #208	; 0xd0
    299e:	0c0d      	lsrs	r5, r1, #16
    29a0:	0624      	lsls	r4, r4, #24
    29a2:	432c      	orrs	r4, r5
    29a4:	431c      	orrs	r4, r3
    29a6:	6284      	str	r4, [r0, #40]	; 0x28
    29a8:	78d4      	ldrb	r4, [r2, #3]
    29aa:	2c00      	cmp	r4, #0
    29ac:	d10a      	bne.n	29c4 <_system_pinmux_config+0x6c>
    29ae:	035b      	lsls	r3, r3, #13
    29b0:	d503      	bpl.n	29ba <_system_pinmux_config+0x62>
    29b2:	7893      	ldrb	r3, [r2, #2]
    29b4:	2b01      	cmp	r3, #1
    29b6:	d10c      	bne.n	29d2 <_system_pinmux_config+0x7a>
    29b8:	6181      	str	r1, [r0, #24]
    29ba:	7853      	ldrb	r3, [r2, #1]
    29bc:	3b01      	subs	r3, #1
    29be:	2b01      	cmp	r3, #1
    29c0:	d800      	bhi.n	29c4 <_system_pinmux_config+0x6c>
    29c2:	6081      	str	r1, [r0, #8]
    29c4:	bd30      	pop	{r4, r5, pc}
    29c6:	24c0      	movs	r4, #192	; 0xc0
    29c8:	02e4      	lsls	r4, r4, #11
    29ca:	e7d9      	b.n	2980 <_system_pinmux_config+0x28>
    29cc:	6041      	str	r1, [r0, #4]
    29ce:	2300      	movs	r3, #0
    29d0:	e7de      	b.n	2990 <_system_pinmux_config+0x38>
    29d2:	6141      	str	r1, [r0, #20]
    29d4:	e7f1      	b.n	29ba <_system_pinmux_config+0x62>
    29d6:	46c0      	nop			; (mov r8, r8)
    29d8:	fffbffff 	.word	0xfffbffff

000029dc <system_pinmux_pin_set_config>:
    29dc:	b510      	push	{r4, lr}
    29de:	0003      	movs	r3, r0
    29e0:	000a      	movs	r2, r1
    29e2:	0944      	lsrs	r4, r0, #5
    29e4:	09c1      	lsrs	r1, r0, #7
    29e6:	2000      	movs	r0, #0
    29e8:	4281      	cmp	r1, r0
    29ea:	d102      	bne.n	29f2 <system_pinmux_pin_set_config+0x16>
    29ec:	4904      	ldr	r1, [pc, #16]	; (2a00 <system_pinmux_pin_set_config+0x24>)
    29ee:	01e0      	lsls	r0, r4, #7
    29f0:	1840      	adds	r0, r0, r1
    29f2:	211f      	movs	r1, #31
    29f4:	400b      	ands	r3, r1
    29f6:	391e      	subs	r1, #30
    29f8:	4099      	lsls	r1, r3
    29fa:	4b02      	ldr	r3, [pc, #8]	; (2a04 <system_pinmux_pin_set_config+0x28>)
    29fc:	4798      	blx	r3
    29fe:	bd10      	pop	{r4, pc}
    2a00:	41004400 	.word	0x41004400
    2a04:	00002959 	.word	0x00002959

00002a08 <_system_dummy_init>:
    2a08:	4770      	bx	lr
	...

00002a0c <system_init>:
    2a0c:	b510      	push	{r4, lr}
    2a0e:	4b05      	ldr	r3, [pc, #20]	; (2a24 <system_init+0x18>)
    2a10:	4798      	blx	r3
    2a12:	4b05      	ldr	r3, [pc, #20]	; (2a28 <system_init+0x1c>)
    2a14:	4798      	blx	r3
    2a16:	4b05      	ldr	r3, [pc, #20]	; (2a2c <system_init+0x20>)
    2a18:	4798      	blx	r3
    2a1a:	4b05      	ldr	r3, [pc, #20]	; (2a30 <system_init+0x24>)
    2a1c:	4798      	blx	r3
    2a1e:	4b05      	ldr	r3, [pc, #20]	; (2a34 <system_init+0x28>)
    2a20:	4798      	blx	r3
    2a22:	bd10      	pop	{r4, pc}
    2a24:	00002599 	.word	0x00002599
    2a28:	00001229 	.word	0x00001229
    2a2c:	00002a09 	.word	0x00002a09
    2a30:	00002a09 	.word	0x00002a09
    2a34:	00002a09 	.word	0x00002a09

00002a38 <Dummy_Handler>:
    2a38:	e7fe      	b.n	2a38 <Dummy_Handler>
	...

00002a3c <Reset_Handler>:
    2a3c:	4821      	ldr	r0, [pc, #132]	; (2ac4 <Reset_Handler+0x88>)
    2a3e:	4922      	ldr	r1, [pc, #136]	; (2ac8 <Reset_Handler+0x8c>)
    2a40:	b570      	push	{r4, r5, r6, lr}
    2a42:	4288      	cmp	r0, r1
    2a44:	d004      	beq.n	2a50 <Reset_Handler+0x14>
    2a46:	2300      	movs	r3, #0
    2a48:	4c20      	ldr	r4, [pc, #128]	; (2acc <Reset_Handler+0x90>)
    2a4a:	18ca      	adds	r2, r1, r3
    2a4c:	42a2      	cmp	r2, r4
    2a4e:	d332      	bcc.n	2ab6 <Reset_Handler+0x7a>
    2a50:	2100      	movs	r1, #0
    2a52:	4b1f      	ldr	r3, [pc, #124]	; (2ad0 <Reset_Handler+0x94>)
    2a54:	4a1f      	ldr	r2, [pc, #124]	; (2ad4 <Reset_Handler+0x98>)
    2a56:	4293      	cmp	r3, r2
    2a58:	d331      	bcc.n	2abe <Reset_Handler+0x82>
    2a5a:	21ff      	movs	r1, #255	; 0xff
    2a5c:	4b1e      	ldr	r3, [pc, #120]	; (2ad8 <Reset_Handler+0x9c>)
    2a5e:	4a1f      	ldr	r2, [pc, #124]	; (2adc <Reset_Handler+0xa0>)
    2a60:	438b      	bics	r3, r1
    2a62:	6093      	str	r3, [r2, #8]
    2a64:	2202      	movs	r2, #2
    2a66:	250c      	movs	r5, #12
    2a68:	2408      	movs	r4, #8
    2a6a:	2630      	movs	r6, #48	; 0x30
    2a6c:	4b1c      	ldr	r3, [pc, #112]	; (2ae0 <Reset_Handler+0xa4>)
    2a6e:	481d      	ldr	r0, [pc, #116]	; (2ae4 <Reset_Handler+0xa8>)
    2a70:	625a      	str	r2, [r3, #36]	; 0x24
    2a72:	78c3      	ldrb	r3, [r0, #3]
    2a74:	39fc      	subs	r1, #252	; 0xfc
    2a76:	438b      	bics	r3, r1
    2a78:	4313      	orrs	r3, r2
    2a7a:	70c3      	strb	r3, [r0, #3]
    2a7c:	78c3      	ldrb	r3, [r0, #3]
    2a7e:	43ab      	bics	r3, r5
    2a80:	4323      	orrs	r3, r4
    2a82:	70c3      	strb	r3, [r0, #3]
    2a84:	4b18      	ldr	r3, [pc, #96]	; (2ae8 <Reset_Handler+0xac>)
    2a86:	7b98      	ldrb	r0, [r3, #14]
    2a88:	43b0      	bics	r0, r6
    2a8a:	0006      	movs	r6, r0
    2a8c:	2020      	movs	r0, #32
    2a8e:	4330      	orrs	r0, r6
    2a90:	7398      	strb	r0, [r3, #14]
    2a92:	7b98      	ldrb	r0, [r3, #14]
    2a94:	43a8      	bics	r0, r5
    2a96:	4304      	orrs	r4, r0
    2a98:	739c      	strb	r4, [r3, #14]
    2a9a:	7b98      	ldrb	r0, [r3, #14]
    2a9c:	4388      	bics	r0, r1
    2a9e:	4302      	orrs	r2, r0
    2aa0:	739a      	strb	r2, [r3, #14]
    2aa2:	2380      	movs	r3, #128	; 0x80
    2aa4:	4a11      	ldr	r2, [pc, #68]	; (2aec <Reset_Handler+0xb0>)
    2aa6:	6851      	ldr	r1, [r2, #4]
    2aa8:	430b      	orrs	r3, r1
    2aaa:	6053      	str	r3, [r2, #4]
    2aac:	4b10      	ldr	r3, [pc, #64]	; (2af0 <Reset_Handler+0xb4>)
    2aae:	4798      	blx	r3
    2ab0:	4b10      	ldr	r3, [pc, #64]	; (2af4 <Reset_Handler+0xb8>)
    2ab2:	4798      	blx	r3
    2ab4:	e7fe      	b.n	2ab4 <Reset_Handler+0x78>
    2ab6:	58c5      	ldr	r5, [r0, r3]
    2ab8:	3304      	adds	r3, #4
    2aba:	6015      	str	r5, [r2, #0]
    2abc:	e7c5      	b.n	2a4a <Reset_Handler+0xe>
    2abe:	c302      	stmia	r3!, {r1}
    2ac0:	e7c9      	b.n	2a56 <Reset_Handler+0x1a>
    2ac2:	46c0      	nop			; (mov r8, r8)
    2ac4:	00006390 	.word	0x00006390
    2ac8:	20000000 	.word	0x20000000
    2acc:	20000098 	.word	0x20000098
    2ad0:	20000098 	.word	0x20000098
    2ad4:	200001e4 	.word	0x200001e4
    2ad8:	00000000 	.word	0x00000000
    2adc:	e000ed00 	.word	0xe000ed00
    2ae0:	410070fc 	.word	0x410070fc
    2ae4:	41005000 	.word	0x41005000
    2ae8:	41004800 	.word	0x41004800
    2aec:	41004000 	.word	0x41004000
    2af0:	00004a1d 	.word	0x00004a1d
    2af4:	00004239 	.word	0x00004239

00002af8 <_read>:
    2af8:	b570      	push	{r4, r5, r6, lr}
    2afa:	000e      	movs	r6, r1
    2afc:	0014      	movs	r4, r2
    2afe:	0015      	movs	r5, r2
    2b00:	2800      	cmp	r0, #0
    2b02:	d008      	beq.n	2b16 <_read+0x1e>
    2b04:	2001      	movs	r0, #1
    2b06:	4240      	negs	r0, r0
    2b08:	e00c      	b.n	2b24 <_read+0x2c>
    2b0a:	4b07      	ldr	r3, [pc, #28]	; (2b28 <_read+0x30>)
    2b0c:	3d01      	subs	r5, #1
    2b0e:	6818      	ldr	r0, [r3, #0]
    2b10:	4b06      	ldr	r3, [pc, #24]	; (2b2c <_read+0x34>)
    2b12:	681b      	ldr	r3, [r3, #0]
    2b14:	4798      	blx	r3
    2b16:	1b61      	subs	r1, r4, r5
    2b18:	1871      	adds	r1, r6, r1
    2b1a:	2d00      	cmp	r5, #0
    2b1c:	dcf5      	bgt.n	2b0a <_read+0x12>
    2b1e:	43e0      	mvns	r0, r4
    2b20:	17c0      	asrs	r0, r0, #31
    2b22:	4020      	ands	r0, r4
    2b24:	bd70      	pop	{r4, r5, r6, pc}
    2b26:	46c0      	nop			; (mov r8, r8)
    2b28:	200001a0 	.word	0x200001a0
    2b2c:	20000198 	.word	0x20000198

00002b30 <_write>:
    2b30:	3801      	subs	r0, #1
    2b32:	b570      	push	{r4, r5, r6, lr}
    2b34:	000e      	movs	r6, r1
    2b36:	2802      	cmp	r0, #2
    2b38:	d80d      	bhi.n	2b56 <_write+0x26>
    2b3a:	000c      	movs	r4, r1
    2b3c:	188d      	adds	r5, r1, r2
    2b3e:	1ba0      	subs	r0, r4, r6
    2b40:	42ac      	cmp	r4, r5
    2b42:	d00a      	beq.n	2b5a <_write+0x2a>
    2b44:	4b05      	ldr	r3, [pc, #20]	; (2b5c <_write+0x2c>)
    2b46:	7821      	ldrb	r1, [r4, #0]
    2b48:	6818      	ldr	r0, [r3, #0]
    2b4a:	4b05      	ldr	r3, [pc, #20]	; (2b60 <_write+0x30>)
    2b4c:	3401      	adds	r4, #1
    2b4e:	681b      	ldr	r3, [r3, #0]
    2b50:	4798      	blx	r3
    2b52:	2800      	cmp	r0, #0
    2b54:	daf3      	bge.n	2b3e <_write+0xe>
    2b56:	2001      	movs	r0, #1
    2b58:	4240      	negs	r0, r0
    2b5a:	bd70      	pop	{r4, r5, r6, pc}
    2b5c:	200001a0 	.word	0x200001a0
    2b60:	2000019c 	.word	0x2000019c

00002b64 <_sbrk>:
    2b64:	4b05      	ldr	r3, [pc, #20]	; (2b7c <_sbrk+0x18>)
    2b66:	0002      	movs	r2, r0
    2b68:	6819      	ldr	r1, [r3, #0]
    2b6a:	2900      	cmp	r1, #0
    2b6c:	d101      	bne.n	2b72 <_sbrk+0xe>
    2b6e:	4904      	ldr	r1, [pc, #16]	; (2b80 <_sbrk+0x1c>)
    2b70:	6019      	str	r1, [r3, #0]
    2b72:	6818      	ldr	r0, [r3, #0]
    2b74:	1882      	adds	r2, r0, r2
    2b76:	601a      	str	r2, [r3, #0]
    2b78:	4770      	bx	lr
    2b7a:	46c0      	nop			; (mov r8, r8)
    2b7c:	20000148 	.word	0x20000148
    2b80:	200021e8 	.word	0x200021e8

00002b84 <_close>:
    2b84:	2001      	movs	r0, #1
    2b86:	4240      	negs	r0, r0
    2b88:	4770      	bx	lr

00002b8a <_fstat>:
    2b8a:	2380      	movs	r3, #128	; 0x80
    2b8c:	019b      	lsls	r3, r3, #6
    2b8e:	2000      	movs	r0, #0
    2b90:	604b      	str	r3, [r1, #4]
    2b92:	4770      	bx	lr

00002b94 <_isatty>:
    2b94:	2001      	movs	r0, #1
    2b96:	4770      	bx	lr

00002b98 <_lseek>:
    2b98:	2000      	movs	r0, #0
    2b9a:	4770      	bx	lr

00002b9c <disk_initialize>:
    2b9c:	23a0      	movs	r3, #160	; 0xa0
    2b9e:	b530      	push	{r4, r5, lr}
    2ba0:	b087      	sub	sp, #28
    2ba2:	aa01      	add	r2, sp, #4
    2ba4:	011b      	lsls	r3, r3, #4
    2ba6:	8013      	strh	r3, [r2, #0]
    2ba8:	2300      	movs	r3, #0
    2baa:	21fa      	movs	r1, #250	; 0xfa
    2bac:	7093      	strb	r3, [r2, #2]
    2bae:	70d3      	strb	r3, [r2, #3]
    2bb0:	7253      	strb	r3, [r2, #9]
    2bb2:	7293      	strb	r3, [r2, #10]
    2bb4:	72d3      	strb	r3, [r2, #11]
    2bb6:	4b15      	ldr	r3, [pc, #84]	; (2c0c <disk_initialize+0x70>)
    2bb8:	00c9      	lsls	r1, r1, #3
    2bba:	0004      	movs	r4, r0
    2bbc:	80d1      	strh	r1, [r2, #6]
    2bbe:	2004      	movs	r0, #4
    2bc0:	2101      	movs	r1, #1
    2bc2:	81d3      	strh	r3, [r2, #14]
    2bc4:	2306      	movs	r3, #6
    2bc6:	4d12      	ldr	r5, [pc, #72]	; (2c10 <disk_initialize+0x74>)
    2bc8:	7111      	strb	r1, [r2, #4]
    2bca:	7210      	strb	r0, [r2, #8]
    2bcc:	7311      	strb	r1, [r2, #12]
    2bce:	7351      	strb	r1, [r2, #13]
    2bd0:	7413      	strb	r3, [r2, #16]
    2bd2:	0028      	movs	r0, r5
    2bd4:	4b0f      	ldr	r3, [pc, #60]	; (2c14 <disk_initialize+0x78>)
    2bd6:	4910      	ldr	r1, [pc, #64]	; (2c18 <disk_initialize+0x7c>)
    2bd8:	4798      	blx	r3
    2bda:	0028      	movs	r0, r5
    2bdc:	4b0f      	ldr	r3, [pc, #60]	; (2c1c <disk_initialize+0x80>)
    2bde:	4798      	blx	r3
    2be0:	2c01      	cmp	r4, #1
    2be2:	d902      	bls.n	2bea <disk_initialize+0x4e>
    2be4:	2001      	movs	r0, #1
    2be6:	b007      	add	sp, #28
    2be8:	bd30      	pop	{r4, r5, pc}
    2bea:	0020      	movs	r0, r4
    2bec:	4d0c      	ldr	r5, [pc, #48]	; (2c20 <disk_initialize+0x84>)
    2bee:	47a8      	blx	r5
    2bf0:	2803      	cmp	r0, #3
    2bf2:	d101      	bne.n	2bf8 <disk_initialize+0x5c>
    2bf4:	0020      	movs	r0, r4
    2bf6:	47a8      	blx	r5
    2bf8:	2800      	cmp	r0, #0
    2bfa:	d1f3      	bne.n	2be4 <disk_initialize+0x48>
    2bfc:	4b09      	ldr	r3, [pc, #36]	; (2c24 <disk_initialize+0x88>)
    2bfe:	0020      	movs	r0, r4
    2c00:	4798      	blx	r3
    2c02:	1e43      	subs	r3, r0, #1
    2c04:	4198      	sbcs	r0, r3
    2c06:	0080      	lsls	r0, r0, #2
    2c08:	e7ed      	b.n	2be6 <disk_initialize+0x4a>
    2c0a:	46c0      	nop			; (mov r8, r8)
    2c0c:	000007de 	.word	0x000007de
    2c10:	200001a4 	.word	0x200001a4
    2c14:	000013c5 	.word	0x000013c5
    2c18:	40001400 	.word	0x40001400
    2c1c:	0000127d 	.word	0x0000127d
    2c20:	00001145 	.word	0x00001145
    2c24:	00001179 	.word	0x00001179

00002c28 <disk_status>:
    2c28:	4b05      	ldr	r3, [pc, #20]	; (2c40 <disk_status+0x18>)
    2c2a:	b510      	push	{r4, lr}
    2c2c:	4798      	blx	r3
    2c2e:	1e03      	subs	r3, r0, #0
    2c30:	d003      	beq.n	2c3a <disk_status+0x12>
    2c32:	2303      	movs	r3, #3
    2c34:	2802      	cmp	r0, #2
    2c36:	d000      	beq.n	2c3a <disk_status+0x12>
    2c38:	3b02      	subs	r3, #2
    2c3a:	0018      	movs	r0, r3
    2c3c:	bd10      	pop	{r4, pc}
    2c3e:	46c0      	nop			; (mov r8, r8)
    2c40:	00001145 	.word	0x00001145

00002c44 <disk_read>:
    2c44:	b5f0      	push	{r4, r5, r6, r7, lr}
    2c46:	b087      	sub	sp, #28
    2c48:	9302      	str	r3, [sp, #8]
    2c4a:	4b17      	ldr	r3, [pc, #92]	; (2ca8 <disk_read+0x64>)
    2c4c:	0007      	movs	r7, r0
    2c4e:	000c      	movs	r4, r1
    2c50:	0016      	movs	r6, r2
    2c52:	4798      	blx	r3
    2c54:	1e05      	subs	r5, r0, #0
    2c56:	d102      	bne.n	2c5e <disk_read+0x1a>
    2c58:	2001      	movs	r0, #1
    2c5a:	b007      	add	sp, #28
    2c5c:	bdf0      	pop	{r4, r5, r6, r7, pc}
    2c5e:	4b13      	ldr	r3, [pc, #76]	; (2cac <disk_read+0x68>)
    2c60:	a905      	add	r1, sp, #20
    2c62:	0038      	movs	r0, r7
    2c64:	4798      	blx	r3
    2c66:	9a02      	ldr	r2, [sp, #8]
    2c68:	9b05      	ldr	r3, [sp, #20]
    2c6a:	436a      	muls	r2, r5
    2c6c:	3301      	adds	r3, #1
    2c6e:	436b      	muls	r3, r5
    2c70:	1992      	adds	r2, r2, r6
    2c72:	2004      	movs	r0, #4
    2c74:	429a      	cmp	r2, r3
    2c76:	d8f0      	bhi.n	2c5a <disk_read+0x16>
    2c78:	026b      	lsls	r3, r5, #9
    2c7a:	9303      	str	r3, [sp, #12]
    2c7c:	2300      	movs	r3, #0
    2c7e:	9301      	str	r3, [sp, #4]
    2c80:	9b01      	ldr	r3, [sp, #4]
    2c82:	9a02      	ldr	r2, [sp, #8]
    2c84:	4293      	cmp	r3, r2
    2c86:	d301      	bcc.n	2c8c <disk_read+0x48>
    2c88:	2000      	movs	r0, #0
    2c8a:	e7e6      	b.n	2c5a <disk_read+0x16>
    2c8c:	0022      	movs	r2, r4
    2c8e:	0031      	movs	r1, r6
    2c90:	4b07      	ldr	r3, [pc, #28]	; (2cb0 <disk_read+0x6c>)
    2c92:	0038      	movs	r0, r7
    2c94:	4798      	blx	r3
    2c96:	9b03      	ldr	r3, [sp, #12]
    2c98:	1976      	adds	r6, r6, r5
    2c9a:	18e4      	adds	r4, r4, r3
    2c9c:	2800      	cmp	r0, #0
    2c9e:	d1db      	bne.n	2c58 <disk_read+0x14>
    2ca0:	9b01      	ldr	r3, [sp, #4]
    2ca2:	3301      	adds	r3, #1
    2ca4:	e7eb      	b.n	2c7e <disk_read+0x3a>
    2ca6:	46c0      	nop			; (mov r8, r8)
    2ca8:	00001171 	.word	0x00001171
    2cac:	00001159 	.word	0x00001159
    2cb0:	0000118d 	.word	0x0000118d

00002cb4 <disk_write>:
    2cb4:	b5f0      	push	{r4, r5, r6, r7, lr}
    2cb6:	b087      	sub	sp, #28
    2cb8:	9302      	str	r3, [sp, #8]
    2cba:	4b17      	ldr	r3, [pc, #92]	; (2d18 <disk_write+0x64>)
    2cbc:	0007      	movs	r7, r0
    2cbe:	000c      	movs	r4, r1
    2cc0:	0016      	movs	r6, r2
    2cc2:	4798      	blx	r3
    2cc4:	1e05      	subs	r5, r0, #0
    2cc6:	d102      	bne.n	2cce <disk_write+0x1a>
    2cc8:	2001      	movs	r0, #1
    2cca:	b007      	add	sp, #28
    2ccc:	bdf0      	pop	{r4, r5, r6, r7, pc}
    2cce:	4b13      	ldr	r3, [pc, #76]	; (2d1c <disk_write+0x68>)
    2cd0:	a905      	add	r1, sp, #20
    2cd2:	0038      	movs	r0, r7
    2cd4:	4798      	blx	r3
    2cd6:	9a02      	ldr	r2, [sp, #8]
    2cd8:	9b05      	ldr	r3, [sp, #20]
    2cda:	436a      	muls	r2, r5
    2cdc:	3301      	adds	r3, #1
    2cde:	436b      	muls	r3, r5
    2ce0:	1992      	adds	r2, r2, r6
    2ce2:	2004      	movs	r0, #4
    2ce4:	429a      	cmp	r2, r3
    2ce6:	d8f0      	bhi.n	2cca <disk_write+0x16>
    2ce8:	026b      	lsls	r3, r5, #9
    2cea:	9303      	str	r3, [sp, #12]
    2cec:	2300      	movs	r3, #0
    2cee:	9301      	str	r3, [sp, #4]
    2cf0:	9b01      	ldr	r3, [sp, #4]
    2cf2:	9a02      	ldr	r2, [sp, #8]
    2cf4:	4293      	cmp	r3, r2
    2cf6:	d301      	bcc.n	2cfc <disk_write+0x48>
    2cf8:	2000      	movs	r0, #0
    2cfa:	e7e6      	b.n	2cca <disk_write+0x16>
    2cfc:	0022      	movs	r2, r4
    2cfe:	0031      	movs	r1, r6
    2d00:	4b07      	ldr	r3, [pc, #28]	; (2d20 <disk_write+0x6c>)
    2d02:	0038      	movs	r0, r7
    2d04:	4798      	blx	r3
    2d06:	9b03      	ldr	r3, [sp, #12]
    2d08:	1976      	adds	r6, r6, r5
    2d0a:	18e4      	adds	r4, r4, r3
    2d0c:	2800      	cmp	r0, #0
    2d0e:	d1db      	bne.n	2cc8 <disk_write+0x14>
    2d10:	9b01      	ldr	r3, [sp, #4]
    2d12:	3301      	adds	r3, #1
    2d14:	e7eb      	b.n	2cee <disk_write+0x3a>
    2d16:	46c0      	nop			; (mov r8, r8)
    2d18:	00001171 	.word	0x00001171
    2d1c:	00001159 	.word	0x00001159
    2d20:	000011a9 	.word	0x000011a9

00002d24 <disk_ioctl>:
    2d24:	b537      	push	{r0, r1, r2, r4, r5, lr}
    2d26:	2304      	movs	r3, #4
    2d28:	0005      	movs	r5, r0
    2d2a:	0014      	movs	r4, r2
    2d2c:	2903      	cmp	r1, #3
    2d2e:	d807      	bhi.n	2d40 <disk_ioctl+0x1c>
    2d30:	0008      	movs	r0, r1
    2d32:	f001 fbb3 	bl	449c <__gnu_thumb1_case_uqi>
    2d36:	071d      	.short	0x071d
    2d38:	020e      	.short	0x020e
    2d3a:	2301      	movs	r3, #1
    2d3c:	6023      	str	r3, [r4, #0]
    2d3e:	2300      	movs	r3, #0
    2d40:	0018      	movs	r0, r3
    2d42:	bd3e      	pop	{r1, r2, r3, r4, r5, pc}
    2d44:	4b0e      	ldr	r3, [pc, #56]	; (2d80 <disk_ioctl+0x5c>)
    2d46:	a901      	add	r1, sp, #4
    2d48:	0028      	movs	r0, r5
    2d4a:	4798      	blx	r3
    2d4c:	9b01      	ldr	r3, [sp, #4]
    2d4e:	3301      	adds	r3, #1
    2d50:	e7f4      	b.n	2d3c <disk_ioctl+0x18>
    2d52:	4b0c      	ldr	r3, [pc, #48]	; (2d84 <disk_ioctl+0x60>)
    2d54:	0028      	movs	r0, r5
    2d56:	4798      	blx	r3
    2d58:	1e43      	subs	r3, r0, #1
    2d5a:	b2db      	uxtb	r3, r3
    2d5c:	2b01      	cmp	r3, #1
    2d5e:	d904      	bls.n	2d6a <disk_ioctl+0x46>
    2d60:	22fb      	movs	r2, #251	; 0xfb
    2d62:	3804      	subs	r0, #4
    2d64:	2301      	movs	r3, #1
    2d66:	4210      	tst	r0, r2
    2d68:	d1ea      	bne.n	2d40 <disk_ioctl+0x1c>
    2d6a:	2300      	movs	r3, #0
    2d6c:	7023      	strb	r3, [r4, #0]
    2d6e:	e7e7      	b.n	2d40 <disk_ioctl+0x1c>
    2d70:	4b05      	ldr	r3, [pc, #20]	; (2d88 <disk_ioctl+0x64>)
    2d72:	0028      	movs	r0, r5
    2d74:	4798      	blx	r3
    2d76:	1e03      	subs	r3, r0, #0
    2d78:	d0e2      	beq.n	2d40 <disk_ioctl+0x1c>
    2d7a:	2303      	movs	r3, #3
    2d7c:	e7e0      	b.n	2d40 <disk_ioctl+0x1c>
    2d7e:	46c0      	nop			; (mov r8, r8)
    2d80:	00001159 	.word	0x00001159
    2d84:	00001171 	.word	0x00001171
    2d88:	00001145 	.word	0x00001145

00002d8c <get_fattime>:
    2d8c:	b507      	push	{r0, r1, r2, lr}
    2d8e:	4b0e      	ldr	r3, [pc, #56]	; (2dc8 <get_fattime+0x3c>)
    2d90:	480e      	ldr	r0, [pc, #56]	; (2dcc <get_fattime+0x40>)
    2d92:	4669      	mov	r1, sp
    2d94:	4798      	blx	r3
    2d96:	466b      	mov	r3, sp
    2d98:	7958      	ldrb	r0, [r3, #5]
    2d9a:	791b      	ldrb	r3, [r3, #4]
    2d9c:	0540      	lsls	r0, r0, #21
    2d9e:	041b      	lsls	r3, r3, #16
    2da0:	4318      	orrs	r0, r3
    2da2:	466b      	mov	r3, sp
    2da4:	789b      	ldrb	r3, [r3, #2]
    2da6:	4a0a      	ldr	r2, [pc, #40]	; (2dd0 <get_fattime+0x44>)
    2da8:	02db      	lsls	r3, r3, #11
    2daa:	4318      	orrs	r0, r3
    2dac:	466b      	mov	r3, sp
    2dae:	785b      	ldrb	r3, [r3, #1]
    2db0:	015b      	lsls	r3, r3, #5
    2db2:	4318      	orrs	r0, r3
    2db4:	466b      	mov	r3, sp
    2db6:	781b      	ldrb	r3, [r3, #0]
    2db8:	085b      	lsrs	r3, r3, #1
    2dba:	4318      	orrs	r0, r3
    2dbc:	466b      	mov	r3, sp
    2dbe:	88db      	ldrh	r3, [r3, #6]
    2dc0:	189b      	adds	r3, r3, r2
    2dc2:	065b      	lsls	r3, r3, #25
    2dc4:	4318      	orrs	r0, r3
    2dc6:	bd0e      	pop	{r1, r2, r3, pc}
    2dc8:	0000134d 	.word	0x0000134d
    2dcc:	200001a4 	.word	0x200001a4
    2dd0:	fffff844 	.word	0xfffff844

00002dd4 <mem_cpy>:
    2dd4:	2300      	movs	r3, #0
    2dd6:	b510      	push	{r4, lr}
    2dd8:	429a      	cmp	r2, r3
    2dda:	d100      	bne.n	2dde <mem_cpy+0xa>
    2ddc:	bd10      	pop	{r4, pc}
    2dde:	5ccc      	ldrb	r4, [r1, r3]
    2de0:	54c4      	strb	r4, [r0, r3]
    2de2:	3301      	adds	r3, #1
    2de4:	e7f8      	b.n	2dd8 <mem_cpy+0x4>

00002de6 <mem_set>:
    2de6:	1882      	adds	r2, r0, r2
    2de8:	4290      	cmp	r0, r2
    2dea:	d100      	bne.n	2dee <mem_set+0x8>
    2dec:	4770      	bx	lr
    2dee:	7001      	strb	r1, [r0, #0]
    2df0:	3001      	adds	r0, #1
    2df2:	e7f9      	b.n	2de8 <mem_set+0x2>

00002df4 <clust2sect>:
    2df4:	6982      	ldr	r2, [r0, #24]
    2df6:	3902      	subs	r1, #2
    2df8:	3a02      	subs	r2, #2
    2dfa:	0003      	movs	r3, r0
    2dfc:	2000      	movs	r0, #0
    2dfe:	4291      	cmp	r1, r2
    2e00:	d203      	bcs.n	2e0a <clust2sect+0x16>
    2e02:	7898      	ldrb	r0, [r3, #2]
    2e04:	4341      	muls	r1, r0
    2e06:	6a98      	ldr	r0, [r3, #40]	; 0x28
    2e08:	1808      	adds	r0, r1, r0
    2e0a:	4770      	bx	lr

00002e0c <sum_sfn>:
    2e0c:	0001      	movs	r1, r0
    2e0e:	2300      	movs	r3, #0
    2e10:	310b      	adds	r1, #11
    2e12:	085a      	lsrs	r2, r3, #1
    2e14:	01db      	lsls	r3, r3, #7
    2e16:	4313      	orrs	r3, r2
    2e18:	7802      	ldrb	r2, [r0, #0]
    2e1a:	3001      	adds	r0, #1
    2e1c:	189b      	adds	r3, r3, r2
    2e1e:	b2db      	uxtb	r3, r3
    2e20:	4288      	cmp	r0, r1
    2e22:	d1f6      	bne.n	2e12 <sum_sfn+0x6>
    2e24:	0018      	movs	r0, r3
    2e26:	4770      	bx	lr

00002e28 <move_window>:
    2e28:	b5f7      	push	{r0, r1, r2, r4, r5, r6, r7, lr}
    2e2a:	6ac5      	ldr	r5, [r0, #44]	; 0x2c
    2e2c:	0004      	movs	r4, r0
    2e2e:	000e      	movs	r6, r1
    2e30:	428d      	cmp	r5, r1
    2e32:	d101      	bne.n	2e38 <move_window+0x10>
    2e34:	2000      	movs	r0, #0
    2e36:	bdfe      	pop	{r1, r2, r3, r4, r5, r6, r7, pc}
    2e38:	7903      	ldrb	r3, [r0, #4]
    2e3a:	2b00      	cmp	r3, #0
    2e3c:	d10c      	bne.n	2e58 <move_window+0x30>
    2e3e:	2e00      	cmp	r6, #0
    2e40:	d0f8      	beq.n	2e34 <move_window+0xc>
    2e42:	0021      	movs	r1, r4
    2e44:	7860      	ldrb	r0, [r4, #1]
    2e46:	2301      	movs	r3, #1
    2e48:	0032      	movs	r2, r6
    2e4a:	3130      	adds	r1, #48	; 0x30
    2e4c:	4d14      	ldr	r5, [pc, #80]	; (2ea0 <move_window+0x78>)
    2e4e:	47a8      	blx	r5
    2e50:	2800      	cmp	r0, #0
    2e52:	d10c      	bne.n	2e6e <move_window+0x46>
    2e54:	62e6      	str	r6, [r4, #44]	; 0x2c
    2e56:	e7ee      	b.n	2e36 <move_window+0xe>
    2e58:	0003      	movs	r3, r0
    2e5a:	3330      	adds	r3, #48	; 0x30
    2e5c:	9301      	str	r3, [sp, #4]
    2e5e:	7840      	ldrb	r0, [r0, #1]
    2e60:	2301      	movs	r3, #1
    2e62:	002a      	movs	r2, r5
    2e64:	9901      	ldr	r1, [sp, #4]
    2e66:	4f0f      	ldr	r7, [pc, #60]	; (2ea4 <move_window+0x7c>)
    2e68:	47b8      	blx	r7
    2e6a:	2800      	cmp	r0, #0
    2e6c:	d001      	beq.n	2e72 <move_window+0x4a>
    2e6e:	2001      	movs	r0, #1
    2e70:	e7e1      	b.n	2e36 <move_window+0xe>
    2e72:	6a23      	ldr	r3, [r4, #32]
    2e74:	69e2      	ldr	r2, [r4, #28]
    2e76:	7120      	strb	r0, [r4, #4]
    2e78:	189b      	adds	r3, r3, r2
    2e7a:	429d      	cmp	r5, r3
    2e7c:	d2df      	bcs.n	2e3e <move_window+0x16>
    2e7e:	78e3      	ldrb	r3, [r4, #3]
    2e80:	9300      	str	r3, [sp, #0]
    2e82:	9b00      	ldr	r3, [sp, #0]
    2e84:	2b01      	cmp	r3, #1
    2e86:	d9da      	bls.n	2e3e <move_window+0x16>
    2e88:	69e3      	ldr	r3, [r4, #28]
    2e8a:	4f06      	ldr	r7, [pc, #24]	; (2ea4 <move_window+0x7c>)
    2e8c:	18ed      	adds	r5, r5, r3
    2e8e:	7860      	ldrb	r0, [r4, #1]
    2e90:	2301      	movs	r3, #1
    2e92:	002a      	movs	r2, r5
    2e94:	9901      	ldr	r1, [sp, #4]
    2e96:	47b8      	blx	r7
    2e98:	9f00      	ldr	r7, [sp, #0]
    2e9a:	3f01      	subs	r7, #1
    2e9c:	b2fb      	uxtb	r3, r7
    2e9e:	e7ef      	b.n	2e80 <move_window+0x58>
    2ea0:	00002c45 	.word	0x00002c45
    2ea4:	00002cb5 	.word	0x00002cb5

00002ea8 <sync>:
    2ea8:	b570      	push	{r4, r5, r6, lr}
    2eaa:	2100      	movs	r1, #0
    2eac:	4b2c      	ldr	r3, [pc, #176]	; (2f60 <sync+0xb8>)
    2eae:	0004      	movs	r4, r0
    2eb0:	4798      	blx	r3
    2eb2:	1e05      	subs	r5, r0, #0
    2eb4:	d152      	bne.n	2f5c <sync+0xb4>
    2eb6:	7823      	ldrb	r3, [r4, #0]
    2eb8:	2b03      	cmp	r3, #3
    2eba:	d147      	bne.n	2f4c <sync+0xa4>
    2ebc:	7963      	ldrb	r3, [r4, #5]
    2ebe:	2b00      	cmp	r3, #0
    2ec0:	d044      	beq.n	2f4c <sync+0xa4>
    2ec2:	0026      	movs	r6, r4
    2ec4:	2280      	movs	r2, #128	; 0x80
    2ec6:	3630      	adds	r6, #48	; 0x30
    2ec8:	0001      	movs	r1, r0
    2eca:	62e0      	str	r0, [r4, #44]	; 0x2c
    2ecc:	0092      	lsls	r2, r2, #2
    2ece:	0030      	movs	r0, r6
    2ed0:	4b24      	ldr	r3, [pc, #144]	; (2f64 <sync+0xbc>)
    2ed2:	4798      	blx	r3
    2ed4:	2255      	movs	r2, #85	; 0x55
    2ed6:	4b24      	ldr	r3, [pc, #144]	; (2f68 <sync+0xc0>)
    2ed8:	2141      	movs	r1, #65	; 0x41
    2eda:	54e2      	strb	r2, [r4, r3]
    2edc:	4b23      	ldr	r3, [pc, #140]	; (2f6c <sync+0xc4>)
    2ede:	1892      	adds	r2, r2, r2
    2ee0:	54e2      	strb	r2, [r4, r3]
    2ee2:	0022      	movs	r2, r4
    2ee4:	3bde      	subs	r3, #222	; 0xde
    2ee6:	3bff      	subs	r3, #255	; 0xff
    2ee8:	3231      	adds	r2, #49	; 0x31
    2eea:	7033      	strb	r3, [r6, #0]
    2eec:	7013      	strb	r3, [r2, #0]
    2eee:	0023      	movs	r3, r4
    2ef0:	2261      	movs	r2, #97	; 0x61
    2ef2:	3332      	adds	r3, #50	; 0x32
    2ef4:	2085      	movs	r0, #133	; 0x85
    2ef6:	701a      	strb	r2, [r3, #0]
    2ef8:	7059      	strb	r1, [r3, #1]
    2efa:	2372      	movs	r3, #114	; 0x72
    2efc:	0080      	lsls	r0, r0, #2
    2efe:	5423      	strb	r3, [r4, r0]
    2f00:	481b      	ldr	r0, [pc, #108]	; (2f70 <sync+0xc8>)
    2f02:	5423      	strb	r3, [r4, r0]
    2f04:	4b1b      	ldr	r3, [pc, #108]	; (2f74 <sync+0xcc>)
    2f06:	54e1      	strb	r1, [r4, r3]
    2f08:	4b1b      	ldr	r3, [pc, #108]	; (2f78 <sync+0xd0>)
    2f0a:	54e2      	strb	r2, [r4, r3]
    2f0c:	6923      	ldr	r3, [r4, #16]
    2f0e:	32b8      	adds	r2, #184	; 0xb8
    2f10:	32ff      	adds	r2, #255	; 0xff
    2f12:	54a3      	strb	r3, [r4, r2]
    2f14:	4a19      	ldr	r2, [pc, #100]	; (2f7c <sync+0xd4>)
    2f16:	0a19      	lsrs	r1, r3, #8
    2f18:	54a1      	strb	r1, [r4, r2]
    2f1a:	4a19      	ldr	r2, [pc, #100]	; (2f80 <sync+0xd8>)
    2f1c:	0c19      	lsrs	r1, r3, #16
    2f1e:	54a1      	strb	r1, [r4, r2]
    2f20:	4a18      	ldr	r2, [pc, #96]	; (2f84 <sync+0xdc>)
    2f22:	0e1b      	lsrs	r3, r3, #24
    2f24:	54a3      	strb	r3, [r4, r2]
    2f26:	68e3      	ldr	r3, [r4, #12]
    2f28:	3201      	adds	r2, #1
    2f2a:	54a3      	strb	r3, [r4, r2]
    2f2c:	4a16      	ldr	r2, [pc, #88]	; (2f88 <sync+0xe0>)
    2f2e:	0a19      	lsrs	r1, r3, #8
    2f30:	54a1      	strb	r1, [r4, r2]
    2f32:	4a16      	ldr	r2, [pc, #88]	; (2f8c <sync+0xe4>)
    2f34:	0c19      	lsrs	r1, r3, #16
    2f36:	54a1      	strb	r1, [r4, r2]
    2f38:	4a15      	ldr	r2, [pc, #84]	; (2f90 <sync+0xe8>)
    2f3a:	0e1b      	lsrs	r3, r3, #24
    2f3c:	54a3      	strb	r3, [r4, r2]
    2f3e:	0031      	movs	r1, r6
    2f40:	7860      	ldrb	r0, [r4, #1]
    2f42:	2301      	movs	r3, #1
    2f44:	6962      	ldr	r2, [r4, #20]
    2f46:	4e13      	ldr	r6, [pc, #76]	; (2f94 <sync+0xec>)
    2f48:	47b0      	blx	r6
    2f4a:	7165      	strb	r5, [r4, #5]
    2f4c:	2200      	movs	r2, #0
    2f4e:	4b12      	ldr	r3, [pc, #72]	; (2f98 <sync+0xf0>)
    2f50:	7860      	ldrb	r0, [r4, #1]
    2f52:	0011      	movs	r1, r2
    2f54:	4798      	blx	r3
    2f56:	1e43      	subs	r3, r0, #1
    2f58:	4198      	sbcs	r0, r3
    2f5a:	b2c0      	uxtb	r0, r0
    2f5c:	bd70      	pop	{r4, r5, r6, pc}
    2f5e:	46c0      	nop			; (mov r8, r8)
    2f60:	00002e29 	.word	0x00002e29
    2f64:	00002de7 	.word	0x00002de7
    2f68:	0000022e 	.word	0x0000022e
    2f6c:	0000022f 	.word	0x0000022f
    2f70:	00000215 	.word	0x00000215
    2f74:	00000216 	.word	0x00000216
    2f78:	00000217 	.word	0x00000217
    2f7c:	00000219 	.word	0x00000219
    2f80:	0000021a 	.word	0x0000021a
    2f84:	0000021b 	.word	0x0000021b
    2f88:	0000021d 	.word	0x0000021d
    2f8c:	0000021e 	.word	0x0000021e
    2f90:	0000021f 	.word	0x0000021f
    2f94:	00002cb5 	.word	0x00002cb5
    2f98:	00002d25 	.word	0x00002d25

00002f9c <validate>:
    2f9c:	b510      	push	{r4, lr}
    2f9e:	2309      	movs	r3, #9
    2fa0:	2800      	cmp	r0, #0
    2fa2:	d00c      	beq.n	2fbe <validate+0x22>
    2fa4:	7802      	ldrb	r2, [r0, #0]
    2fa6:	2a00      	cmp	r2, #0
    2fa8:	d009      	beq.n	2fbe <validate+0x22>
    2faa:	88c2      	ldrh	r2, [r0, #6]
    2fac:	428a      	cmp	r2, r1
    2fae:	d106      	bne.n	2fbe <validate+0x22>
    2fb0:	4b04      	ldr	r3, [pc, #16]	; (2fc4 <validate+0x28>)
    2fb2:	7840      	ldrb	r0, [r0, #1]
    2fb4:	4798      	blx	r3
    2fb6:	2303      	movs	r3, #3
    2fb8:	07c0      	lsls	r0, r0, #31
    2fba:	17c0      	asrs	r0, r0, #31
    2fbc:	4003      	ands	r3, r0
    2fbe:	0018      	movs	r0, r3
    2fc0:	bd10      	pop	{r4, pc}
    2fc2:	46c0      	nop			; (mov r8, r8)
    2fc4:	00002c29 	.word	0x00002c29

00002fc8 <check_fs>:
    2fc8:	000a      	movs	r2, r1
    2fca:	0001      	movs	r1, r0
    2fcc:	b570      	push	{r4, r5, r6, lr}
    2fce:	2301      	movs	r3, #1
    2fd0:	0004      	movs	r4, r0
    2fd2:	3130      	adds	r1, #48	; 0x30
    2fd4:	7840      	ldrb	r0, [r0, #1]
    2fd6:	4d16      	ldr	r5, [pc, #88]	; (3030 <check_fs+0x68>)
    2fd8:	47a8      	blx	r5
    2fda:	2303      	movs	r3, #3
    2fdc:	2800      	cmp	r0, #0
    2fde:	d124      	bne.n	302a <check_fs+0x62>
    2fe0:	4b14      	ldr	r3, [pc, #80]	; (3034 <check_fs+0x6c>)
    2fe2:	4a15      	ldr	r2, [pc, #84]	; (3038 <check_fs+0x70>)
    2fe4:	5ce3      	ldrb	r3, [r4, r3]
    2fe6:	5ca2      	ldrb	r2, [r4, r2]
    2fe8:	021b      	lsls	r3, r3, #8
    2fea:	431a      	orrs	r2, r3
    2fec:	4913      	ldr	r1, [pc, #76]	; (303c <check_fs+0x74>)
    2fee:	b212      	sxth	r2, r2
    2ff0:	2302      	movs	r3, #2
    2ff2:	428a      	cmp	r2, r1
    2ff4:	d119      	bne.n	302a <check_fs+0x62>
    2ff6:	0023      	movs	r3, r4
    2ff8:	3366      	adds	r3, #102	; 0x66
    2ffa:	885a      	ldrh	r2, [r3, #2]
    2ffc:	8819      	ldrh	r1, [r3, #0]
    2ffe:	0412      	lsls	r2, r2, #16
    3000:	430a      	orrs	r2, r1
    3002:	490f      	ldr	r1, [pc, #60]	; (3040 <check_fs+0x78>)
    3004:	0212      	lsls	r2, r2, #8
    3006:	0a12      	lsrs	r2, r2, #8
    3008:	0003      	movs	r3, r0
    300a:	428a      	cmp	r2, r1
    300c:	d00d      	beq.n	302a <check_fs+0x62>
    300e:	0023      	movs	r3, r4
    3010:	3484      	adds	r4, #132	; 0x84
    3012:	3382      	adds	r3, #130	; 0x82
    3014:	8818      	ldrh	r0, [r3, #0]
    3016:	8823      	ldrh	r3, [r4, #0]
    3018:	4a0a      	ldr	r2, [pc, #40]	; (3044 <check_fs+0x7c>)
    301a:	041b      	lsls	r3, r3, #16
    301c:	4303      	orrs	r3, r0
    301e:	021b      	lsls	r3, r3, #8
    3020:	0a1b      	lsrs	r3, r3, #8
    3022:	189b      	adds	r3, r3, r2
    3024:	1e58      	subs	r0, r3, #1
    3026:	4183      	sbcs	r3, r0
    3028:	b2db      	uxtb	r3, r3
    302a:	0018      	movs	r0, r3
    302c:	bd70      	pop	{r4, r5, r6, pc}
    302e:	46c0      	nop			; (mov r8, r8)
    3030:	00002c45 	.word	0x00002c45
    3034:	0000022f 	.word	0x0000022f
    3038:	0000022e 	.word	0x0000022e
    303c:	ffffaa55 	.word	0xffffaa55
    3040:	00544146 	.word	0x00544146
    3044:	ffabbeba 	.word	0xffabbeba

00003048 <chk_mounted>:
    3048:	b5f0      	push	{r4, r5, r6, r7, lr}
    304a:	6803      	ldr	r3, [r0, #0]
    304c:	b085      	sub	sp, #20
    304e:	781d      	ldrb	r5, [r3, #0]
    3050:	0016      	movs	r6, r2
    3052:	3d30      	subs	r5, #48	; 0x30
    3054:	2d09      	cmp	r5, #9
    3056:	d81f      	bhi.n	3098 <chk_mounted+0x50>
    3058:	785a      	ldrb	r2, [r3, #1]
    305a:	2a3a      	cmp	r2, #58	; 0x3a
    305c:	d11c      	bne.n	3098 <chk_mounted+0x50>
    305e:	3302      	adds	r3, #2
    3060:	6003      	str	r3, [r0, #0]
    3062:	230b      	movs	r3, #11
    3064:	2d07      	cmp	r5, #7
    3066:	d814      	bhi.n	3092 <chk_mounted+0x4a>
    3068:	4b88      	ldr	r3, [pc, #544]	; (328c <chk_mounted+0x244>)
    306a:	00aa      	lsls	r2, r5, #2
    306c:	58d4      	ldr	r4, [r2, r3]
    306e:	230c      	movs	r3, #12
    3070:	600c      	str	r4, [r1, #0]
    3072:	2c00      	cmp	r4, #0
    3074:	d00d      	beq.n	3092 <chk_mounted+0x4a>
    3076:	7823      	ldrb	r3, [r4, #0]
    3078:	2b00      	cmp	r3, #0
    307a:	d00f      	beq.n	309c <chk_mounted+0x54>
    307c:	4b84      	ldr	r3, [pc, #528]	; (3290 <chk_mounted+0x248>)
    307e:	7860      	ldrb	r0, [r4, #1]
    3080:	4798      	blx	r3
    3082:	2301      	movs	r3, #1
    3084:	4003      	ands	r3, r0
    3086:	d109      	bne.n	309c <chk_mounted+0x54>
    3088:	2e00      	cmp	r6, #0
    308a:	d002      	beq.n	3092 <chk_mounted+0x4a>
    308c:	0742      	lsls	r2, r0, #29
    308e:	d500      	bpl.n	3092 <chk_mounted+0x4a>
    3090:	230a      	movs	r3, #10
    3092:	0018      	movs	r0, r3
    3094:	b005      	add	sp, #20
    3096:	bdf0      	pop	{r4, r5, r6, r7, pc}
    3098:	2500      	movs	r5, #0
    309a:	e7e5      	b.n	3068 <chk_mounted+0x20>
    309c:	2300      	movs	r3, #0
    309e:	b2e8      	uxtb	r0, r5
    30a0:	7023      	strb	r3, [r4, #0]
    30a2:	7060      	strb	r0, [r4, #1]
    30a4:	4b7b      	ldr	r3, [pc, #492]	; (3294 <chk_mounted+0x24c>)
    30a6:	4798      	blx	r3
    30a8:	2303      	movs	r3, #3
    30aa:	07c2      	lsls	r2, r0, #31
    30ac:	d4f1      	bmi.n	3092 <chk_mounted+0x4a>
    30ae:	2e00      	cmp	r6, #0
    30b0:	d001      	beq.n	30b6 <chk_mounted+0x6e>
    30b2:	0743      	lsls	r3, r0, #29
    30b4:	d4ec      	bmi.n	3090 <chk_mounted+0x48>
    30b6:	2100      	movs	r1, #0
    30b8:	0020      	movs	r0, r4
    30ba:	4d77      	ldr	r5, [pc, #476]	; (3298 <chk_mounted+0x250>)
    30bc:	47a8      	blx	r5
    30be:	2600      	movs	r6, #0
    30c0:	2801      	cmp	r0, #1
    30c2:	d116      	bne.n	30f2 <chk_mounted+0xaa>
    30c4:	23f9      	movs	r3, #249	; 0xf9
    30c6:	005b      	lsls	r3, r3, #1
    30c8:	5ce3      	ldrb	r3, [r4, r3]
    30ca:	42b3      	cmp	r3, r6
    30cc:	d101      	bne.n	30d2 <chk_mounted+0x8a>
    30ce:	230d      	movs	r3, #13
    30d0:	e7df      	b.n	3092 <chk_mounted+0x4a>
    30d2:	23fb      	movs	r3, #251	; 0xfb
    30d4:	005b      	lsls	r3, r3, #1
    30d6:	18e1      	adds	r1, r4, r3
    30d8:	5ce6      	ldrb	r6, [r4, r3]
    30da:	784b      	ldrb	r3, [r1, #1]
    30dc:	0020      	movs	r0, r4
    30de:	021b      	lsls	r3, r3, #8
    30e0:	4333      	orrs	r3, r6
    30e2:	788e      	ldrb	r6, [r1, #2]
    30e4:	0436      	lsls	r6, r6, #16
    30e6:	4333      	orrs	r3, r6
    30e8:	78ce      	ldrb	r6, [r1, #3]
    30ea:	0636      	lsls	r6, r6, #24
    30ec:	431e      	orrs	r6, r3
    30ee:	0031      	movs	r1, r6
    30f0:	47a8      	blx	r5
    30f2:	2301      	movs	r3, #1
    30f4:	2803      	cmp	r0, #3
    30f6:	d0cc      	beq.n	3092 <chk_mounted+0x4a>
    30f8:	2800      	cmp	r0, #0
    30fa:	d1e8      	bne.n	30ce <chk_mounted+0x86>
    30fc:	0023      	movs	r3, r4
    30fe:	333c      	adds	r3, #60	; 0x3c
    3100:	781a      	ldrb	r2, [r3, #0]
    3102:	3b01      	subs	r3, #1
    3104:	781b      	ldrb	r3, [r3, #0]
    3106:	0212      	lsls	r2, r2, #8
    3108:	4313      	orrs	r3, r2
    310a:	2280      	movs	r2, #128	; 0x80
    310c:	b21b      	sxth	r3, r3
    310e:	0092      	lsls	r2, r2, #2
    3110:	4293      	cmp	r3, r2
    3112:	d1dc      	bne.n	30ce <chk_mounted+0x86>
    3114:	0023      	movs	r3, r4
    3116:	3347      	adds	r3, #71	; 0x47
    3118:	781a      	ldrb	r2, [r3, #0]
    311a:	3b01      	subs	r3, #1
    311c:	781b      	ldrb	r3, [r3, #0]
    311e:	0212      	lsls	r2, r2, #8
    3120:	4313      	orrs	r3, r2
    3122:	d100      	bne.n	3126 <chk_mounted+0xde>
    3124:	e09f      	b.n	3266 <chk_mounted+0x21e>
    3126:	9300      	str	r3, [sp, #0]
    3128:	9b00      	ldr	r3, [sp, #0]
    312a:	61e3      	str	r3, [r4, #28]
    312c:	0023      	movs	r3, r4
    312e:	3340      	adds	r3, #64	; 0x40
    3130:	781b      	ldrb	r3, [r3, #0]
    3132:	1e5a      	subs	r2, r3, #1
    3134:	70e3      	strb	r3, [r4, #3]
    3136:	2a01      	cmp	r2, #1
    3138:	d8c9      	bhi.n	30ce <chk_mounted+0x86>
    313a:	0022      	movs	r2, r4
    313c:	323d      	adds	r2, #61	; 0x3d
    313e:	7811      	ldrb	r1, [r2, #0]
    3140:	70a1      	strb	r1, [r4, #2]
    3142:	2900      	cmp	r1, #0
    3144:	d0c3      	beq.n	30ce <chk_mounted+0x86>
    3146:	1e4a      	subs	r2, r1, #1
    3148:	4211      	tst	r1, r2
    314a:	d1c0      	bne.n	30ce <chk_mounted+0x86>
    314c:	0022      	movs	r2, r4
    314e:	3242      	adds	r2, #66	; 0x42
    3150:	7817      	ldrb	r7, [r2, #0]
    3152:	3a01      	subs	r2, #1
    3154:	7812      	ldrb	r2, [r2, #0]
    3156:	023f      	lsls	r7, r7, #8
    3158:	4317      	orrs	r7, r2
    315a:	8127      	strh	r7, [r4, #8]
    315c:	073a      	lsls	r2, r7, #28
    315e:	d1b6      	bne.n	30ce <chk_mounted+0x86>
    3160:	0022      	movs	r2, r4
    3162:	3244      	adds	r2, #68	; 0x44
    3164:	7810      	ldrb	r0, [r2, #0]
    3166:	3a01      	subs	r2, #1
    3168:	7812      	ldrb	r2, [r2, #0]
    316a:	0200      	lsls	r0, r0, #8
    316c:	4310      	orrs	r0, r2
    316e:	d100      	bne.n	3172 <chk_mounted+0x12a>
    3170:	6d20      	ldr	r0, [r4, #80]	; 0x50
    3172:	0022      	movs	r2, r4
    3174:	0025      	movs	r5, r4
    3176:	323f      	adds	r2, #63	; 0x3f
    3178:	7812      	ldrb	r2, [r2, #0]
    317a:	353e      	adds	r5, #62	; 0x3e
    317c:	782d      	ldrb	r5, [r5, #0]
    317e:	0212      	lsls	r2, r2, #8
    3180:	4315      	orrs	r5, r2
    3182:	9501      	str	r5, [sp, #4]
    3184:	d0a3      	beq.n	30ce <chk_mounted+0x86>
    3186:	9a00      	ldr	r2, [sp, #0]
    3188:	435a      	muls	r2, r3
    318a:	9203      	str	r2, [sp, #12]
    318c:	093b      	lsrs	r3, r7, #4
    318e:	9a03      	ldr	r2, [sp, #12]
    3190:	195b      	adds	r3, r3, r5
    3192:	189b      	adds	r3, r3, r2
    3194:	9302      	str	r3, [sp, #8]
    3196:	4298      	cmp	r0, r3
    3198:	d399      	bcc.n	30ce <chk_mounted+0x86>
    319a:	1ac0      	subs	r0, r0, r3
    319c:	4b3f      	ldr	r3, [pc, #252]	; (329c <chk_mounted+0x254>)
    319e:	4798      	blx	r3
    31a0:	2800      	cmp	r0, #0
    31a2:	d094      	beq.n	30ce <chk_mounted+0x86>
    31a4:	4b3e      	ldr	r3, [pc, #248]	; (32a0 <chk_mounted+0x258>)
    31a6:	2501      	movs	r5, #1
    31a8:	4298      	cmp	r0, r3
    31aa:	d904      	bls.n	31b6 <chk_mounted+0x16e>
    31ac:	4d3d      	ldr	r5, [pc, #244]	; (32a4 <chk_mounted+0x25c>)
    31ae:	4285      	cmp	r5, r0
    31b0:	41ad      	sbcs	r5, r5
    31b2:	426d      	negs	r5, r5
    31b4:	3502      	adds	r5, #2
    31b6:	9b02      	ldr	r3, [sp, #8]
    31b8:	3002      	adds	r0, #2
    31ba:	18f3      	adds	r3, r6, r3
    31bc:	62a3      	str	r3, [r4, #40]	; 0x28
    31be:	9b01      	ldr	r3, [sp, #4]
    31c0:	61a0      	str	r0, [r4, #24]
    31c2:	18f3      	adds	r3, r6, r3
    31c4:	6223      	str	r3, [r4, #32]
    31c6:	2d03      	cmp	r5, #3
    31c8:	d14f      	bne.n	326a <chk_mounted+0x222>
    31ca:	2f00      	cmp	r7, #0
    31cc:	d000      	beq.n	31d0 <chk_mounted+0x188>
    31ce:	e77e      	b.n	30ce <chk_mounted+0x86>
    31d0:	6de3      	ldr	r3, [r4, #92]	; 0x5c
    31d2:	0080      	lsls	r0, r0, #2
    31d4:	6263      	str	r3, [r4, #36]	; 0x24
    31d6:	4b34      	ldr	r3, [pc, #208]	; (32a8 <chk_mounted+0x260>)
    31d8:	18c0      	adds	r0, r0, r3
    31da:	9b00      	ldr	r3, [sp, #0]
    31dc:	0a40      	lsrs	r0, r0, #9
    31de:	4283      	cmp	r3, r0
    31e0:	d200      	bcs.n	31e4 <chk_mounted+0x19c>
    31e2:	e774      	b.n	30ce <chk_mounted+0x86>
    31e4:	2301      	movs	r3, #1
    31e6:	425b      	negs	r3, r3
    31e8:	6123      	str	r3, [r4, #16]
    31ea:	2300      	movs	r3, #0
    31ec:	60e3      	str	r3, [r4, #12]
    31ee:	2d03      	cmp	r5, #3
    31f0:	d12e      	bne.n	3250 <chk_mounted+0x208>
    31f2:	7163      	strb	r3, [r4, #5]
    31f4:	0023      	movs	r3, r4
    31f6:	0022      	movs	r2, r4
    31f8:	0021      	movs	r1, r4
    31fa:	3361      	adds	r3, #97	; 0x61
    31fc:	781b      	ldrb	r3, [r3, #0]
    31fe:	3260      	adds	r2, #96	; 0x60
    3200:	7812      	ldrb	r2, [r2, #0]
    3202:	021b      	lsls	r3, r3, #8
    3204:	431a      	orrs	r2, r3
    3206:	1992      	adds	r2, r2, r6
    3208:	6162      	str	r2, [r4, #20]
    320a:	7860      	ldrb	r0, [r4, #1]
    320c:	2301      	movs	r3, #1
    320e:	3130      	adds	r1, #48	; 0x30
    3210:	4e26      	ldr	r6, [pc, #152]	; (32ac <chk_mounted+0x264>)
    3212:	47b0      	blx	r6
    3214:	2800      	cmp	r0, #0
    3216:	d11b      	bne.n	3250 <chk_mounted+0x208>
    3218:	4b25      	ldr	r3, [pc, #148]	; (32b0 <chk_mounted+0x268>)
    321a:	5ce2      	ldrb	r2, [r4, r3]
    321c:	4b25      	ldr	r3, [pc, #148]	; (32b4 <chk_mounted+0x26c>)
    321e:	0212      	lsls	r2, r2, #8
    3220:	5ce3      	ldrb	r3, [r4, r3]
    3222:	4313      	orrs	r3, r2
    3224:	4a24      	ldr	r2, [pc, #144]	; (32b8 <chk_mounted+0x270>)
    3226:	b21b      	sxth	r3, r3
    3228:	4293      	cmp	r3, r2
    322a:	d111      	bne.n	3250 <chk_mounted+0x208>
    322c:	4b23      	ldr	r3, [pc, #140]	; (32bc <chk_mounted+0x274>)
    322e:	6b22      	ldr	r2, [r4, #48]	; 0x30
    3230:	429a      	cmp	r2, r3
    3232:	d10d      	bne.n	3250 <chk_mounted+0x208>
    3234:	2285      	movs	r2, #133	; 0x85
    3236:	0092      	lsls	r2, r2, #2
    3238:	4b21      	ldr	r3, [pc, #132]	; (32c0 <chk_mounted+0x278>)
    323a:	58a2      	ldr	r2, [r4, r2]
    323c:	429a      	cmp	r2, r3
    323e:	d107      	bne.n	3250 <chk_mounted+0x208>
    3240:	2387      	movs	r3, #135	; 0x87
    3242:	009b      	lsls	r3, r3, #2
    3244:	58e3      	ldr	r3, [r4, r3]
    3246:	60e3      	str	r3, [r4, #12]
    3248:	2386      	movs	r3, #134	; 0x86
    324a:	009b      	lsls	r3, r3, #2
    324c:	58e3      	ldr	r3, [r4, r3]
    324e:	6123      	str	r3, [r4, #16]
    3250:	4a1c      	ldr	r2, [pc, #112]	; (32c4 <chk_mounted+0x27c>)
    3252:	7025      	strb	r5, [r4, #0]
    3254:	8813      	ldrh	r3, [r2, #0]
    3256:	3301      	adds	r3, #1
    3258:	b29b      	uxth	r3, r3
    325a:	8013      	strh	r3, [r2, #0]
    325c:	80e3      	strh	r3, [r4, #6]
    325e:	2300      	movs	r3, #0
    3260:	62e3      	str	r3, [r4, #44]	; 0x2c
    3262:	7123      	strb	r3, [r4, #4]
    3264:	e715      	b.n	3092 <chk_mounted+0x4a>
    3266:	6d63      	ldr	r3, [r4, #84]	; 0x54
    3268:	e75d      	b.n	3126 <chk_mounted+0xde>
    326a:	2f00      	cmp	r7, #0
    326c:	d100      	bne.n	3270 <chk_mounted+0x228>
    326e:	e72e      	b.n	30ce <chk_mounted+0x86>
    3270:	9a03      	ldr	r2, [sp, #12]
    3272:	18d3      	adds	r3, r2, r3
    3274:	6263      	str	r3, [r4, #36]	; 0x24
    3276:	2d02      	cmp	r5, #2
    3278:	d101      	bne.n	327e <chk_mounted+0x236>
    327a:	0040      	lsls	r0, r0, #1
    327c:	e7ab      	b.n	31d6 <chk_mounted+0x18e>
    327e:	2303      	movs	r3, #3
    3280:	2201      	movs	r2, #1
    3282:	4343      	muls	r3, r0
    3284:	4010      	ands	r0, r2
    3286:	085b      	lsrs	r3, r3, #1
    3288:	1818      	adds	r0, r3, r0
    328a:	e7a4      	b.n	31d6 <chk_mounted+0x18e>
    328c:	2000014c 	.word	0x2000014c
    3290:	00002c29 	.word	0x00002c29
    3294:	00002b9d 	.word	0x00002b9d
    3298:	00002fc9 	.word	0x00002fc9
    329c:	000044b1 	.word	0x000044b1
    32a0:	00000ff5 	.word	0x00000ff5
    32a4:	0000fff5 	.word	0x0000fff5
    32a8:	000001ff 	.word	0x000001ff
    32ac:	00002c45 	.word	0x00002c45
    32b0:	0000022f 	.word	0x0000022f
    32b4:	0000022e 	.word	0x0000022e
    32b8:	ffffaa55 	.word	0xffffaa55
    32bc:	41615252 	.word	0x41615252
    32c0:	61417272 	.word	0x61417272
    32c4:	2000016c 	.word	0x2000016c

000032c8 <get_fat>:
    32c8:	b5f7      	push	{r0, r1, r2, r4, r5, r6, r7, lr}
    32ca:	2401      	movs	r4, #1
    32cc:	0006      	movs	r6, r0
    32ce:	000d      	movs	r5, r1
    32d0:	42a1      	cmp	r1, r4
    32d2:	d92f      	bls.n	3334 <get_fat+0x6c>
    32d4:	6983      	ldr	r3, [r0, #24]
    32d6:	4299      	cmp	r1, r3
    32d8:	d22c      	bcs.n	3334 <get_fat+0x6c>
    32da:	7803      	ldrb	r3, [r0, #0]
    32dc:	2b02      	cmp	r3, #2
    32de:	d02e      	beq.n	333e <get_fat+0x76>
    32e0:	2b03      	cmp	r3, #3
    32e2:	d03e      	beq.n	3362 <get_fat+0x9a>
    32e4:	42a3      	cmp	r3, r4
    32e6:	d108      	bne.n	32fa <get_fat+0x32>
    32e8:	084f      	lsrs	r7, r1, #1
    32ea:	6a03      	ldr	r3, [r0, #32]
    32ec:	187f      	adds	r7, r7, r1
    32ee:	0a79      	lsrs	r1, r7, #9
    32f0:	18c9      	adds	r1, r1, r3
    32f2:	4b2a      	ldr	r3, [pc, #168]	; (339c <get_fat+0xd4>)
    32f4:	4798      	blx	r3
    32f6:	2800      	cmp	r0, #0
    32f8:	d002      	beq.n	3300 <get_fat+0x38>
    32fa:	2401      	movs	r4, #1
    32fc:	4264      	negs	r4, r4
    32fe:	e019      	b.n	3334 <get_fat+0x6c>
    3300:	05fb      	lsls	r3, r7, #23
    3302:	0ddb      	lsrs	r3, r3, #23
    3304:	18f3      	adds	r3, r6, r3
    3306:	3330      	adds	r3, #48	; 0x30
    3308:	781b      	ldrb	r3, [r3, #0]
    330a:	3701      	adds	r7, #1
    330c:	9301      	str	r3, [sp, #4]
    330e:	6a33      	ldr	r3, [r6, #32]
    3310:	0a79      	lsrs	r1, r7, #9
    3312:	18c9      	adds	r1, r1, r3
    3314:	0030      	movs	r0, r6
    3316:	4b21      	ldr	r3, [pc, #132]	; (339c <get_fat+0xd4>)
    3318:	4798      	blx	r3
    331a:	2800      	cmp	r0, #0
    331c:	d1ed      	bne.n	32fa <get_fat+0x32>
    331e:	05ff      	lsls	r7, r7, #23
    3320:	0dff      	lsrs	r7, r7, #23
    3322:	19f6      	adds	r6, r6, r7
    3324:	3630      	adds	r6, #48	; 0x30
    3326:	7833      	ldrb	r3, [r6, #0]
    3328:	9a01      	ldr	r2, [sp, #4]
    332a:	021b      	lsls	r3, r3, #8
    332c:	4313      	orrs	r3, r2
    332e:	4225      	tst	r5, r4
    3330:	d002      	beq.n	3338 <get_fat+0x70>
    3332:	091c      	lsrs	r4, r3, #4
    3334:	0020      	movs	r0, r4
    3336:	bdfe      	pop	{r1, r2, r3, r4, r5, r6, r7, pc}
    3338:	051c      	lsls	r4, r3, #20
    333a:	0d24      	lsrs	r4, r4, #20
    333c:	e7fa      	b.n	3334 <get_fat+0x6c>
    333e:	6a03      	ldr	r3, [r0, #32]
    3340:	0a09      	lsrs	r1, r1, #8
    3342:	18c9      	adds	r1, r1, r3
    3344:	4b15      	ldr	r3, [pc, #84]	; (339c <get_fat+0xd4>)
    3346:	4798      	blx	r3
    3348:	2800      	cmp	r0, #0
    334a:	d1d6      	bne.n	32fa <get_fat+0x32>
    334c:	23ff      	movs	r3, #255	; 0xff
    334e:	006d      	lsls	r5, r5, #1
    3350:	005b      	lsls	r3, r3, #1
    3352:	401d      	ands	r5, r3
    3354:	1976      	adds	r6, r6, r5
    3356:	3630      	adds	r6, #48	; 0x30
    3358:	7874      	ldrb	r4, [r6, #1]
    335a:	7833      	ldrb	r3, [r6, #0]
    335c:	0224      	lsls	r4, r4, #8
    335e:	431c      	orrs	r4, r3
    3360:	e7e8      	b.n	3334 <get_fat+0x6c>
    3362:	6a03      	ldr	r3, [r0, #32]
    3364:	09c9      	lsrs	r1, r1, #7
    3366:	18c9      	adds	r1, r1, r3
    3368:	4b0c      	ldr	r3, [pc, #48]	; (339c <get_fat+0xd4>)
    336a:	4798      	blx	r3
    336c:	2800      	cmp	r0, #0
    336e:	d1c4      	bne.n	32fa <get_fat+0x32>
    3370:	23fe      	movs	r3, #254	; 0xfe
    3372:	00ad      	lsls	r5, r5, #2
    3374:	005b      	lsls	r3, r3, #1
    3376:	401d      	ands	r5, r3
    3378:	002b      	movs	r3, r5
    337a:	3330      	adds	r3, #48	; 0x30
    337c:	18f3      	adds	r3, r6, r3
    337e:	78dc      	ldrb	r4, [r3, #3]
    3380:	789a      	ldrb	r2, [r3, #2]
    3382:	1976      	adds	r6, r6, r5
    3384:	0412      	lsls	r2, r2, #16
    3386:	0624      	lsls	r4, r4, #24
    3388:	3630      	adds	r6, #48	; 0x30
    338a:	4314      	orrs	r4, r2
    338c:	785b      	ldrb	r3, [r3, #1]
    338e:	7832      	ldrb	r2, [r6, #0]
    3390:	021b      	lsls	r3, r3, #8
    3392:	4314      	orrs	r4, r2
    3394:	431c      	orrs	r4, r3
    3396:	0124      	lsls	r4, r4, #4
    3398:	0924      	lsrs	r4, r4, #4
    339a:	e7cb      	b.n	3334 <get_fat+0x6c>
    339c:	00002e29 	.word	0x00002e29

000033a0 <dir_sdi>:
    33a0:	b570      	push	{r4, r5, r6, lr}
    33a2:	0005      	movs	r5, r0
    33a4:	80e9      	strh	r1, [r5, #6]
    33a6:	000c      	movs	r4, r1
    33a8:	6881      	ldr	r1, [r0, #8]
    33aa:	2901      	cmp	r1, #1
    33ac:	d101      	bne.n	33b2 <dir_sdi+0x12>
    33ae:	2002      	movs	r0, #2
    33b0:	bd70      	pop	{r4, r5, r6, pc}
    33b2:	6803      	ldr	r3, [r0, #0]
    33b4:	699a      	ldr	r2, [r3, #24]
    33b6:	4291      	cmp	r1, r2
    33b8:	d2f9      	bcs.n	33ae <dir_sdi+0xe>
    33ba:	2900      	cmp	r1, #0
    33bc:	d117      	bne.n	33ee <dir_sdi+0x4e>
    33be:	781a      	ldrb	r2, [r3, #0]
    33c0:	2a03      	cmp	r2, #3
    33c2:	d102      	bne.n	33ca <dir_sdi+0x2a>
    33c4:	6a59      	ldr	r1, [r3, #36]	; 0x24
    33c6:	2900      	cmp	r1, #0
    33c8:	d111      	bne.n	33ee <dir_sdi+0x4e>
    33ca:	2200      	movs	r2, #0
    33cc:	60ea      	str	r2, [r5, #12]
    33ce:	891a      	ldrh	r2, [r3, #8]
    33d0:	42a2      	cmp	r2, r4
    33d2:	d9ec      	bls.n	33ae <dir_sdi+0xe>
    33d4:	6a5b      	ldr	r3, [r3, #36]	; 0x24
    33d6:	0922      	lsrs	r2, r4, #4
    33d8:	189b      	adds	r3, r3, r2
    33da:	612b      	str	r3, [r5, #16]
    33dc:	220f      	movs	r2, #15
    33de:	682b      	ldr	r3, [r5, #0]
    33e0:	4014      	ands	r4, r2
    33e2:	3330      	adds	r3, #48	; 0x30
    33e4:	0164      	lsls	r4, r4, #5
    33e6:	191c      	adds	r4, r3, r4
    33e8:	616c      	str	r4, [r5, #20]
    33ea:	2000      	movs	r0, #0
    33ec:	e7e0      	b.n	33b0 <dir_sdi+0x10>
    33ee:	789e      	ldrb	r6, [r3, #2]
    33f0:	0136      	lsls	r6, r6, #4
    33f2:	42b4      	cmp	r4, r6
    33f4:	d207      	bcs.n	3406 <dir_sdi+0x66>
    33f6:	4b0c      	ldr	r3, [pc, #48]	; (3428 <dir_sdi+0x88>)
    33f8:	60e9      	str	r1, [r5, #12]
    33fa:	6828      	ldr	r0, [r5, #0]
    33fc:	4798      	blx	r3
    33fe:	0923      	lsrs	r3, r4, #4
    3400:	1818      	adds	r0, r3, r0
    3402:	6128      	str	r0, [r5, #16]
    3404:	e7ea      	b.n	33dc <dir_sdi+0x3c>
    3406:	6828      	ldr	r0, [r5, #0]
    3408:	4b08      	ldr	r3, [pc, #32]	; (342c <dir_sdi+0x8c>)
    340a:	4798      	blx	r3
    340c:	0001      	movs	r1, r0
    340e:	1c43      	adds	r3, r0, #1
    3410:	d008      	beq.n	3424 <dir_sdi+0x84>
    3412:	2801      	cmp	r0, #1
    3414:	d9cb      	bls.n	33ae <dir_sdi+0xe>
    3416:	682b      	ldr	r3, [r5, #0]
    3418:	699b      	ldr	r3, [r3, #24]
    341a:	4298      	cmp	r0, r3
    341c:	d2c7      	bcs.n	33ae <dir_sdi+0xe>
    341e:	1ba4      	subs	r4, r4, r6
    3420:	b2a4      	uxth	r4, r4
    3422:	e7e6      	b.n	33f2 <dir_sdi+0x52>
    3424:	2001      	movs	r0, #1
    3426:	e7c3      	b.n	33b0 <dir_sdi+0x10>
    3428:	00002df5 	.word	0x00002df5
    342c:	000032c9 	.word	0x000032c9

00003430 <put_fat>:
    3430:	b5f7      	push	{r0, r1, r2, r4, r5, r6, r7, lr}
    3432:	0005      	movs	r5, r0
    3434:	000c      	movs	r4, r1
    3436:	0016      	movs	r6, r2
    3438:	2002      	movs	r0, #2
    343a:	2901      	cmp	r1, #1
    343c:	d940      	bls.n	34c0 <put_fat+0x90>
    343e:	69ab      	ldr	r3, [r5, #24]
    3440:	4299      	cmp	r1, r3
    3442:	d23d      	bcs.n	34c0 <put_fat+0x90>
    3444:	782f      	ldrb	r7, [r5, #0]
    3446:	4287      	cmp	r7, r0
    3448:	d044      	beq.n	34d4 <put_fat+0xa4>
    344a:	2f03      	cmp	r7, #3
    344c:	d054      	beq.n	34f8 <put_fat+0xc8>
    344e:	2f01      	cmp	r7, #1
    3450:	d134      	bne.n	34bc <put_fat+0x8c>
    3452:	084b      	lsrs	r3, r1, #1
    3454:	185b      	adds	r3, r3, r1
    3456:	0a59      	lsrs	r1, r3, #9
    3458:	9301      	str	r3, [sp, #4]
    345a:	6a2b      	ldr	r3, [r5, #32]
    345c:	0028      	movs	r0, r5
    345e:	18c9      	adds	r1, r1, r3
    3460:	4b34      	ldr	r3, [pc, #208]	; (3534 <put_fat+0x104>)
    3462:	4798      	blx	r3
    3464:	2800      	cmp	r0, #0
    3466:	d129      	bne.n	34bc <put_fat+0x8c>
    3468:	9b01      	ldr	r3, [sp, #4]
    346a:	4027      	ands	r7, r4
    346c:	05db      	lsls	r3, r3, #23
    346e:	0ddb      	lsrs	r3, r3, #23
    3470:	18eb      	adds	r3, r5, r3
    3472:	b2f2      	uxtb	r2, r6
    3474:	2f00      	cmp	r7, #0
    3476:	d00a      	beq.n	348e <put_fat+0x5e>
    3478:	001a      	movs	r2, r3
    347a:	210f      	movs	r1, #15
    347c:	20ff      	movs	r0, #255	; 0xff
    347e:	3230      	adds	r2, #48	; 0x30
    3480:	7812      	ldrb	r2, [r2, #0]
    3482:	0100      	lsls	r0, r0, #4
    3484:	400a      	ands	r2, r1
    3486:	0131      	lsls	r1, r6, #4
    3488:	4001      	ands	r1, r0
    348a:	430a      	orrs	r2, r1
    348c:	b2d2      	uxtb	r2, r2
    348e:	3330      	adds	r3, #48	; 0x30
    3490:	701a      	strb	r2, [r3, #0]
    3492:	2301      	movs	r3, #1
    3494:	9c01      	ldr	r4, [sp, #4]
    3496:	712b      	strb	r3, [r5, #4]
    3498:	3401      	adds	r4, #1
    349a:	6a2b      	ldr	r3, [r5, #32]
    349c:	0a61      	lsrs	r1, r4, #9
    349e:	18c9      	adds	r1, r1, r3
    34a0:	0028      	movs	r0, r5
    34a2:	4b24      	ldr	r3, [pc, #144]	; (3534 <put_fat+0x104>)
    34a4:	4798      	blx	r3
    34a6:	2800      	cmp	r0, #0
    34a8:	d108      	bne.n	34bc <put_fat+0x8c>
    34aa:	05e4      	lsls	r4, r4, #23
    34ac:	0de4      	lsrs	r4, r4, #23
    34ae:	192c      	adds	r4, r5, r4
    34b0:	2f00      	cmp	r7, #0
    34b2:	d006      	beq.n	34c2 <put_fat+0x92>
    34b4:	0936      	lsrs	r6, r6, #4
    34b6:	b2f6      	uxtb	r6, r6
    34b8:	3430      	adds	r4, #48	; 0x30
    34ba:	7026      	strb	r6, [r4, #0]
    34bc:	2301      	movs	r3, #1
    34be:	712b      	strb	r3, [r5, #4]
    34c0:	bdfe      	pop	{r1, r2, r3, r4, r5, r6, r7, pc}
    34c2:	0023      	movs	r3, r4
    34c4:	220f      	movs	r2, #15
    34c6:	3330      	adds	r3, #48	; 0x30
    34c8:	781b      	ldrb	r3, [r3, #0]
    34ca:	0a36      	lsrs	r6, r6, #8
    34cc:	4393      	bics	r3, r2
    34ce:	4016      	ands	r6, r2
    34d0:	431e      	orrs	r6, r3
    34d2:	e7f1      	b.n	34b8 <put_fat+0x88>
    34d4:	6a2b      	ldr	r3, [r5, #32]
    34d6:	0a09      	lsrs	r1, r1, #8
    34d8:	18c9      	adds	r1, r1, r3
    34da:	0028      	movs	r0, r5
    34dc:	4b15      	ldr	r3, [pc, #84]	; (3534 <put_fat+0x104>)
    34de:	4798      	blx	r3
    34e0:	2800      	cmp	r0, #0
    34e2:	d1eb      	bne.n	34bc <put_fat+0x8c>
    34e4:	23ff      	movs	r3, #255	; 0xff
    34e6:	0064      	lsls	r4, r4, #1
    34e8:	005b      	lsls	r3, r3, #1
    34ea:	401c      	ands	r4, r3
    34ec:	192c      	adds	r4, r5, r4
    34ee:	3430      	adds	r4, #48	; 0x30
    34f0:	7026      	strb	r6, [r4, #0]
    34f2:	0a36      	lsrs	r6, r6, #8
    34f4:	7066      	strb	r6, [r4, #1]
    34f6:	e7e1      	b.n	34bc <put_fat+0x8c>
    34f8:	6a2b      	ldr	r3, [r5, #32]
    34fa:	09c9      	lsrs	r1, r1, #7
    34fc:	18c9      	adds	r1, r1, r3
    34fe:	0028      	movs	r0, r5
    3500:	4b0c      	ldr	r3, [pc, #48]	; (3534 <put_fat+0x104>)
    3502:	4798      	blx	r3
    3504:	2800      	cmp	r0, #0
    3506:	d1d9      	bne.n	34bc <put_fat+0x8c>
    3508:	23fe      	movs	r3, #254	; 0xfe
    350a:	00a4      	lsls	r4, r4, #2
    350c:	005b      	lsls	r3, r3, #1
    350e:	401c      	ands	r4, r3
    3510:	0023      	movs	r3, r4
    3512:	3330      	adds	r3, #48	; 0x30
    3514:	18eb      	adds	r3, r5, r3
    3516:	78da      	ldrb	r2, [r3, #3]
    3518:	192c      	adds	r4, r5, r4
    351a:	0912      	lsrs	r2, r2, #4
    351c:	0712      	lsls	r2, r2, #28
    351e:	4316      	orrs	r6, r2
    3520:	0a32      	lsrs	r2, r6, #8
    3522:	3430      	adds	r4, #48	; 0x30
    3524:	7026      	strb	r6, [r4, #0]
    3526:	705a      	strb	r2, [r3, #1]
    3528:	0c32      	lsrs	r2, r6, #16
    352a:	0e36      	lsrs	r6, r6, #24
    352c:	709a      	strb	r2, [r3, #2]
    352e:	70de      	strb	r6, [r3, #3]
    3530:	e7c4      	b.n	34bc <put_fat+0x8c>
    3532:	46c0      	nop			; (mov r8, r8)
    3534:	00002e29 	.word	0x00002e29

00003538 <create_chain>:
    3538:	b5f8      	push	{r3, r4, r5, r6, r7, lr}
    353a:	0005      	movs	r5, r0
    353c:	1e0f      	subs	r7, r1, #0
    353e:	d10f      	bne.n	3560 <create_chain+0x28>
    3540:	68c6      	ldr	r6, [r0, #12]
    3542:	2e00      	cmp	r6, #0
    3544:	d002      	beq.n	354c <create_chain+0x14>
    3546:	6983      	ldr	r3, [r0, #24]
    3548:	429e      	cmp	r6, r3
    354a:	d300      	bcc.n	354e <create_chain+0x16>
    354c:	2601      	movs	r6, #1
    354e:	0034      	movs	r4, r6
    3550:	69ab      	ldr	r3, [r5, #24]
    3552:	3401      	adds	r4, #1
    3554:	429c      	cmp	r4, r3
    3556:	d30f      	bcc.n	3578 <create_chain+0x40>
    3558:	2e01      	cmp	r6, #1
    355a:	d80c      	bhi.n	3576 <create_chain+0x3e>
    355c:	2400      	movs	r4, #0
    355e:	e008      	b.n	3572 <create_chain+0x3a>
    3560:	4b1b      	ldr	r3, [pc, #108]	; (35d0 <create_chain+0x98>)
    3562:	4798      	blx	r3
    3564:	0004      	movs	r4, r0
    3566:	2801      	cmp	r0, #1
    3568:	d930      	bls.n	35cc <create_chain+0x94>
    356a:	69ab      	ldr	r3, [r5, #24]
    356c:	003e      	movs	r6, r7
    356e:	4298      	cmp	r0, r3
    3570:	d2ed      	bcs.n	354e <create_chain+0x16>
    3572:	0020      	movs	r0, r4
    3574:	bdf8      	pop	{r3, r4, r5, r6, r7, pc}
    3576:	2402      	movs	r4, #2
    3578:	0021      	movs	r1, r4
    357a:	0028      	movs	r0, r5
    357c:	4b14      	ldr	r3, [pc, #80]	; (35d0 <create_chain+0x98>)
    357e:	4798      	blx	r3
    3580:	2800      	cmp	r0, #0
    3582:	d009      	beq.n	3598 <create_chain+0x60>
    3584:	1c43      	adds	r3, r0, #1
    3586:	d102      	bne.n	358e <create_chain+0x56>
    3588:	2401      	movs	r4, #1
    358a:	4264      	negs	r4, r4
    358c:	e7f1      	b.n	3572 <create_chain+0x3a>
    358e:	2801      	cmp	r0, #1
    3590:	d01c      	beq.n	35cc <create_chain+0x94>
    3592:	42b4      	cmp	r4, r6
    3594:	d1dc      	bne.n	3550 <create_chain+0x18>
    3596:	e7e1      	b.n	355c <create_chain+0x24>
    3598:	4a0e      	ldr	r2, [pc, #56]	; (35d4 <create_chain+0x9c>)
    359a:	0021      	movs	r1, r4
    359c:	0028      	movs	r0, r5
    359e:	4e0e      	ldr	r6, [pc, #56]	; (35d8 <create_chain+0xa0>)
    35a0:	47b0      	blx	r6
    35a2:	2800      	cmp	r0, #0
    35a4:	d110      	bne.n	35c8 <create_chain+0x90>
    35a6:	2f00      	cmp	r7, #0
    35a8:	d108      	bne.n	35bc <create_chain+0x84>
    35aa:	692b      	ldr	r3, [r5, #16]
    35ac:	60ec      	str	r4, [r5, #12]
    35ae:	1c5a      	adds	r2, r3, #1
    35b0:	d0df      	beq.n	3572 <create_chain+0x3a>
    35b2:	3b01      	subs	r3, #1
    35b4:	612b      	str	r3, [r5, #16]
    35b6:	2301      	movs	r3, #1
    35b8:	716b      	strb	r3, [r5, #5]
    35ba:	e7da      	b.n	3572 <create_chain+0x3a>
    35bc:	0022      	movs	r2, r4
    35be:	0039      	movs	r1, r7
    35c0:	0028      	movs	r0, r5
    35c2:	47b0      	blx	r6
    35c4:	2800      	cmp	r0, #0
    35c6:	d0f0      	beq.n	35aa <create_chain+0x72>
    35c8:	2801      	cmp	r0, #1
    35ca:	d0dd      	beq.n	3588 <create_chain+0x50>
    35cc:	2401      	movs	r4, #1
    35ce:	e7d0      	b.n	3572 <create_chain+0x3a>
    35d0:	000032c9 	.word	0x000032c9
    35d4:	0fffffff 	.word	0x0fffffff
    35d8:	00003431 	.word	0x00003431

000035dc <dir_next>:
    35dc:	b5f7      	push	{r0, r1, r2, r4, r5, r6, r7, lr}
    35de:	88c6      	ldrh	r6, [r0, #6]
    35e0:	0004      	movs	r4, r0
    35e2:	3601      	adds	r6, #1
    35e4:	b2b6      	uxth	r6, r6
    35e6:	000f      	movs	r7, r1
    35e8:	2e00      	cmp	r6, #0
    35ea:	d101      	bne.n	35f0 <dir_next+0x14>
    35ec:	2004      	movs	r0, #4
    35ee:	bdfe      	pop	{r1, r2, r3, r4, r5, r6, r7, pc}
    35f0:	6903      	ldr	r3, [r0, #16]
    35f2:	2b00      	cmp	r3, #0
    35f4:	d0fa      	beq.n	35ec <dir_next+0x10>
    35f6:	220f      	movs	r2, #15
    35f8:	4032      	ands	r2, r6
    35fa:	9200      	str	r2, [sp, #0]
    35fc:	d108      	bne.n	3610 <dir_next+0x34>
    35fe:	68c1      	ldr	r1, [r0, #12]
    3600:	3301      	adds	r3, #1
    3602:	6103      	str	r3, [r0, #16]
    3604:	6800      	ldr	r0, [r0, #0]
    3606:	2900      	cmp	r1, #0
    3608:	d10b      	bne.n	3622 <dir_next+0x46>
    360a:	8903      	ldrh	r3, [r0, #8]
    360c:	42b3      	cmp	r3, r6
    360e:	d9ed      	bls.n	35ec <dir_next+0x10>
    3610:	6823      	ldr	r3, [r4, #0]
    3612:	9a00      	ldr	r2, [sp, #0]
    3614:	3330      	adds	r3, #48	; 0x30
    3616:	0152      	lsls	r2, r2, #5
    3618:	189b      	adds	r3, r3, r2
    361a:	80e6      	strh	r6, [r4, #6]
    361c:	6163      	str	r3, [r4, #20]
    361e:	2000      	movs	r0, #0
    3620:	e7e5      	b.n	35ee <dir_next+0x12>
    3622:	7883      	ldrb	r3, [r0, #2]
    3624:	0932      	lsrs	r2, r6, #4
    3626:	3b01      	subs	r3, #1
    3628:	421a      	tst	r2, r3
    362a:	d1f1      	bne.n	3610 <dir_next+0x34>
    362c:	4b26      	ldr	r3, [pc, #152]	; (36c8 <dir_next+0xec>)
    362e:	4798      	blx	r3
    3630:	0005      	movs	r5, r0
    3632:	2801      	cmp	r0, #1
    3634:	d801      	bhi.n	363a <dir_next+0x5e>
    3636:	2002      	movs	r0, #2
    3638:	e7d9      	b.n	35ee <dir_next+0x12>
    363a:	1c43      	adds	r3, r0, #1
    363c:	d101      	bne.n	3642 <dir_next+0x66>
    363e:	2001      	movs	r0, #1
    3640:	e7d5      	b.n	35ee <dir_next+0x12>
    3642:	6820      	ldr	r0, [r4, #0]
    3644:	6983      	ldr	r3, [r0, #24]
    3646:	429d      	cmp	r5, r3
    3648:	d328      	bcc.n	369c <dir_next+0xc0>
    364a:	2f00      	cmp	r7, #0
    364c:	d0ce      	beq.n	35ec <dir_next+0x10>
    364e:	68e1      	ldr	r1, [r4, #12]
    3650:	4b1e      	ldr	r3, [pc, #120]	; (36cc <dir_next+0xf0>)
    3652:	4798      	blx	r3
    3654:	0005      	movs	r5, r0
    3656:	2007      	movs	r0, #7
    3658:	2d00      	cmp	r5, #0
    365a:	d0c8      	beq.n	35ee <dir_next+0x12>
    365c:	2d01      	cmp	r5, #1
    365e:	d0ea      	beq.n	3636 <dir_next+0x5a>
    3660:	1c6b      	adds	r3, r5, #1
    3662:	d0ec      	beq.n	363e <dir_next+0x62>
    3664:	2100      	movs	r1, #0
    3666:	6820      	ldr	r0, [r4, #0]
    3668:	4b19      	ldr	r3, [pc, #100]	; (36d0 <dir_next+0xf4>)
    366a:	4798      	blx	r3
    366c:	1e07      	subs	r7, r0, #0
    366e:	d1e6      	bne.n	363e <dir_next+0x62>
    3670:	2280      	movs	r2, #128	; 0x80
    3672:	6820      	ldr	r0, [r4, #0]
    3674:	0092      	lsls	r2, r2, #2
    3676:	3030      	adds	r0, #48	; 0x30
    3678:	0039      	movs	r1, r7
    367a:	4b16      	ldr	r3, [pc, #88]	; (36d4 <dir_next+0xf8>)
    367c:	4798      	blx	r3
    367e:	6823      	ldr	r3, [r4, #0]
    3680:	0029      	movs	r1, r5
    3682:	9301      	str	r3, [sp, #4]
    3684:	0018      	movs	r0, r3
    3686:	4b14      	ldr	r3, [pc, #80]	; (36d8 <dir_next+0xfc>)
    3688:	4798      	blx	r3
    368a:	9b01      	ldr	r3, [sp, #4]
    368c:	62d8      	str	r0, [r3, #44]	; 0x2c
    368e:	6823      	ldr	r3, [r4, #0]
    3690:	789a      	ldrb	r2, [r3, #2]
    3692:	42ba      	cmp	r2, r7
    3694:	d809      	bhi.n	36aa <dir_next+0xce>
    3696:	6ada      	ldr	r2, [r3, #44]	; 0x2c
    3698:	1bd7      	subs	r7, r2, r7
    369a:	62df      	str	r7, [r3, #44]	; 0x2c
    369c:	60e5      	str	r5, [r4, #12]
    369e:	0029      	movs	r1, r5
    36a0:	6820      	ldr	r0, [r4, #0]
    36a2:	4b0d      	ldr	r3, [pc, #52]	; (36d8 <dir_next+0xfc>)
    36a4:	4798      	blx	r3
    36a6:	6120      	str	r0, [r4, #16]
    36a8:	e7b2      	b.n	3610 <dir_next+0x34>
    36aa:	2201      	movs	r2, #1
    36ac:	711a      	strb	r2, [r3, #4]
    36ae:	2100      	movs	r1, #0
    36b0:	6820      	ldr	r0, [r4, #0]
    36b2:	4b07      	ldr	r3, [pc, #28]	; (36d0 <dir_next+0xf4>)
    36b4:	4798      	blx	r3
    36b6:	2800      	cmp	r0, #0
    36b8:	d1c1      	bne.n	363e <dir_next+0x62>
    36ba:	6822      	ldr	r2, [r4, #0]
    36bc:	3701      	adds	r7, #1
    36be:	6ad3      	ldr	r3, [r2, #44]	; 0x2c
    36c0:	b2ff      	uxtb	r7, r7
    36c2:	3301      	adds	r3, #1
    36c4:	62d3      	str	r3, [r2, #44]	; 0x2c
    36c6:	e7e2      	b.n	368e <dir_next+0xb2>
    36c8:	000032c9 	.word	0x000032c9
    36cc:	00003539 	.word	0x00003539
    36d0:	00002e29 	.word	0x00002e29
    36d4:	00002de7 	.word	0x00002de7
    36d8:	00002df5 	.word	0x00002df5

000036dc <remove_chain>:
    36dc:	b5f8      	push	{r3, r4, r5, r6, r7, lr}
    36de:	0004      	movs	r4, r0
    36e0:	000d      	movs	r5, r1
    36e2:	2901      	cmp	r1, #1
    36e4:	d801      	bhi.n	36ea <remove_chain+0xe>
    36e6:	2002      	movs	r0, #2
    36e8:	bdf8      	pop	{r3, r4, r5, r6, r7, pc}
    36ea:	6983      	ldr	r3, [r0, #24]
    36ec:	2701      	movs	r7, #1
    36ee:	4299      	cmp	r1, r3
    36f0:	d2f9      	bcs.n	36e6 <remove_chain+0xa>
    36f2:	69a3      	ldr	r3, [r4, #24]
    36f4:	429d      	cmp	r5, r3
    36f6:	d205      	bcs.n	3704 <remove_chain+0x28>
    36f8:	0029      	movs	r1, r5
    36fa:	0020      	movs	r0, r4
    36fc:	4b0d      	ldr	r3, [pc, #52]	; (3734 <remove_chain+0x58>)
    36fe:	4798      	blx	r3
    3700:	1e06      	subs	r6, r0, #0
    3702:	d101      	bne.n	3708 <remove_chain+0x2c>
    3704:	2000      	movs	r0, #0
    3706:	e7ef      	b.n	36e8 <remove_chain+0xc>
    3708:	2801      	cmp	r0, #1
    370a:	d0ec      	beq.n	36e6 <remove_chain+0xa>
    370c:	1c43      	adds	r3, r0, #1
    370e:	d00e      	beq.n	372e <remove_chain+0x52>
    3710:	2200      	movs	r2, #0
    3712:	0029      	movs	r1, r5
    3714:	0020      	movs	r0, r4
    3716:	4b08      	ldr	r3, [pc, #32]	; (3738 <remove_chain+0x5c>)
    3718:	4798      	blx	r3
    371a:	2800      	cmp	r0, #0
    371c:	d1e4      	bne.n	36e8 <remove_chain+0xc>
    371e:	6923      	ldr	r3, [r4, #16]
    3720:	1c5a      	adds	r2, r3, #1
    3722:	d002      	beq.n	372a <remove_chain+0x4e>
    3724:	3301      	adds	r3, #1
    3726:	6123      	str	r3, [r4, #16]
    3728:	7167      	strb	r7, [r4, #5]
    372a:	0035      	movs	r5, r6
    372c:	e7e1      	b.n	36f2 <remove_chain+0x16>
    372e:	2001      	movs	r0, #1
    3730:	e7da      	b.n	36e8 <remove_chain+0xc>
    3732:	46c0      	nop			; (mov r8, r8)
    3734:	000032c9 	.word	0x000032c9
    3738:	00003431 	.word	0x00003431

0000373c <dir_find.part.4>:
    373c:	23ff      	movs	r3, #255	; 0xff
    373e:	b5f0      	push	{r4, r5, r6, r7, lr}
    3740:	0005      	movs	r5, r0
    3742:	001c      	movs	r4, r3
    3744:	001f      	movs	r7, r3
    3746:	b087      	sub	sp, #28
    3748:	9303      	str	r3, [sp, #12]
    374a:	6929      	ldr	r1, [r5, #16]
    374c:	6828      	ldr	r0, [r5, #0]
    374e:	4b49      	ldr	r3, [pc, #292]	; (3874 <dir_find.part.4+0x138>)
    3750:	4798      	blx	r3
    3752:	9000      	str	r0, [sp, #0]
    3754:	2800      	cmp	r0, #0
    3756:	d176      	bne.n	3846 <dir_find.part.4+0x10a>
    3758:	696e      	ldr	r6, [r5, #20]
    375a:	7833      	ldrb	r3, [r6, #0]
    375c:	2b00      	cmp	r3, #0
    375e:	d100      	bne.n	3762 <dir_find.part.4+0x26>
    3760:	e084      	b.n	386c <dir_find.part.4+0x130>
    3762:	223f      	movs	r2, #63	; 0x3f
    3764:	7af1      	ldrb	r1, [r6, #11]
    3766:	400a      	ands	r2, r1
    3768:	2be5      	cmp	r3, #229	; 0xe5
    376a:	d100      	bne.n	376e <dir_find.part.4+0x32>
    376c:	e070      	b.n	3850 <dir_find.part.4+0x114>
    376e:	0709      	lsls	r1, r1, #28
    3770:	d54f      	bpl.n	3812 <dir_find.part.4+0xd6>
    3772:	2a0f      	cmp	r2, #15
    3774:	d000      	beq.n	3778 <dir_find.part.4+0x3c>
    3776:	e06b      	b.n	3850 <dir_find.part.4+0x114>
    3778:	69ea      	ldr	r2, [r5, #28]
    377a:	9202      	str	r2, [sp, #8]
    377c:	2a00      	cmp	r2, #0
    377e:	d100      	bne.n	3782 <dir_find.part.4+0x46>
    3780:	e067      	b.n	3852 <dir_find.part.4+0x116>
    3782:	2240      	movs	r2, #64	; 0x40
    3784:	4213      	tst	r3, r2
    3786:	d061      	beq.n	384c <dir_find.part.4+0x110>
    3788:	4393      	bics	r3, r2
    378a:	7b71      	ldrb	r1, [r6, #13]
    378c:	001c      	movs	r4, r3
    378e:	88eb      	ldrh	r3, [r5, #6]
    3790:	9103      	str	r1, [sp, #12]
    3792:	842b      	strh	r3, [r5, #32]
    3794:	7b73      	ldrb	r3, [r6, #13]
    3796:	9a03      	ldr	r2, [sp, #12]
    3798:	4293      	cmp	r3, r2
    379a:	d159      	bne.n	3850 <dir_find.part.4+0x114>
    379c:	2240      	movs	r2, #64	; 0x40
    379e:	7833      	ldrb	r3, [r6, #0]
    37a0:	4393      	bics	r3, r2
    37a2:	3b01      	subs	r3, #1
    37a4:	3a33      	subs	r2, #51	; 0x33
    37a6:	435a      	muls	r2, r3
    37a8:	9200      	str	r2, [sp, #0]
    37aa:	2200      	movs	r2, #0
    37ac:	2301      	movs	r3, #1
    37ae:	9201      	str	r2, [sp, #4]
    37b0:	4a31      	ldr	r2, [pc, #196]	; (3878 <dir_find.part.4+0x13c>)
    37b2:	9901      	ldr	r1, [sp, #4]
    37b4:	5c89      	ldrb	r1, [r1, r2]
    37b6:	1872      	adds	r2, r6, r1
    37b8:	7852      	ldrb	r2, [r2, #1]
    37ba:	5c70      	ldrb	r0, [r6, r1]
    37bc:	0212      	lsls	r2, r2, #8
    37be:	4310      	orrs	r0, r2
    37c0:	2b00      	cmp	r3, #0
    37c2:	d04f      	beq.n	3864 <dir_find.part.4+0x128>
    37c4:	4b2d      	ldr	r3, [pc, #180]	; (387c <dir_find.part.4+0x140>)
    37c6:	4798      	blx	r3
    37c8:	9b00      	ldr	r3, [sp, #0]
    37ca:	9005      	str	r0, [sp, #20]
    37cc:	2bfe      	cmp	r3, #254	; 0xfe
    37ce:	d83f      	bhi.n	3850 <dir_find.part.4+0x114>
    37d0:	3301      	adds	r3, #1
    37d2:	9304      	str	r3, [sp, #16]
    37d4:	9b00      	ldr	r3, [sp, #0]
    37d6:	9a02      	ldr	r2, [sp, #8]
    37d8:	005b      	lsls	r3, r3, #1
    37da:	5a98      	ldrh	r0, [r3, r2]
    37dc:	4b27      	ldr	r3, [pc, #156]	; (387c <dir_find.part.4+0x140>)
    37de:	4798      	blx	r3
    37e0:	9a05      	ldr	r2, [sp, #20]
    37e2:	0003      	movs	r3, r0
    37e4:	4282      	cmp	r2, r0
    37e6:	d133      	bne.n	3850 <dir_find.part.4+0x114>
    37e8:	9a04      	ldr	r2, [sp, #16]
    37ea:	9200      	str	r2, [sp, #0]
    37ec:	9a01      	ldr	r2, [sp, #4]
    37ee:	3201      	adds	r2, #1
    37f0:	9201      	str	r2, [sp, #4]
    37f2:	2a0d      	cmp	r2, #13
    37f4:	d1dc      	bne.n	37b0 <dir_find.part.4+0x74>
    37f6:	7832      	ldrb	r2, [r6, #0]
    37f8:	0652      	lsls	r2, r2, #25
    37fa:	d507      	bpl.n	380c <dir_find.part.4+0xd0>
    37fc:	2b00      	cmp	r3, #0
    37fe:	d005      	beq.n	380c <dir_find.part.4+0xd0>
    3800:	9b00      	ldr	r3, [sp, #0]
    3802:	9a02      	ldr	r2, [sp, #8]
    3804:	005b      	lsls	r3, r3, #1
    3806:	5a9b      	ldrh	r3, [r3, r2]
    3808:	2b00      	cmp	r3, #0
    380a:	d121      	bne.n	3850 <dir_find.part.4+0x114>
    380c:	3c01      	subs	r4, #1
    380e:	b2e4      	uxtb	r4, r4
    3810:	e01f      	b.n	3852 <dir_find.part.4+0x116>
    3812:	2a0f      	cmp	r2, #15
    3814:	d0b0      	beq.n	3778 <dir_find.part.4+0x3c>
    3816:	2c00      	cmp	r4, #0
    3818:	d105      	bne.n	3826 <dir_find.part.4+0xea>
    381a:	4b19      	ldr	r3, [pc, #100]	; (3880 <dir_find.part.4+0x144>)
    381c:	0030      	movs	r0, r6
    381e:	4798      	blx	r3
    3820:	9b03      	ldr	r3, [sp, #12]
    3822:	4298      	cmp	r0, r3
    3824:	d00f      	beq.n	3846 <dir_find.part.4+0x10a>
    3826:	2301      	movs	r3, #1
    3828:	2101      	movs	r1, #1
    382a:	425b      	negs	r3, r3
    382c:	69aa      	ldr	r2, [r5, #24]
    382e:	842b      	strh	r3, [r5, #32]
    3830:	7ad3      	ldrb	r3, [r2, #11]
    3832:	400b      	ands	r3, r1
    3834:	d10c      	bne.n	3850 <dir_find.part.4+0x114>
    3836:	1c58      	adds	r0, r3, #1
    3838:	5cf1      	ldrb	r1, [r6, r3]
    383a:	5cd3      	ldrb	r3, [r2, r3]
    383c:	4299      	cmp	r1, r3
    383e:	d107      	bne.n	3850 <dir_find.part.4+0x114>
    3840:	0003      	movs	r3, r0
    3842:	280b      	cmp	r0, #11
    3844:	d1f7      	bne.n	3836 <dir_find.part.4+0xfa>
    3846:	9800      	ldr	r0, [sp, #0]
    3848:	b007      	add	sp, #28
    384a:	bdf0      	pop	{r4, r5, r6, r7, pc}
    384c:	42a3      	cmp	r3, r4
    384e:	d0a1      	beq.n	3794 <dir_find.part.4+0x58>
    3850:	003c      	movs	r4, r7
    3852:	2100      	movs	r1, #0
    3854:	0028      	movs	r0, r5
    3856:	4b0b      	ldr	r3, [pc, #44]	; (3884 <dir_find.part.4+0x148>)
    3858:	4798      	blx	r3
    385a:	9000      	str	r0, [sp, #0]
    385c:	2800      	cmp	r0, #0
    385e:	d100      	bne.n	3862 <dir_find.part.4+0x126>
    3860:	e773      	b.n	374a <dir_find.part.4+0xe>
    3862:	e7f0      	b.n	3846 <dir_find.part.4+0x10a>
    3864:	4a08      	ldr	r2, [pc, #32]	; (3888 <dir_find.part.4+0x14c>)
    3866:	4290      	cmp	r0, r2
    3868:	d0c0      	beq.n	37ec <dir_find.part.4+0xb0>
    386a:	e7f1      	b.n	3850 <dir_find.part.4+0x114>
    386c:	2304      	movs	r3, #4
    386e:	9300      	str	r3, [sp, #0]
    3870:	e7e9      	b.n	3846 <dir_find.part.4+0x10a>
    3872:	46c0      	nop			; (mov r8, r8)
    3874:	00002e29 	.word	0x00002e29
    3878:	00005bf4 	.word	0x00005bf4
    387c:	000041d9 	.word	0x000041d9
    3880:	00002e0d 	.word	0x00002e0d
    3884:	000035dd 	.word	0x000035dd
    3888:	0000ffff 	.word	0x0000ffff

0000388c <dir_register>:
    388c:	b5f0      	push	{r4, r5, r6, r7, lr}
    388e:	2501      	movs	r5, #1
    3890:	69c3      	ldr	r3, [r0, #28]
    3892:	6987      	ldr	r7, [r0, #24]
    3894:	b089      	sub	sp, #36	; 0x24
    3896:	9300      	str	r3, [sp, #0]
    3898:	0006      	movs	r6, r0
    389a:	4b82      	ldr	r3, [pc, #520]	; (3aa4 <dir_register+0x218>)
    389c:	220c      	movs	r2, #12
    389e:	0039      	movs	r1, r7
    38a0:	a805      	add	r0, sp, #20
    38a2:	4798      	blx	r3
    38a4:	ab02      	add	r3, sp, #8
    38a6:	7ddb      	ldrb	r3, [r3, #23]
    38a8:	422b      	tst	r3, r5
    38aa:	d063      	beq.n	3974 <dir_register+0xe8>
    38ac:	2300      	movs	r3, #0
    38ae:	72fb      	strb	r3, [r7, #11]
    38b0:	61f3      	str	r3, [r6, #28]
    38b2:	4b7c      	ldr	r3, [pc, #496]	; (3aa4 <dir_register+0x218>)
    38b4:	220b      	movs	r2, #11
    38b6:	a905      	add	r1, sp, #20
    38b8:	0038      	movs	r0, r7
    38ba:	4798      	blx	r3
    38bc:	002b      	movs	r3, r5
    38be:	2d05      	cmp	r5, #5
    38c0:	d90a      	bls.n	38d8 <dir_register+0x4c>
    38c2:	9900      	ldr	r1, [sp, #0]
    38c4:	085a      	lsrs	r2, r3, #1
    38c6:	03db      	lsls	r3, r3, #15
    38c8:	4313      	orrs	r3, r2
    38ca:	880a      	ldrh	r2, [r1, #0]
    38cc:	3102      	adds	r1, #2
    38ce:	189b      	adds	r3, r3, r2
    38d0:	880a      	ldrh	r2, [r1, #0]
    38d2:	b29b      	uxth	r3, r3
    38d4:	2a00      	cmp	r2, #0
    38d6:	d1f5      	bne.n	38c4 <dir_register+0x38>
    38d8:	2207      	movs	r2, #7
    38da:	a803      	add	r0, sp, #12
    38dc:	240f      	movs	r4, #15
    38de:	401c      	ands	r4, r3
    38e0:	0021      	movs	r1, r4
    38e2:	3130      	adds	r1, #48	; 0x30
    38e4:	2939      	cmp	r1, #57	; 0x39
    38e6:	d900      	bls.n	38ea <dir_register+0x5e>
    38e8:	3107      	adds	r1, #7
    38ea:	3a01      	subs	r2, #1
    38ec:	091b      	lsrs	r3, r3, #4
    38ee:	1884      	adds	r4, r0, r2
    38f0:	b29b      	uxth	r3, r3
    38f2:	7061      	strb	r1, [r4, #1]
    38f4:	2b00      	cmp	r3, #0
    38f6:	d1f1      	bne.n	38dc <dir_register+0x50>
    38f8:	217e      	movs	r1, #126	; 0x7e
    38fa:	5481      	strb	r1, [r0, r2]
    38fc:	429a      	cmp	r2, r3
    38fe:	d021      	beq.n	3944 <dir_register+0xb8>
    3900:	5cf9      	ldrb	r1, [r7, r3]
    3902:	2920      	cmp	r1, #32
    3904:	d11c      	bne.n	3940 <dir_register+0xb4>
    3906:	a803      	add	r0, sp, #12
    3908:	2120      	movs	r1, #32
    390a:	2a07      	cmp	r2, #7
    390c:	d801      	bhi.n	3912 <dir_register+0x86>
    390e:	5c81      	ldrb	r1, [r0, r2]
    3910:	3201      	adds	r2, #1
    3912:	54f9      	strb	r1, [r7, r3]
    3914:	3301      	adds	r3, #1
    3916:	2b07      	cmp	r3, #7
    3918:	d9f6      	bls.n	3908 <dir_register+0x7c>
    391a:	2100      	movs	r1, #0
    391c:	0030      	movs	r0, r6
    391e:	4b62      	ldr	r3, [pc, #392]	; (3aa8 <dir_register+0x21c>)
    3920:	4798      	blx	r3
    3922:	1e04      	subs	r4, r0, #0
    3924:	d11f      	bne.n	3966 <dir_register+0xda>
    3926:	0030      	movs	r0, r6
    3928:	4b60      	ldr	r3, [pc, #384]	; (3aac <dir_register+0x220>)
    392a:	4798      	blx	r3
    392c:	1e04      	subs	r4, r0, #0
    392e:	d11a      	bne.n	3966 <dir_register+0xda>
    3930:	3501      	adds	r5, #1
    3932:	b2ad      	uxth	r5, r5
    3934:	2d64      	cmp	r5, #100	; 0x64
    3936:	d1bc      	bne.n	38b2 <dir_register+0x26>
    3938:	3407      	adds	r4, #7
    393a:	0020      	movs	r0, r4
    393c:	b009      	add	sp, #36	; 0x24
    393e:	bdf0      	pop	{r4, r5, r6, r7, pc}
    3940:	3301      	adds	r3, #1
    3942:	e7db      	b.n	38fc <dir_register+0x70>
    3944:	0013      	movs	r3, r2
    3946:	e7de      	b.n	3906 <dir_register+0x7a>
    3948:	3001      	adds	r0, #1
    394a:	b280      	uxth	r0, r0
    394c:	9a00      	ldr	r2, [sp, #0]
    394e:	0043      	lsls	r3, r0, #1
    3950:	5a9b      	ldrh	r3, [r3, r2]
    3952:	2b00      	cmp	r3, #0
    3954:	d1f8      	bne.n	3948 <dir_register+0xbc>
    3956:	3019      	adds	r0, #25
    3958:	210d      	movs	r1, #13
    395a:	4b55      	ldr	r3, [pc, #340]	; (3ab0 <dir_register+0x224>)
    395c:	4798      	blx	r3
    395e:	b285      	uxth	r5, r0
    3960:	e00e      	b.n	3980 <dir_register+0xf4>
    3962:	0007      	movs	r7, r0
    3964:	e029      	b.n	39ba <dir_register+0x12e>
    3966:	2c04      	cmp	r4, #4
    3968:	d1e7      	bne.n	393a <dir_register+0xae>
    396a:	ab02      	add	r3, sp, #8
    396c:	7ddb      	ldrb	r3, [r3, #23]
    396e:	72fb      	strb	r3, [r7, #11]
    3970:	9b00      	ldr	r3, [sp, #0]
    3972:	61f3      	str	r3, [r6, #28]
    3974:	ab02      	add	r3, sp, #8
    3976:	7ddb      	ldrb	r3, [r3, #23]
    3978:	2501      	movs	r5, #1
    397a:	2000      	movs	r0, #0
    397c:	079b      	lsls	r3, r3, #30
    397e:	d4e5      	bmi.n	394c <dir_register+0xc0>
    3980:	2100      	movs	r1, #0
    3982:	0030      	movs	r0, r6
    3984:	4b48      	ldr	r3, [pc, #288]	; (3aa8 <dir_register+0x21c>)
    3986:	4798      	blx	r3
    3988:	1e04      	subs	r4, r0, #0
    398a:	d1d6      	bne.n	393a <dir_register+0xae>
    398c:	0007      	movs	r7, r0
    398e:	9000      	str	r0, [sp, #0]
    3990:	6931      	ldr	r1, [r6, #16]
    3992:	6830      	ldr	r0, [r6, #0]
    3994:	4b47      	ldr	r3, [pc, #284]	; (3ab4 <dir_register+0x228>)
    3996:	4798      	blx	r3
    3998:	1e04      	subs	r4, r0, #0
    399a:	d1ce      	bne.n	393a <dir_register+0xae>
    399c:	6973      	ldr	r3, [r6, #20]
    399e:	781b      	ldrb	r3, [r3, #0]
    39a0:	2be5      	cmp	r3, #229	; 0xe5
    39a2:	d001      	beq.n	39a8 <dir_register+0x11c>
    39a4:	2b00      	cmp	r3, #0
    39a6:	d1dc      	bne.n	3962 <dir_register+0xd6>
    39a8:	2f00      	cmp	r7, #0
    39aa:	d101      	bne.n	39b0 <dir_register+0x124>
    39ac:	88f3      	ldrh	r3, [r6, #6]
    39ae:	9300      	str	r3, [sp, #0]
    39b0:	1c7b      	adds	r3, r7, #1
    39b2:	b29b      	uxth	r3, r3
    39b4:	429d      	cmp	r5, r3
    39b6:	d007      	beq.n	39c8 <dir_register+0x13c>
    39b8:	001f      	movs	r7, r3
    39ba:	2101      	movs	r1, #1
    39bc:	0030      	movs	r0, r6
    39be:	4b3e      	ldr	r3, [pc, #248]	; (3ab8 <dir_register+0x22c>)
    39c0:	4798      	blx	r3
    39c2:	1e04      	subs	r4, r0, #0
    39c4:	d0e4      	beq.n	3990 <dir_register+0x104>
    39c6:	e7b8      	b.n	393a <dir_register+0xae>
    39c8:	2d01      	cmp	r5, #1
    39ca:	d94f      	bls.n	3a6c <dir_register+0x1e0>
    39cc:	9900      	ldr	r1, [sp, #0]
    39ce:	0030      	movs	r0, r6
    39d0:	4b35      	ldr	r3, [pc, #212]	; (3aa8 <dir_register+0x21c>)
    39d2:	4798      	blx	r3
    39d4:	1e04      	subs	r4, r0, #0
    39d6:	d1b0      	bne.n	393a <dir_register+0xae>
    39d8:	69b0      	ldr	r0, [r6, #24]
    39da:	4b38      	ldr	r3, [pc, #224]	; (3abc <dir_register+0x230>)
    39dc:	4798      	blx	r3
    39de:	9001      	str	r0, [sp, #4]
    39e0:	6931      	ldr	r1, [r6, #16]
    39e2:	6830      	ldr	r0, [r6, #0]
    39e4:	4b33      	ldr	r3, [pc, #204]	; (3ab4 <dir_register+0x228>)
    39e6:	4798      	blx	r3
    39e8:	1e04      	subs	r4, r0, #0
    39ea:	d1a6      	bne.n	393a <dir_register+0xae>
    39ec:	466a      	mov	r2, sp
    39ee:	69f3      	ldr	r3, [r6, #28]
    39f0:	7912      	ldrb	r2, [r2, #4]
    39f2:	469c      	mov	ip, r3
    39f4:	6973      	ldr	r3, [r6, #20]
    39f6:	240d      	movs	r4, #13
    39f8:	735a      	strb	r2, [r3, #13]
    39fa:	220f      	movs	r2, #15
    39fc:	b2f9      	uxtb	r1, r7
    39fe:	72da      	strb	r2, [r3, #11]
    3a00:	1e4a      	subs	r2, r1, #1
    3a02:	4354      	muls	r4, r2
    3a04:	9400      	str	r4, [sp, #0]
    3a06:	0004      	movs	r4, r0
    3a08:	7318      	strb	r0, [r3, #12]
    3a0a:	7698      	strb	r0, [r3, #26]
    3a0c:	76d8      	strb	r0, [r3, #27]
    3a0e:	4d2c      	ldr	r5, [pc, #176]	; (3ac0 <dir_register+0x234>)
    3a10:	42a8      	cmp	r0, r5
    3a12:	d005      	beq.n	3a20 <dir_register+0x194>
    3a14:	4665      	mov	r5, ip
    3a16:	9a00      	ldr	r2, [sp, #0]
    3a18:	0050      	lsls	r0, r2, #1
    3a1a:	5b40      	ldrh	r0, [r0, r5]
    3a1c:	3201      	adds	r2, #1
    3a1e:	9200      	str	r2, [sp, #0]
    3a20:	4d28      	ldr	r5, [pc, #160]	; (3ac4 <dir_register+0x238>)
    3a22:	5d65      	ldrb	r5, [r4, r5]
    3a24:	5558      	strb	r0, [r3, r5]
    3a26:	195a      	adds	r2, r3, r5
    3a28:	0a05      	lsrs	r5, r0, #8
    3a2a:	7055      	strb	r5, [r2, #1]
    3a2c:	2800      	cmp	r0, #0
    3a2e:	d100      	bne.n	3a32 <dir_register+0x1a6>
    3a30:	4823      	ldr	r0, [pc, #140]	; (3ac0 <dir_register+0x234>)
    3a32:	3401      	adds	r4, #1
    3a34:	2c0d      	cmp	r4, #13
    3a36:	d1ea      	bne.n	3a0e <dir_register+0x182>
    3a38:	4c21      	ldr	r4, [pc, #132]	; (3ac0 <dir_register+0x234>)
    3a3a:	42a0      	cmp	r0, r4
    3a3c:	d005      	beq.n	3a4a <dir_register+0x1be>
    3a3e:	4660      	mov	r0, ip
    3a40:	9a00      	ldr	r2, [sp, #0]
    3a42:	0052      	lsls	r2, r2, #1
    3a44:	5a12      	ldrh	r2, [r2, r0]
    3a46:	2a00      	cmp	r2, #0
    3a48:	d101      	bne.n	3a4e <dir_register+0x1c2>
    3a4a:	2240      	movs	r2, #64	; 0x40
    3a4c:	4311      	orrs	r1, r2
    3a4e:	7019      	strb	r1, [r3, #0]
    3a50:	2301      	movs	r3, #1
    3a52:	6832      	ldr	r2, [r6, #0]
    3a54:	2100      	movs	r1, #0
    3a56:	7113      	strb	r3, [r2, #4]
    3a58:	0030      	movs	r0, r6
    3a5a:	4b17      	ldr	r3, [pc, #92]	; (3ab8 <dir_register+0x22c>)
    3a5c:	4798      	blx	r3
    3a5e:	1e04      	subs	r4, r0, #0
    3a60:	d000      	beq.n	3a64 <dir_register+0x1d8>
    3a62:	e76a      	b.n	393a <dir_register+0xae>
    3a64:	3f01      	subs	r7, #1
    3a66:	b2bf      	uxth	r7, r7
    3a68:	2f00      	cmp	r7, #0
    3a6a:	d1b9      	bne.n	39e0 <dir_register+0x154>
    3a6c:	6931      	ldr	r1, [r6, #16]
    3a6e:	6830      	ldr	r0, [r6, #0]
    3a70:	4b10      	ldr	r3, [pc, #64]	; (3ab4 <dir_register+0x228>)
    3a72:	4798      	blx	r3
    3a74:	1e04      	subs	r4, r0, #0
    3a76:	d000      	beq.n	3a7a <dir_register+0x1ee>
    3a78:	e75f      	b.n	393a <dir_register+0xae>
    3a7a:	6975      	ldr	r5, [r6, #20]
    3a7c:	0001      	movs	r1, r0
    3a7e:	2220      	movs	r2, #32
    3a80:	0028      	movs	r0, r5
    3a82:	4b11      	ldr	r3, [pc, #68]	; (3ac8 <dir_register+0x23c>)
    3a84:	4798      	blx	r3
    3a86:	220b      	movs	r2, #11
    3a88:	4b06      	ldr	r3, [pc, #24]	; (3aa4 <dir_register+0x218>)
    3a8a:	69b1      	ldr	r1, [r6, #24]
    3a8c:	0028      	movs	r0, r5
    3a8e:	4798      	blx	r3
    3a90:	2218      	movs	r2, #24
    3a92:	69b3      	ldr	r3, [r6, #24]
    3a94:	7adb      	ldrb	r3, [r3, #11]
    3a96:	4013      	ands	r3, r2
    3a98:	732b      	strb	r3, [r5, #12]
    3a9a:	6833      	ldr	r3, [r6, #0]
    3a9c:	3a17      	subs	r2, #23
    3a9e:	711a      	strb	r2, [r3, #4]
    3aa0:	e74b      	b.n	393a <dir_register+0xae>
    3aa2:	46c0      	nop			; (mov r8, r8)
    3aa4:	00002dd5 	.word	0x00002dd5
    3aa8:	000033a1 	.word	0x000033a1
    3aac:	0000373d 	.word	0x0000373d
    3ab0:	000045c5 	.word	0x000045c5
    3ab4:	00002e29 	.word	0x00002e29
    3ab8:	000035dd 	.word	0x000035dd
    3abc:	00002e0d 	.word	0x00002e0d
    3ac0:	0000ffff 	.word	0x0000ffff
    3ac4:	00005bf4 	.word	0x00005bf4
    3ac8:	00002de7 	.word	0x00002de7

00003acc <follow_path>:
    3acc:	b5f0      	push	{r4, r5, r6, r7, lr}
    3ace:	780b      	ldrb	r3, [r1, #0]
    3ad0:	b087      	sub	sp, #28
    3ad2:	0007      	movs	r7, r0
    3ad4:	9101      	str	r1, [sp, #4]
    3ad6:	2b2f      	cmp	r3, #47	; 0x2f
    3ad8:	d001      	beq.n	3ade <follow_path+0x12>
    3ada:	2b5c      	cmp	r3, #92	; 0x5c
    3adc:	d102      	bne.n	3ae4 <follow_path+0x18>
    3ade:	9b01      	ldr	r3, [sp, #4]
    3ae0:	3301      	adds	r3, #1
    3ae2:	9301      	str	r3, [sp, #4]
    3ae4:	2400      	movs	r4, #0
    3ae6:	9b01      	ldr	r3, [sp, #4]
    3ae8:	60bc      	str	r4, [r7, #8]
    3aea:	781b      	ldrb	r3, [r3, #0]
    3aec:	2b1f      	cmp	r3, #31
    3aee:	d809      	bhi.n	3b04 <follow_path+0x38>
    3af0:	0021      	movs	r1, r4
    3af2:	0038      	movs	r0, r7
    3af4:	4b94      	ldr	r3, [pc, #592]	; (3d48 <follow_path+0x27c>)
    3af6:	4798      	blx	r3
    3af8:	617c      	str	r4, [r7, #20]
    3afa:	b007      	add	sp, #28
    3afc:	bdf0      	pop	{r4, r5, r6, r7, pc}
    3afe:	9b01      	ldr	r3, [sp, #4]
    3b00:	3301      	adds	r3, #1
    3b02:	9301      	str	r3, [sp, #4]
    3b04:	9b01      	ldr	r3, [sp, #4]
    3b06:	781b      	ldrb	r3, [r3, #0]
    3b08:	2b2f      	cmp	r3, #47	; 0x2f
    3b0a:	d0f8      	beq.n	3afe <follow_path+0x32>
    3b0c:	2b5c      	cmp	r3, #92	; 0x5c
    3b0e:	d0f6      	beq.n	3afe <follow_path+0x32>
    3b10:	2400      	movs	r4, #0
    3b12:	69fb      	ldr	r3, [r7, #28]
    3b14:	9305      	str	r3, [sp, #20]
    3b16:	9b01      	ldr	r3, [sp, #4]
    3b18:	0026      	movs	r6, r4
    3b1a:	5d18      	ldrb	r0, [r3, r4]
    3b1c:	1c65      	adds	r5, r4, #1
    3b1e:	281f      	cmp	r0, #31
    3b20:	d91b      	bls.n	3b5a <follow_path+0x8e>
    3b22:	282f      	cmp	r0, #47	; 0x2f
    3b24:	d019      	beq.n	3b5a <follow_path+0x8e>
    3b26:	285c      	cmp	r0, #92	; 0x5c
    3b28:	d017      	beq.n	3b5a <follow_path+0x8e>
    3b2a:	2cff      	cmp	r4, #255	; 0xff
    3b2c:	d00e      	beq.n	3b4c <follow_path+0x80>
    3b2e:	2101      	movs	r1, #1
    3b30:	4b86      	ldr	r3, [pc, #536]	; (3d4c <follow_path+0x280>)
    3b32:	4798      	blx	r3
    3b34:	2800      	cmp	r0, #0
    3b36:	d009      	beq.n	3b4c <follow_path+0x80>
    3b38:	287f      	cmp	r0, #127	; 0x7f
    3b3a:	d809      	bhi.n	3b50 <follow_path+0x84>
    3b3c:	2300      	movs	r3, #0
    3b3e:	4984      	ldr	r1, [pc, #528]	; (3d50 <follow_path+0x284>)
    3b40:	5cca      	ldrb	r2, [r1, r3]
    3b42:	2a00      	cmp	r2, #0
    3b44:	d004      	beq.n	3b50 <follow_path+0x84>
    3b46:	3301      	adds	r3, #1
    3b48:	4282      	cmp	r2, r0
    3b4a:	d1f9      	bne.n	3b40 <follow_path+0x74>
    3b4c:	2006      	movs	r0, #6
    3b4e:	e7d4      	b.n	3afa <follow_path+0x2e>
    3b50:	9b05      	ldr	r3, [sp, #20]
    3b52:	0064      	lsls	r4, r4, #1
    3b54:	5318      	strh	r0, [r3, r4]
    3b56:	002c      	movs	r4, r5
    3b58:	e7dd      	b.n	3b16 <follow_path+0x4a>
    3b5a:	9b01      	ldr	r3, [sp, #4]
    3b5c:	2400      	movs	r4, #0
    3b5e:	195b      	adds	r3, r3, r5
    3b60:	9301      	str	r3, [sp, #4]
    3b62:	231f      	movs	r3, #31
    3b64:	4283      	cmp	r3, r0
    3b66:	4164      	adcs	r4, r4
    3b68:	00a4      	lsls	r4, r4, #2
    3b6a:	2e00      	cmp	r6, #0
    3b6c:	d0ee      	beq.n	3b4c <follow_path+0x80>
    3b6e:	9a05      	ldr	r2, [sp, #20]
    3b70:	0073      	lsls	r3, r6, #1
    3b72:	18d3      	adds	r3, r2, r3
    3b74:	1e9a      	subs	r2, r3, #2
    3b76:	8812      	ldrh	r2, [r2, #0]
    3b78:	2a20      	cmp	r2, #32
    3b7a:	d002      	beq.n	3b82 <follow_path+0xb6>
    3b7c:	2a2e      	cmp	r2, #46	; 0x2e
    3b7e:	d000      	beq.n	3b82 <follow_path+0xb6>
    3b80:	e085      	b.n	3c8e <follow_path+0x1c2>
    3b82:	3e01      	subs	r6, #1
    3b84:	e7f1      	b.n	3b6a <follow_path+0x9e>
    3b86:	3301      	adds	r3, #1
    3b88:	9905      	ldr	r1, [sp, #20]
    3b8a:	005a      	lsls	r2, r3, #1
    3b8c:	5a8a      	ldrh	r2, [r1, r2]
    3b8e:	2a20      	cmp	r2, #32
    3b90:	d0f9      	beq.n	3b86 <follow_path+0xba>
    3b92:	2a2e      	cmp	r2, #46	; 0x2e
    3b94:	d0f7      	beq.n	3b86 <follow_path+0xba>
    3b96:	2b00      	cmp	r3, #0
    3b98:	d002      	beq.n	3ba0 <follow_path+0xd4>
    3b9a:	2203      	movs	r2, #3
    3b9c:	4314      	orrs	r4, r2
    3b9e:	b2e4      	uxtb	r4, r4
    3ba0:	0072      	lsls	r2, r6, #1
    3ba2:	9905      	ldr	r1, [sp, #20]
    3ba4:	3a02      	subs	r2, #2
    3ba6:	5a8a      	ldrh	r2, [r1, r2]
    3ba8:	2a2e      	cmp	r2, #46	; 0x2e
    3baa:	d002      	beq.n	3bb2 <follow_path+0xe6>
    3bac:	3e01      	subs	r6, #1
    3bae:	2e00      	cmp	r6, #0
    3bb0:	d1f6      	bne.n	3ba0 <follow_path+0xd4>
    3bb2:	2208      	movs	r2, #8
    3bb4:	9202      	str	r2, [sp, #8]
    3bb6:	2200      	movs	r2, #0
    3bb8:	0015      	movs	r5, r2
    3bba:	9204      	str	r2, [sp, #16]
    3bbc:	1c5a      	adds	r2, r3, #1
    3bbe:	9203      	str	r2, [sp, #12]
    3bc0:	9a05      	ldr	r2, [sp, #20]
    3bc2:	005b      	lsls	r3, r3, #1
    3bc4:	5a98      	ldrh	r0, [r3, r2]
    3bc6:	2800      	cmp	r0, #0
    3bc8:	d076      	beq.n	3cb8 <follow_path+0x1ec>
    3bca:	2820      	cmp	r0, #32
    3bcc:	d004      	beq.n	3bd8 <follow_path+0x10c>
    3bce:	282e      	cmp	r0, #46	; 0x2e
    3bd0:	d107      	bne.n	3be2 <follow_path+0x116>
    3bd2:	9b03      	ldr	r3, [sp, #12]
    3bd4:	42b3      	cmp	r3, r6
    3bd6:	d063      	beq.n	3ca0 <follow_path+0x1d4>
    3bd8:	2303      	movs	r3, #3
    3bda:	431c      	orrs	r4, r3
    3bdc:	b2e4      	uxtb	r4, r4
    3bde:	9b03      	ldr	r3, [sp, #12]
    3be0:	e7ec      	b.n	3bbc <follow_path+0xf0>
    3be2:	9b04      	ldr	r3, [sp, #16]
    3be4:	9a02      	ldr	r2, [sp, #8]
    3be6:	4293      	cmp	r3, r2
    3be8:	d25e      	bcs.n	3ca8 <follow_path+0x1dc>
    3bea:	9b03      	ldr	r3, [sp, #12]
    3bec:	42b3      	cmp	r3, r6
    3bee:	d114      	bne.n	3c1a <follow_path+0x14e>
    3bf0:	9b02      	ldr	r3, [sp, #8]
    3bf2:	2b0b      	cmp	r3, #11
    3bf4:	d109      	bne.n	3c0a <follow_path+0x13e>
    3bf6:	e05a      	b.n	3cae <follow_path+0x1e2>
    3bf8:	9b03      	ldr	r3, [sp, #12]
    3bfa:	42b3      	cmp	r3, r6
    3bfc:	d005      	beq.n	3c0a <follow_path+0x13e>
    3bfe:	2303      	movs	r3, #3
    3c00:	431c      	orrs	r4, r3
    3c02:	9b03      	ldr	r3, [sp, #12]
    3c04:	b2e4      	uxtb	r4, r4
    3c06:	42b3      	cmp	r3, r6
    3c08:	d856      	bhi.n	3cb8 <follow_path+0x1ec>
    3c0a:	230b      	movs	r3, #11
    3c0c:	00ad      	lsls	r5, r5, #2
    3c0e:	9302      	str	r3, [sp, #8]
    3c10:	b2ed      	uxtb	r5, r5
    3c12:	9603      	str	r6, [sp, #12]
    3c14:	3b03      	subs	r3, #3
    3c16:	9304      	str	r3, [sp, #16]
    3c18:	e7e1      	b.n	3bde <follow_path+0x112>
    3c1a:	287f      	cmp	r0, #127	; 0x7f
    3c1c:	d90f      	bls.n	3c3e <follow_path+0x172>
    3c1e:	4b4b      	ldr	r3, [pc, #300]	; (3d4c <follow_path+0x280>)
    3c20:	2100      	movs	r1, #0
    3c22:	4798      	blx	r3
    3c24:	2300      	movs	r3, #0
    3c26:	4298      	cmp	r0, r3
    3c28:	d003      	beq.n	3c32 <follow_path+0x166>
    3c2a:	4b4a      	ldr	r3, [pc, #296]	; (3d54 <follow_path+0x288>)
    3c2c:	1818      	adds	r0, r3, r0
    3c2e:	3880      	subs	r0, #128	; 0x80
    3c30:	7803      	ldrb	r3, [r0, #0]
    3c32:	b298      	uxth	r0, r3
    3c34:	2302      	movs	r3, #2
    3c36:	431c      	orrs	r4, r3
    3c38:	b2e4      	uxtb	r4, r4
    3c3a:	2800      	cmp	r0, #0
    3c3c:	d007      	beq.n	3c4e <follow_path+0x182>
    3c3e:	2300      	movs	r3, #0
    3c40:	4945      	ldr	r1, [pc, #276]	; (3d58 <follow_path+0x28c>)
    3c42:	5cca      	ldrb	r2, [r1, r3]
    3c44:	2a00      	cmp	r2, #0
    3c46:	d072      	beq.n	3d2e <follow_path+0x262>
    3c48:	3301      	adds	r3, #1
    3c4a:	4282      	cmp	r2, r0
    3c4c:	d1f9      	bne.n	3c42 <follow_path+0x176>
    3c4e:	2303      	movs	r3, #3
    3c50:	205f      	movs	r0, #95	; 0x5f
    3c52:	431c      	orrs	r4, r3
    3c54:	b2e4      	uxtb	r4, r4
    3c56:	69bb      	ldr	r3, [r7, #24]
    3c58:	9a04      	ldr	r2, [sp, #16]
    3c5a:	5498      	strb	r0, [r3, r2]
    3c5c:	0013      	movs	r3, r2
    3c5e:	3301      	adds	r3, #1
    3c60:	e7d9      	b.n	3c16 <follow_path+0x14a>
    3c62:	2302      	movs	r3, #2
    3c64:	431d      	orrs	r5, r3
    3c66:	e7f6      	b.n	3c56 <follow_path+0x18a>
    3c68:	075b      	lsls	r3, r3, #29
    3c6a:	d500      	bpl.n	3c6e <follow_path+0x1a2>
    3c6c:	e745      	b.n	3afa <follow_path+0x2e>
    3c6e:	697b      	ldr	r3, [r7, #20]
    3c70:	7ada      	ldrb	r2, [r3, #11]
    3c72:	06d2      	lsls	r2, r2, #27
    3c74:	d559      	bpl.n	3d2a <follow_path+0x25e>
    3c76:	7d59      	ldrb	r1, [r3, #21]
    3c78:	7d1a      	ldrb	r2, [r3, #20]
    3c7a:	0209      	lsls	r1, r1, #8
    3c7c:	430a      	orrs	r2, r1
    3c7e:	7ed9      	ldrb	r1, [r3, #27]
    3c80:	7e9b      	ldrb	r3, [r3, #26]
    3c82:	0209      	lsls	r1, r1, #8
    3c84:	0412      	lsls	r2, r2, #16
    3c86:	430b      	orrs	r3, r1
    3c88:	4313      	orrs	r3, r2
    3c8a:	60bb      	str	r3, [r7, #8]
    3c8c:	e73a      	b.n	3b04 <follow_path+0x38>
    3c8e:	2500      	movs	r5, #0
    3c90:	801d      	strh	r5, [r3, #0]
    3c92:	220b      	movs	r2, #11
    3c94:	4b31      	ldr	r3, [pc, #196]	; (3d5c <follow_path+0x290>)
    3c96:	2120      	movs	r1, #32
    3c98:	69b8      	ldr	r0, [r7, #24]
    3c9a:	4798      	blx	r3
    3c9c:	002b      	movs	r3, r5
    3c9e:	e773      	b.n	3b88 <follow_path+0xbc>
    3ca0:	9b04      	ldr	r3, [sp, #16]
    3ca2:	9a02      	ldr	r2, [sp, #8]
    3ca4:	4293      	cmp	r3, r2
    3ca6:	d3a3      	bcc.n	3bf0 <follow_path+0x124>
    3ca8:	9b02      	ldr	r3, [sp, #8]
    3caa:	2b0b      	cmp	r3, #11
    3cac:	d1a4      	bne.n	3bf8 <follow_path+0x12c>
    3cae:	2303      	movs	r3, #3
    3cb0:	431c      	orrs	r4, r3
    3cb2:	3308      	adds	r3, #8
    3cb4:	b2e4      	uxtb	r4, r4
    3cb6:	9302      	str	r3, [sp, #8]
    3cb8:	69bb      	ldr	r3, [r7, #24]
    3cba:	781a      	ldrb	r2, [r3, #0]
    3cbc:	2ae5      	cmp	r2, #229	; 0xe5
    3cbe:	d101      	bne.n	3cc4 <follow_path+0x1f8>
    3cc0:	3ae0      	subs	r2, #224	; 0xe0
    3cc2:	701a      	strb	r2, [r3, #0]
    3cc4:	9b02      	ldr	r3, [sp, #8]
    3cc6:	2b08      	cmp	r3, #8
    3cc8:	d101      	bne.n	3cce <follow_path+0x202>
    3cca:	00ad      	lsls	r5, r5, #2
    3ccc:	b2ed      	uxtb	r5, r5
    3cce:	230c      	movs	r3, #12
    3cd0:	402b      	ands	r3, r5
    3cd2:	2b0c      	cmp	r3, #12
    3cd4:	d003      	beq.n	3cde <follow_path+0x212>
    3cd6:	2203      	movs	r2, #3
    3cd8:	402a      	ands	r2, r5
    3cda:	2a03      	cmp	r2, #3
    3cdc:	d102      	bne.n	3ce4 <follow_path+0x218>
    3cde:	2202      	movs	r2, #2
    3ce0:	4314      	orrs	r4, r2
    3ce2:	b2e4      	uxtb	r4, r4
    3ce4:	07a2      	lsls	r2, r4, #30
    3ce6:	d40b      	bmi.n	3d00 <follow_path+0x234>
    3ce8:	2203      	movs	r2, #3
    3cea:	4015      	ands	r5, r2
    3cec:	2d01      	cmp	r5, #1
    3cee:	d102      	bne.n	3cf6 <follow_path+0x22a>
    3cf0:	320d      	adds	r2, #13
    3cf2:	4314      	orrs	r4, r2
    3cf4:	b2e4      	uxtb	r4, r4
    3cf6:	2b04      	cmp	r3, #4
    3cf8:	d102      	bne.n	3d00 <follow_path+0x234>
    3cfa:	3304      	adds	r3, #4
    3cfc:	431c      	orrs	r4, r3
    3cfe:	b2e4      	uxtb	r4, r4
    3d00:	69bb      	ldr	r3, [r7, #24]
    3d02:	2100      	movs	r1, #0
    3d04:	72dc      	strb	r4, [r3, #11]
    3d06:	0038      	movs	r0, r7
    3d08:	4b0f      	ldr	r3, [pc, #60]	; (3d48 <follow_path+0x27c>)
    3d0a:	4798      	blx	r3
    3d0c:	2800      	cmp	r0, #0
    3d0e:	d102      	bne.n	3d16 <follow_path+0x24a>
    3d10:	0038      	movs	r0, r7
    3d12:	4b13      	ldr	r3, [pc, #76]	; (3d60 <follow_path+0x294>)
    3d14:	4798      	blx	r3
    3d16:	69bb      	ldr	r3, [r7, #24]
    3d18:	7adb      	ldrb	r3, [r3, #11]
    3d1a:	2800      	cmp	r0, #0
    3d1c:	d0a4      	beq.n	3c68 <follow_path+0x19c>
    3d1e:	2804      	cmp	r0, #4
    3d20:	d000      	beq.n	3d24 <follow_path+0x258>
    3d22:	e6ea      	b.n	3afa <follow_path+0x2e>
    3d24:	4203      	tst	r3, r0
    3d26:	d000      	beq.n	3d2a <follow_path+0x25e>
    3d28:	e6e7      	b.n	3afa <follow_path+0x2e>
    3d2a:	2005      	movs	r0, #5
    3d2c:	e6e5      	b.n	3afa <follow_path+0x2e>
    3d2e:	0003      	movs	r3, r0
    3d30:	3b41      	subs	r3, #65	; 0x41
    3d32:	2b19      	cmp	r3, #25
    3d34:	d995      	bls.n	3c62 <follow_path+0x196>
    3d36:	0003      	movs	r3, r0
    3d38:	3b61      	subs	r3, #97	; 0x61
    3d3a:	2b19      	cmp	r3, #25
    3d3c:	d88b      	bhi.n	3c56 <follow_path+0x18a>
    3d3e:	2301      	movs	r3, #1
    3d40:	3820      	subs	r0, #32
    3d42:	431d      	orrs	r5, r3
    3d44:	b280      	uxth	r0, r0
    3d46:	e786      	b.n	3c56 <follow_path+0x18a>
    3d48:	000033a1 	.word	0x000033a1
    3d4c:	0000419d 	.word	0x0000419d
    3d50:	00005c81 	.word	0x00005c81
    3d54:	00005c01 	.word	0x00005c01
    3d58:	00005c8a 	.word	0x00005c8a
    3d5c:	00002de7 	.word	0x00002de7
    3d60:	0000373d 	.word	0x0000373d

00003d64 <f_mount>:
    3d64:	b510      	push	{r4, lr}
    3d66:	230b      	movs	r3, #11
    3d68:	2807      	cmp	r0, #7
    3d6a:	d80b      	bhi.n	3d84 <f_mount+0x20>
    3d6c:	2200      	movs	r2, #0
    3d6e:	4b06      	ldr	r3, [pc, #24]	; (3d88 <f_mount+0x24>)
    3d70:	0080      	lsls	r0, r0, #2
    3d72:	58c4      	ldr	r4, [r0, r3]
    3d74:	4294      	cmp	r4, r2
    3d76:	d000      	beq.n	3d7a <f_mount+0x16>
    3d78:	7022      	strb	r2, [r4, #0]
    3d7a:	2900      	cmp	r1, #0
    3d7c:	d000      	beq.n	3d80 <f_mount+0x1c>
    3d7e:	700a      	strb	r2, [r1, #0]
    3d80:	5019      	str	r1, [r3, r0]
    3d82:	2300      	movs	r3, #0
    3d84:	0018      	movs	r0, r3
    3d86:	bd10      	pop	{r4, pc}
    3d88:	2000014c 	.word	0x2000014c

00003d8c <f_open>:
    3d8c:	b5f0      	push	{r4, r5, r6, r7, lr}
    3d8e:	271f      	movs	r7, #31
    3d90:	0015      	movs	r5, r2
    3d92:	2300      	movs	r3, #0
    3d94:	4017      	ands	r7, r2
    3d96:	221e      	movs	r2, #30
    3d98:	4c4d      	ldr	r4, [pc, #308]	; (3ed0 <f_open+0x144>)
    3d9a:	6003      	str	r3, [r0, #0]
    3d9c:	44a5      	add	sp, r4
    3d9e:	9101      	str	r1, [sp, #4]
    3da0:	4b4c      	ldr	r3, [pc, #304]	; (3ed4 <f_open+0x148>)
    3da2:	0006      	movs	r6, r0
    3da4:	402a      	ands	r2, r5
    3da6:	a905      	add	r1, sp, #20
    3da8:	a801      	add	r0, sp, #4
    3daa:	4798      	blx	r3
    3dac:	ab02      	add	r3, sp, #8
    3dae:	930b      	str	r3, [sp, #44]	; 0x2c
    3db0:	ab0e      	add	r3, sp, #56	; 0x38
    3db2:	930c      	str	r3, [sp, #48]	; 0x30
    3db4:	2800      	cmp	r0, #0
    3db6:	d103      	bne.n	3dc0 <f_open+0x34>
    3db8:	9901      	ldr	r1, [sp, #4]
    3dba:	a805      	add	r0, sp, #20
    3dbc:	4b46      	ldr	r3, [pc, #280]	; (3ed8 <f_open+0x14c>)
    3dbe:	4798      	blx	r3
    3dc0:	9c0a      	ldr	r4, [sp, #40]	; 0x28
    3dc2:	2800      	cmp	r0, #0
    3dc4:	d102      	bne.n	3dcc <f_open+0x40>
    3dc6:	2c00      	cmp	r4, #0
    3dc8:	d100      	bne.n	3dcc <f_open+0x40>
    3dca:	3006      	adds	r0, #6
    3dcc:	231c      	movs	r3, #28
    3dce:	421d      	tst	r5, r3
    3dd0:	d100      	bne.n	3dd4 <f_open+0x48>
    3dd2:	e06f      	b.n	3eb4 <f_open+0x128>
    3dd4:	2800      	cmp	r0, #0
    3dd6:	d00d      	beq.n	3df4 <f_open+0x68>
    3dd8:	2804      	cmp	r0, #4
    3dda:	d102      	bne.n	3de2 <f_open+0x56>
    3ddc:	a805      	add	r0, sp, #20
    3dde:	4b3f      	ldr	r3, [pc, #252]	; (3edc <f_open+0x150>)
    3de0:	4798      	blx	r3
    3de2:	2308      	movs	r3, #8
    3de4:	9c0a      	ldr	r4, [sp, #40]	; 0x28
    3de6:	431f      	orrs	r7, r3
    3de8:	2800      	cmp	r0, #0
    3dea:	d00b      	beq.n	3e04 <f_open+0x78>
    3dec:	238f      	movs	r3, #143	; 0x8f
    3dee:	009b      	lsls	r3, r3, #2
    3df0:	449d      	add	sp, r3
    3df2:	bdf0      	pop	{r4, r5, r6, r7, pc}
    3df4:	2311      	movs	r3, #17
    3df6:	7ae2      	ldrb	r2, [r4, #11]
    3df8:	2007      	movs	r0, #7
    3dfa:	421a      	tst	r2, r3
    3dfc:	d1f6      	bne.n	3dec <f_open+0x60>
    3dfe:	3001      	adds	r0, #1
    3e00:	076b      	lsls	r3, r5, #29
    3e02:	d4f3      	bmi.n	3dec <f_open+0x60>
    3e04:	073b      	lsls	r3, r7, #28
    3e06:	d52f      	bpl.n	3e68 <f_open+0xdc>
    3e08:	4b35      	ldr	r3, [pc, #212]	; (3ee0 <f_open+0x154>)
    3e0a:	4798      	blx	r3
    3e0c:	0a03      	lsrs	r3, r0, #8
    3e0e:	73e3      	strb	r3, [r4, #15]
    3e10:	0c03      	lsrs	r3, r0, #16
    3e12:	7423      	strb	r3, [r4, #16]
    3e14:	2300      	movs	r3, #0
    3e16:	7d62      	ldrb	r2, [r4, #21]
    3e18:	7d25      	ldrb	r5, [r4, #20]
    3e1a:	7ee1      	ldrb	r1, [r4, #27]
    3e1c:	0212      	lsls	r2, r2, #8
    3e1e:	73a0      	strb	r0, [r4, #14]
    3e20:	4315      	orrs	r5, r2
    3e22:	0e00      	lsrs	r0, r0, #24
    3e24:	7ea2      	ldrb	r2, [r4, #26]
    3e26:	7460      	strb	r0, [r4, #17]
    3e28:	0209      	lsls	r1, r1, #8
    3e2a:	9805      	ldr	r0, [sp, #20]
    3e2c:	72e3      	strb	r3, [r4, #11]
    3e2e:	7723      	strb	r3, [r4, #28]
    3e30:	7763      	strb	r3, [r4, #29]
    3e32:	77a3      	strb	r3, [r4, #30]
    3e34:	77e3      	strb	r3, [r4, #31]
    3e36:	76a3      	strb	r3, [r4, #26]
    3e38:	76e3      	strb	r3, [r4, #27]
    3e3a:	7523      	strb	r3, [r4, #20]
    3e3c:	7563      	strb	r3, [r4, #21]
    3e3e:	042d      	lsls	r5, r5, #16
    3e40:	430a      	orrs	r2, r1
    3e42:	3301      	adds	r3, #1
    3e44:	4315      	orrs	r5, r2
    3e46:	7103      	strb	r3, [r0, #4]
    3e48:	d00e      	beq.n	3e68 <f_open+0xdc>
    3e4a:	6ac3      	ldr	r3, [r0, #44]	; 0x2c
    3e4c:	0029      	movs	r1, r5
    3e4e:	9300      	str	r3, [sp, #0]
    3e50:	4b24      	ldr	r3, [pc, #144]	; (3ee4 <f_open+0x158>)
    3e52:	4798      	blx	r3
    3e54:	2800      	cmp	r0, #0
    3e56:	d1c9      	bne.n	3dec <f_open+0x60>
    3e58:	9805      	ldr	r0, [sp, #20]
    3e5a:	3d01      	subs	r5, #1
    3e5c:	60c5      	str	r5, [r0, #12]
    3e5e:	9900      	ldr	r1, [sp, #0]
    3e60:	4b21      	ldr	r3, [pc, #132]	; (3ee8 <f_open+0x15c>)
    3e62:	4798      	blx	r3
    3e64:	2800      	cmp	r0, #0
    3e66:	d1c1      	bne.n	3dec <f_open+0x60>
    3e68:	073b      	lsls	r3, r7, #28
    3e6a:	d501      	bpl.n	3e70 <f_open+0xe4>
    3e6c:	2320      	movs	r3, #32
    3e6e:	431f      	orrs	r7, r3
    3e70:	9a05      	ldr	r2, [sp, #20]
    3e72:	6ad3      	ldr	r3, [r2, #44]	; 0x2c
    3e74:	6234      	str	r4, [r6, #32]
    3e76:	61f3      	str	r3, [r6, #28]
    3e78:	71b7      	strb	r7, [r6, #6]
    3e7a:	7d61      	ldrb	r1, [r4, #21]
    3e7c:	7d23      	ldrb	r3, [r4, #20]
    3e7e:	7ee0      	ldrb	r0, [r4, #27]
    3e80:	0209      	lsls	r1, r1, #8
    3e82:	430b      	orrs	r3, r1
    3e84:	7ea1      	ldrb	r1, [r4, #26]
    3e86:	0200      	lsls	r0, r0, #8
    3e88:	4301      	orrs	r1, r0
    3e8a:	2000      	movs	r0, #0
    3e8c:	041b      	lsls	r3, r3, #16
    3e8e:	430b      	orrs	r3, r1
    3e90:	6133      	str	r3, [r6, #16]
    3e92:	7f61      	ldrb	r1, [r4, #29]
    3e94:	7f23      	ldrb	r3, [r4, #28]
    3e96:	0209      	lsls	r1, r1, #8
    3e98:	4319      	orrs	r1, r3
    3e9a:	7fa3      	ldrb	r3, [r4, #30]
    3e9c:	041b      	lsls	r3, r3, #16
    3e9e:	4319      	orrs	r1, r3
    3ea0:	7fe3      	ldrb	r3, [r4, #31]
    3ea2:	60b0      	str	r0, [r6, #8]
    3ea4:	061b      	lsls	r3, r3, #24
    3ea6:	430b      	orrs	r3, r1
    3ea8:	60f3      	str	r3, [r6, #12]
    3eaa:	61b0      	str	r0, [r6, #24]
    3eac:	6032      	str	r2, [r6, #0]
    3eae:	88d3      	ldrh	r3, [r2, #6]
    3eb0:	80b3      	strh	r3, [r6, #4]
    3eb2:	e79b      	b.n	3dec <f_open+0x60>
    3eb4:	2800      	cmp	r0, #0
    3eb6:	d199      	bne.n	3dec <f_open+0x60>
    3eb8:	7ae3      	ldrb	r3, [r4, #11]
    3eba:	3004      	adds	r0, #4
    3ebc:	06da      	lsls	r2, r3, #27
    3ebe:	d500      	bpl.n	3ec2 <f_open+0x136>
    3ec0:	e794      	b.n	3dec <f_open+0x60>
    3ec2:	07aa      	lsls	r2, r5, #30
    3ec4:	d5d0      	bpl.n	3e68 <f_open+0xdc>
    3ec6:	3003      	adds	r0, #3
    3ec8:	07db      	lsls	r3, r3, #31
    3eca:	d500      	bpl.n	3ece <f_open+0x142>
    3ecc:	e78e      	b.n	3dec <f_open+0x60>
    3ece:	e7cb      	b.n	3e68 <f_open+0xdc>
    3ed0:	fffffdc4 	.word	0xfffffdc4
    3ed4:	00003049 	.word	0x00003049
    3ed8:	00003acd 	.word	0x00003acd
    3edc:	0000388d 	.word	0x0000388d
    3ee0:	00002d8d 	.word	0x00002d8d
    3ee4:	000036dd 	.word	0x000036dd
    3ee8:	00002e29 	.word	0x00002e29

00003eec <f_write>:
    3eec:	b5f0      	push	{r4, r5, r6, r7, lr}
    3eee:	b087      	sub	sp, #28
    3ef0:	9305      	str	r3, [sp, #20]
    3ef2:	2300      	movs	r3, #0
    3ef4:	9201      	str	r2, [sp, #4]
    3ef6:	9a05      	ldr	r2, [sp, #20]
    3ef8:	0004      	movs	r4, r0
    3efa:	6013      	str	r3, [r2, #0]
    3efc:	000d      	movs	r5, r1
    3efe:	4b65      	ldr	r3, [pc, #404]	; (4094 <f_write+0x1a8>)
    3f00:	8881      	ldrh	r1, [r0, #4]
    3f02:	6800      	ldr	r0, [r0, #0]
    3f04:	4798      	blx	r3
    3f06:	1e06      	subs	r6, r0, #0
    3f08:	d13a      	bne.n	3f80 <f_write+0x94>
    3f0a:	79a2      	ldrb	r2, [r4, #6]
    3f0c:	2302      	movs	r3, #2
    3f0e:	b251      	sxtb	r1, r2
    3f10:	2900      	cmp	r1, #0
    3f12:	db34      	blt.n	3f7e <f_write+0x92>
    3f14:	421a      	tst	r2, r3
    3f16:	d100      	bne.n	3f1a <f_write+0x2e>
    3f18:	e0ba      	b.n	4090 <f_write+0x1a4>
    3f1a:	68e3      	ldr	r3, [r4, #12]
    3f1c:	9a01      	ldr	r2, [sp, #4]
    3f1e:	18d2      	adds	r2, r2, r3
    3f20:	4293      	cmp	r3, r2
    3f22:	d803      	bhi.n	3f2c <f_write+0x40>
    3f24:	9502      	str	r5, [sp, #8]
    3f26:	9b01      	ldr	r3, [sp, #4]
    3f28:	2b00      	cmp	r3, #0
    3f2a:	d109      	bne.n	3f40 <f_write+0x54>
    3f2c:	68a3      	ldr	r3, [r4, #8]
    3f2e:	68e2      	ldr	r2, [r4, #12]
    3f30:	4293      	cmp	r3, r2
    3f32:	d900      	bls.n	3f36 <f_write+0x4a>
    3f34:	e0aa      	b.n	408c <f_write+0x1a0>
    3f36:	2320      	movs	r3, #32
    3f38:	79a2      	ldrb	r2, [r4, #6]
    3f3a:	4313      	orrs	r3, r2
    3f3c:	71a3      	strb	r3, [r4, #6]
    3f3e:	e01f      	b.n	3f80 <f_write+0x94>
    3f40:	68a3      	ldr	r3, [r4, #8]
    3f42:	05da      	lsls	r2, r3, #23
    3f44:	d000      	beq.n	3f48 <f_write+0x5c>
    3f46:	e083      	b.n	4050 <f_write+0x164>
    3f48:	6820      	ldr	r0, [r4, #0]
    3f4a:	0a5a      	lsrs	r2, r3, #9
    3f4c:	7881      	ldrb	r1, [r0, #2]
    3f4e:	3901      	subs	r1, #1
    3f50:	400a      	ands	r2, r1
    3f52:	b2d2      	uxtb	r2, r2
    3f54:	9203      	str	r2, [sp, #12]
    3f56:	2a00      	cmp	r2, #0
    3f58:	d124      	bne.n	3fa4 <f_write+0xb8>
    3f5a:	2b00      	cmp	r3, #0
    3f5c:	d113      	bne.n	3f86 <f_write+0x9a>
    3f5e:	6921      	ldr	r1, [r4, #16]
    3f60:	2900      	cmp	r1, #0
    3f62:	d105      	bne.n	3f70 <f_write+0x84>
    3f64:	4b4c      	ldr	r3, [pc, #304]	; (4098 <f_write+0x1ac>)
    3f66:	4798      	blx	r3
    3f68:	0001      	movs	r1, r0
    3f6a:	6120      	str	r0, [r4, #16]
    3f6c:	2900      	cmp	r1, #0
    3f6e:	d0dd      	beq.n	3f2c <f_write+0x40>
    3f70:	2901      	cmp	r1, #1
    3f72:	d10d      	bne.n	3f90 <f_write+0xa4>
    3f74:	2380      	movs	r3, #128	; 0x80
    3f76:	79a2      	ldrb	r2, [r4, #6]
    3f78:	425b      	negs	r3, r3
    3f7a:	4313      	orrs	r3, r2
    3f7c:	71a3      	strb	r3, [r4, #6]
    3f7e:	2602      	movs	r6, #2
    3f80:	0030      	movs	r0, r6
    3f82:	b007      	add	sp, #28
    3f84:	bdf0      	pop	{r4, r5, r6, r7, pc}
    3f86:	6961      	ldr	r1, [r4, #20]
    3f88:	4b43      	ldr	r3, [pc, #268]	; (4098 <f_write+0x1ac>)
    3f8a:	4798      	blx	r3
    3f8c:	0001      	movs	r1, r0
    3f8e:	e7ed      	b.n	3f6c <f_write+0x80>
    3f90:	1c4b      	adds	r3, r1, #1
    3f92:	d106      	bne.n	3fa2 <f_write+0xb6>
    3f94:	2380      	movs	r3, #128	; 0x80
    3f96:	79a2      	ldrb	r2, [r4, #6]
    3f98:	425b      	negs	r3, r3
    3f9a:	4313      	orrs	r3, r2
    3f9c:	71a3      	strb	r3, [r4, #6]
    3f9e:	2601      	movs	r6, #1
    3fa0:	e7ee      	b.n	3f80 <f_write+0x94>
    3fa2:	6161      	str	r1, [r4, #20]
    3fa4:	6820      	ldr	r0, [r4, #0]
    3fa6:	69a2      	ldr	r2, [r4, #24]
    3fa8:	6ac3      	ldr	r3, [r0, #44]	; 0x2c
    3faa:	4293      	cmp	r3, r2
    3fac:	d104      	bne.n	3fb8 <f_write+0xcc>
    3fae:	2100      	movs	r1, #0
    3fb0:	4b3a      	ldr	r3, [pc, #232]	; (409c <f_write+0x1b0>)
    3fb2:	4798      	blx	r3
    3fb4:	2800      	cmp	r0, #0
    3fb6:	d1ed      	bne.n	3f94 <f_write+0xa8>
    3fb8:	6827      	ldr	r7, [r4, #0]
    3fba:	6961      	ldr	r1, [r4, #20]
    3fbc:	0038      	movs	r0, r7
    3fbe:	4b38      	ldr	r3, [pc, #224]	; (40a0 <f_write+0x1b4>)
    3fc0:	4798      	blx	r3
    3fc2:	2800      	cmp	r0, #0
    3fc4:	d0d6      	beq.n	3f74 <f_write+0x88>
    3fc6:	9b03      	ldr	r3, [sp, #12]
    3fc8:	18c3      	adds	r3, r0, r3
    3fca:	9304      	str	r3, [sp, #16]
    3fcc:	9b01      	ldr	r3, [sp, #4]
    3fce:	0a5d      	lsrs	r5, r3, #9
    3fd0:	d02f      	beq.n	4032 <f_write+0x146>
    3fd2:	9a03      	ldr	r2, [sp, #12]
    3fd4:	78bb      	ldrb	r3, [r7, #2]
    3fd6:	1952      	adds	r2, r2, r5
    3fd8:	429a      	cmp	r2, r3
    3fda:	d901      	bls.n	3fe0 <f_write+0xf4>
    3fdc:	9a03      	ldr	r2, [sp, #12]
    3fde:	1a9d      	subs	r5, r3, r2
    3fe0:	7878      	ldrb	r0, [r7, #1]
    3fe2:	b2eb      	uxtb	r3, r5
    3fe4:	4f2f      	ldr	r7, [pc, #188]	; (40a4 <f_write+0x1b8>)
    3fe6:	9a04      	ldr	r2, [sp, #16]
    3fe8:	9902      	ldr	r1, [sp, #8]
    3fea:	47b8      	blx	r7
    3fec:	1e07      	subs	r7, r0, #0
    3fee:	d1d1      	bne.n	3f94 <f_write+0xa8>
    3ff0:	6820      	ldr	r0, [r4, #0]
    3ff2:	9a04      	ldr	r2, [sp, #16]
    3ff4:	6ac3      	ldr	r3, [r0, #44]	; 0x2c
    3ff6:	1a99      	subs	r1, r3, r2
    3ff8:	428d      	cmp	r5, r1
    3ffa:	d909      	bls.n	4010 <f_write+0x124>
    3ffc:	2280      	movs	r2, #128	; 0x80
    3ffe:	9b02      	ldr	r3, [sp, #8]
    4000:	0249      	lsls	r1, r1, #9
    4002:	1859      	adds	r1, r3, r1
    4004:	3030      	adds	r0, #48	; 0x30
    4006:	4b28      	ldr	r3, [pc, #160]	; (40a8 <f_write+0x1bc>)
    4008:	0092      	lsls	r2, r2, #2
    400a:	4798      	blx	r3
    400c:	6823      	ldr	r3, [r4, #0]
    400e:	711f      	strb	r7, [r3, #4]
    4010:	026d      	lsls	r5, r5, #9
    4012:	9b02      	ldr	r3, [sp, #8]
    4014:	9a05      	ldr	r2, [sp, #20]
    4016:	195b      	adds	r3, r3, r5
    4018:	9302      	str	r3, [sp, #8]
    401a:	68a3      	ldr	r3, [r4, #8]
    401c:	195b      	adds	r3, r3, r5
    401e:	60a3      	str	r3, [r4, #8]
    4020:	9b05      	ldr	r3, [sp, #20]
    4022:	681b      	ldr	r3, [r3, #0]
    4024:	9303      	str	r3, [sp, #12]
    4026:	195b      	adds	r3, r3, r5
    4028:	6013      	str	r3, [r2, #0]
    402a:	9b01      	ldr	r3, [sp, #4]
    402c:	1b5b      	subs	r3, r3, r5
    402e:	9301      	str	r3, [sp, #4]
    4030:	e779      	b.n	3f26 <f_write+0x3a>
    4032:	68a3      	ldr	r3, [r4, #8]
    4034:	68e2      	ldr	r2, [r4, #12]
    4036:	4293      	cmp	r3, r2
    4038:	d308      	bcc.n	404c <f_write+0x160>
    403a:	0029      	movs	r1, r5
    403c:	0038      	movs	r0, r7
    403e:	4b17      	ldr	r3, [pc, #92]	; (409c <f_write+0x1b0>)
    4040:	4798      	blx	r3
    4042:	2800      	cmp	r0, #0
    4044:	d1a6      	bne.n	3f94 <f_write+0xa8>
    4046:	6823      	ldr	r3, [r4, #0]
    4048:	9a04      	ldr	r2, [sp, #16]
    404a:	62da      	str	r2, [r3, #44]	; 0x2c
    404c:	9b04      	ldr	r3, [sp, #16]
    404e:	61a3      	str	r3, [r4, #24]
    4050:	2280      	movs	r2, #128	; 0x80
    4052:	68a3      	ldr	r3, [r4, #8]
    4054:	9d01      	ldr	r5, [sp, #4]
    4056:	05db      	lsls	r3, r3, #23
    4058:	0ddb      	lsrs	r3, r3, #23
    405a:	0092      	lsls	r2, r2, #2
    405c:	1ad3      	subs	r3, r2, r3
    405e:	429d      	cmp	r5, r3
    4060:	d900      	bls.n	4064 <f_write+0x178>
    4062:	001d      	movs	r5, r3
    4064:	69a1      	ldr	r1, [r4, #24]
    4066:	6820      	ldr	r0, [r4, #0]
    4068:	4b0c      	ldr	r3, [pc, #48]	; (409c <f_write+0x1b0>)
    406a:	4798      	blx	r3
    406c:	2800      	cmp	r0, #0
    406e:	d191      	bne.n	3f94 <f_write+0xa8>
    4070:	68a3      	ldr	r3, [r4, #8]
    4072:	002a      	movs	r2, r5
    4074:	05d8      	lsls	r0, r3, #23
    4076:	0dc0      	lsrs	r0, r0, #23
    4078:	6823      	ldr	r3, [r4, #0]
    407a:	3030      	adds	r0, #48	; 0x30
    407c:	1818      	adds	r0, r3, r0
    407e:	9902      	ldr	r1, [sp, #8]
    4080:	4b09      	ldr	r3, [pc, #36]	; (40a8 <f_write+0x1bc>)
    4082:	4798      	blx	r3
    4084:	2201      	movs	r2, #1
    4086:	6823      	ldr	r3, [r4, #0]
    4088:	711a      	strb	r2, [r3, #4]
    408a:	e7c2      	b.n	4012 <f_write+0x126>
    408c:	60e3      	str	r3, [r4, #12]
    408e:	e752      	b.n	3f36 <f_write+0x4a>
    4090:	2607      	movs	r6, #7
    4092:	e775      	b.n	3f80 <f_write+0x94>
    4094:	00002f9d 	.word	0x00002f9d
    4098:	00003539 	.word	0x00003539
    409c:	00002e29 	.word	0x00002e29
    40a0:	00002df5 	.word	0x00002df5
    40a4:	00002cb5 	.word	0x00002cb5
    40a8:	00002dd5 	.word	0x00002dd5

000040ac <f_sync>:
    40ac:	b570      	push	{r4, r5, r6, lr}
    40ae:	4b1e      	ldr	r3, [pc, #120]	; (4128 <f_sync+0x7c>)
    40b0:	0004      	movs	r4, r0
    40b2:	8881      	ldrh	r1, [r0, #4]
    40b4:	6800      	ldr	r0, [r0, #0]
    40b6:	4798      	blx	r3
    40b8:	2800      	cmp	r0, #0
    40ba:	d133      	bne.n	4124 <f_sync+0x78>
    40bc:	2620      	movs	r6, #32
    40be:	79a3      	ldrb	r3, [r4, #6]
    40c0:	4233      	tst	r3, r6
    40c2:	d02f      	beq.n	4124 <f_sync+0x78>
    40c4:	69e1      	ldr	r1, [r4, #28]
    40c6:	6820      	ldr	r0, [r4, #0]
    40c8:	4b18      	ldr	r3, [pc, #96]	; (412c <f_sync+0x80>)
    40ca:	4798      	blx	r3
    40cc:	2800      	cmp	r0, #0
    40ce:	d129      	bne.n	4124 <f_sync+0x78>
    40d0:	6a25      	ldr	r5, [r4, #32]
    40d2:	7aeb      	ldrb	r3, [r5, #11]
    40d4:	4333      	orrs	r3, r6
    40d6:	72eb      	strb	r3, [r5, #11]
    40d8:	7b23      	ldrb	r3, [r4, #12]
    40da:	772b      	strb	r3, [r5, #28]
    40dc:	7b63      	ldrb	r3, [r4, #13]
    40de:	776b      	strb	r3, [r5, #29]
    40e0:	68e3      	ldr	r3, [r4, #12]
    40e2:	0c1b      	lsrs	r3, r3, #16
    40e4:	77ab      	strb	r3, [r5, #30]
    40e6:	68e3      	ldr	r3, [r4, #12]
    40e8:	0e1b      	lsrs	r3, r3, #24
    40ea:	77eb      	strb	r3, [r5, #31]
    40ec:	7c23      	ldrb	r3, [r4, #16]
    40ee:	76ab      	strb	r3, [r5, #26]
    40f0:	7c63      	ldrb	r3, [r4, #17]
    40f2:	76eb      	strb	r3, [r5, #27]
    40f4:	6923      	ldr	r3, [r4, #16]
    40f6:	0c1b      	lsrs	r3, r3, #16
    40f8:	752b      	strb	r3, [r5, #20]
    40fa:	6923      	ldr	r3, [r4, #16]
    40fc:	0e1b      	lsrs	r3, r3, #24
    40fe:	756b      	strb	r3, [r5, #21]
    4100:	4b0b      	ldr	r3, [pc, #44]	; (4130 <f_sync+0x84>)
    4102:	4798      	blx	r3
    4104:	0a03      	lsrs	r3, r0, #8
    4106:	75a8      	strb	r0, [r5, #22]
    4108:	75eb      	strb	r3, [r5, #23]
    410a:	0c03      	lsrs	r3, r0, #16
    410c:	0e00      	lsrs	r0, r0, #24
    410e:	762b      	strb	r3, [r5, #24]
    4110:	7668      	strb	r0, [r5, #25]
    4112:	79a3      	ldrb	r3, [r4, #6]
    4114:	6822      	ldr	r2, [r4, #0]
    4116:	43b3      	bics	r3, r6
    4118:	71a3      	strb	r3, [r4, #6]
    411a:	2301      	movs	r3, #1
    411c:	7113      	strb	r3, [r2, #4]
    411e:	6820      	ldr	r0, [r4, #0]
    4120:	4b04      	ldr	r3, [pc, #16]	; (4134 <f_sync+0x88>)
    4122:	4798      	blx	r3
    4124:	bd70      	pop	{r4, r5, r6, pc}
    4126:	46c0      	nop			; (mov r8, r8)
    4128:	00002f9d 	.word	0x00002f9d
    412c:	00002e29 	.word	0x00002e29
    4130:	00002d8d 	.word	0x00002d8d
    4134:	00002ea9 	.word	0x00002ea9

00004138 <f_close>:
    4138:	b510      	push	{r4, lr}
    413a:	4b03      	ldr	r3, [pc, #12]	; (4148 <f_close+0x10>)
    413c:	0004      	movs	r4, r0
    413e:	4798      	blx	r3
    4140:	2800      	cmp	r0, #0
    4142:	d100      	bne.n	4146 <f_close+0xe>
    4144:	6020      	str	r0, [r4, #0]
    4146:	bd10      	pop	{r4, pc}
    4148:	000040ad 	.word	0x000040ad

0000414c <f_putc>:
    414c:	b513      	push	{r0, r1, r4, lr}
    414e:	0003      	movs	r3, r0
    4150:	466a      	mov	r2, sp
    4152:	0008      	movs	r0, r1
    4154:	7013      	strb	r3, [r2, #0]
    4156:	4669      	mov	r1, sp
    4158:	ab01      	add	r3, sp, #4
    415a:	2201      	movs	r2, #1
    415c:	4c04      	ldr	r4, [pc, #16]	; (4170 <f_putc+0x24>)
    415e:	47a0      	blx	r4
    4160:	9b01      	ldr	r3, [sp, #4]
    4162:	1e58      	subs	r0, r3, #1
    4164:	1e43      	subs	r3, r0, #1
    4166:	4198      	sbcs	r0, r3
    4168:	2301      	movs	r3, #1
    416a:	4240      	negs	r0, r0
    416c:	4318      	orrs	r0, r3
    416e:	bd16      	pop	{r1, r2, r4, pc}
    4170:	00003eed 	.word	0x00003eed

00004174 <f_puts>:
    4174:	b570      	push	{r4, r5, r6, lr}
    4176:	0005      	movs	r5, r0
    4178:	000e      	movs	r6, r1
    417a:	0004      	movs	r4, r0
    417c:	7823      	ldrb	r3, [r4, #0]
    417e:	1b60      	subs	r0, r4, r5
    4180:	2b00      	cmp	r3, #0
    4182:	d100      	bne.n	4186 <f_puts+0x12>
    4184:	bd70      	pop	{r4, r5, r6, pc}
    4186:	0018      	movs	r0, r3
    4188:	0031      	movs	r1, r6
    418a:	4b03      	ldr	r3, [pc, #12]	; (4198 <f_puts+0x24>)
    418c:	4798      	blx	r3
    418e:	1c43      	adds	r3, r0, #1
    4190:	d0f8      	beq.n	4184 <f_puts+0x10>
    4192:	3401      	adds	r4, #1
    4194:	e7f2      	b.n	417c <f_puts+0x8>
    4196:	46c0      	nop			; (mov r8, r8)
    4198:	0000414d 	.word	0x0000414d

0000419c <ff_convert>:
    419c:	b510      	push	{r4, lr}
    419e:	287f      	cmp	r0, #127	; 0x7f
    41a0:	d907      	bls.n	41b2 <ff_convert+0x16>
    41a2:	2900      	cmp	r1, #0
    41a4:	d006      	beq.n	41b4 <ff_convert+0x18>
    41a6:	28ff      	cmp	r0, #255	; 0xff
    41a8:	d811      	bhi.n	41ce <ff_convert+0x32>
    41aa:	3880      	subs	r0, #128	; 0x80
    41ac:	4b09      	ldr	r3, [pc, #36]	; (41d4 <ff_convert+0x38>)
    41ae:	0040      	lsls	r0, r0, #1
    41b0:	5ac0      	ldrh	r0, [r0, r3]
    41b2:	bd10      	pop	{r4, pc}
    41b4:	4a07      	ldr	r2, [pc, #28]	; (41d4 <ff_convert+0x38>)
    41b6:	004c      	lsls	r4, r1, #1
    41b8:	5aa4      	ldrh	r4, [r4, r2]
    41ba:	b28b      	uxth	r3, r1
    41bc:	4284      	cmp	r4, r0
    41be:	d003      	beq.n	41c8 <ff_convert+0x2c>
    41c0:	3101      	adds	r1, #1
    41c2:	2980      	cmp	r1, #128	; 0x80
    41c4:	d1f7      	bne.n	41b6 <ff_convert+0x1a>
    41c6:	000b      	movs	r3, r1
    41c8:	3380      	adds	r3, #128	; 0x80
    41ca:	b2d8      	uxtb	r0, r3
    41cc:	e7f1      	b.n	41b2 <ff_convert+0x16>
    41ce:	2000      	movs	r0, #0
    41d0:	e7ef      	b.n	41b2 <ff_convert+0x16>
    41d2:	46c0      	nop			; (mov r8, r8)
    41d4:	00005c92 	.word	0x00005c92

000041d8 <ff_wtoupper>:
    41d8:	2300      	movs	r3, #0
    41da:	b510      	push	{r4, lr}
    41dc:	4c05      	ldr	r4, [pc, #20]	; (41f4 <ff_wtoupper+0x1c>)
    41de:	005a      	lsls	r2, r3, #1
    41e0:	5b11      	ldrh	r1, [r2, r4]
    41e2:	2900      	cmp	r1, #0
    41e4:	d003      	beq.n	41ee <ff_wtoupper+0x16>
    41e6:	4281      	cmp	r1, r0
    41e8:	d102      	bne.n	41f0 <ff_wtoupper+0x18>
    41ea:	4b03      	ldr	r3, [pc, #12]	; (41f8 <ff_wtoupper+0x20>)
    41ec:	5ad0      	ldrh	r0, [r2, r3]
    41ee:	bd10      	pop	{r4, pc}
    41f0:	3301      	adds	r3, #1
    41f2:	e7f4      	b.n	41de <ff_wtoupper+0x6>
    41f4:	00005d92 	.word	0x00005d92
    41f8:	00005f72 	.word	0x00005f72

000041fc <usart_serial_getchar>:
    41fc:	b573      	push	{r0, r1, r4, r5, r6, lr}
    41fe:	466b      	mov	r3, sp
    4200:	1d9c      	adds	r4, r3, #6
    4202:	2300      	movs	r3, #0
    4204:	0006      	movs	r6, r0
    4206:	000d      	movs	r5, r1
    4208:	8023      	strh	r3, [r4, #0]
    420a:	0021      	movs	r1, r4
    420c:	0030      	movs	r0, r6
    420e:	4b03      	ldr	r3, [pc, #12]	; (421c <usart_serial_getchar+0x20>)
    4210:	4798      	blx	r3
    4212:	2800      	cmp	r0, #0
    4214:	d1f9      	bne.n	420a <usart_serial_getchar+0xe>
    4216:	8823      	ldrh	r3, [r4, #0]
    4218:	702b      	strb	r3, [r5, #0]
    421a:	bd73      	pop	{r0, r1, r4, r5, r6, pc}
    421c:	00002133 	.word	0x00002133

00004220 <usart_serial_putchar>:
    4220:	b570      	push	{r4, r5, r6, lr}
    4222:	0004      	movs	r4, r0
    4224:	000d      	movs	r5, r1
    4226:	b2a9      	uxth	r1, r5
    4228:	0020      	movs	r0, r4
    422a:	4b02      	ldr	r3, [pc, #8]	; (4234 <usart_serial_putchar+0x14>)
    422c:	4798      	blx	r3
    422e:	2800      	cmp	r0, #0
    4230:	d1f9      	bne.n	4226 <usart_serial_putchar+0x6>
    4232:	bd70      	pop	{r4, r5, r6, pc}
    4234:	00002111 	.word	0x00002111

00004238 <main>:
    4238:	b5f0      	push	{r4, r5, r6, r7, lr}
    423a:	4c6a      	ldr	r4, [pc, #424]	; (43e4 <main+0x1ac>)
    423c:	2212      	movs	r2, #18
    423e:	44a5      	add	sp, r4
    4240:	4969      	ldr	r1, [pc, #420]	; (43e8 <main+0x1b0>)
    4242:	4b6a      	ldr	r3, [pc, #424]	; (43ec <main+0x1b4>)
    4244:	4668      	mov	r0, sp
    4246:	4798      	blx	r3
    4248:	4b69      	ldr	r3, [pc, #420]	; (43f0 <main+0x1b8>)
    424a:	4798      	blx	r3
    424c:	4b69      	ldr	r3, [pc, #420]	; (43f4 <main+0x1bc>)
    424e:	4798      	blx	r3
    4250:	2380      	movs	r3, #128	; 0x80
    4252:	05db      	lsls	r3, r3, #23
    4254:	930e      	str	r3, [sp, #56]	; 0x38
    4256:	23ff      	movs	r3, #255	; 0xff
    4258:	2201      	movs	r2, #1
    425a:	ac0e      	add	r4, sp, #56	; 0x38
    425c:	8123      	strh	r3, [r4, #8]
    425e:	3bc2      	subs	r3, #194	; 0xc2
    4260:	446b      	add	r3, sp
    4262:	77da      	strb	r2, [r3, #31]
    4264:	233e      	movs	r3, #62	; 0x3e
    4266:	2201      	movs	r2, #1
    4268:	446b      	add	r3, sp
    426a:	77da      	strb	r2, [r3, #31]
    426c:	233f      	movs	r3, #63	; 0x3f
    426e:	2500      	movs	r5, #0
    4270:	446b      	add	r3, sp
    4272:	77dd      	strb	r5, [r3, #31]
    4274:	ab10      	add	r3, sp, #64	; 0x40
    4276:	77dd      	strb	r5, [r3, #31]
    4278:	ab19      	add	r3, sp, #100	; 0x64
    427a:	701d      	strb	r5, [r3, #0]
    427c:	2365      	movs	r3, #101	; 0x65
    427e:	446b      	add	r3, sp
    4280:	701d      	strb	r5, [r3, #0]
    4282:	2313      	movs	r3, #19
    4284:	76a3      	strb	r3, [r4, #26]
    4286:	2380      	movs	r3, #128	; 0x80
    4288:	035b      	lsls	r3, r3, #13
    428a:	60e3      	str	r3, [r4, #12]
    428c:	4b5a      	ldr	r3, [pc, #360]	; (43f8 <main+0x1c0>)
    428e:	4e5b      	ldr	r6, [pc, #364]	; (43fc <main+0x1c4>)
    4290:	6323      	str	r3, [r4, #48]	; 0x30
    4292:	4b5b      	ldr	r3, [pc, #364]	; (4400 <main+0x1c8>)
    4294:	4a5b      	ldr	r2, [pc, #364]	; (4404 <main+0x1cc>)
    4296:	6363      	str	r3, [r4, #52]	; 0x34
    4298:	2301      	movs	r3, #1
    429a:	425b      	negs	r3, r3
    429c:	63a3      	str	r3, [r4, #56]	; 0x38
    429e:	63e3      	str	r3, [r4, #60]	; 0x3c
    42a0:	2396      	movs	r3, #150	; 0x96
    42a2:	021b      	lsls	r3, r3, #8
    42a4:	6223      	str	r3, [r4, #32]
    42a6:	4b58      	ldr	r3, [pc, #352]	; (4408 <main+0x1d0>)
    42a8:	6065      	str	r5, [r4, #4]
    42aa:	601e      	str	r6, [r3, #0]
    42ac:	4b57      	ldr	r3, [pc, #348]	; (440c <main+0x1d4>)
    42ae:	72a5      	strb	r5, [r4, #10]
    42b0:	72e5      	strb	r5, [r4, #11]
    42b2:	62a5      	str	r5, [r4, #40]	; 0x28
    42b4:	6165      	str	r5, [r4, #20]
    42b6:	8225      	strh	r5, [r4, #16]
    42b8:	76e5      	strb	r5, [r4, #27]
    42ba:	7625      	strb	r5, [r4, #24]
    42bc:	7725      	strb	r5, [r4, #28]
    42be:	7665      	strb	r5, [r4, #25]
    42c0:	7765      	strb	r5, [r4, #29]
    42c2:	601a      	str	r2, [r3, #0]
    42c4:	4a52      	ldr	r2, [pc, #328]	; (4410 <main+0x1d8>)
    42c6:	4b53      	ldr	r3, [pc, #332]	; (4414 <main+0x1dc>)
    42c8:	4953      	ldr	r1, [pc, #332]	; (4418 <main+0x1e0>)
    42ca:	601a      	str	r2, [r3, #0]
    42cc:	0030      	movs	r0, r6
    42ce:	0022      	movs	r2, r4
    42d0:	4b52      	ldr	r3, [pc, #328]	; (441c <main+0x1e4>)
    42d2:	4798      	blx	r3
    42d4:	4f52      	ldr	r7, [pc, #328]	; (4420 <main+0x1e8>)
    42d6:	0029      	movs	r1, r5
    42d8:	683b      	ldr	r3, [r7, #0]
    42da:	6898      	ldr	r0, [r3, #8]
    42dc:	4b51      	ldr	r3, [pc, #324]	; (4424 <main+0x1ec>)
    42de:	4798      	blx	r3
    42e0:	683b      	ldr	r3, [r7, #0]
    42e2:	0029      	movs	r1, r5
    42e4:	6858      	ldr	r0, [r3, #4]
    42e6:	4b4f      	ldr	r3, [pc, #316]	; (4424 <main+0x1ec>)
    42e8:	4798      	blx	r3
    42ea:	6835      	ldr	r5, [r6, #0]
    42ec:	4b4e      	ldr	r3, [pc, #312]	; (4428 <main+0x1f0>)
    42ee:	0028      	movs	r0, r5
    42f0:	4798      	blx	r3
    42f2:	231f      	movs	r3, #31
    42f4:	4018      	ands	r0, r3
    42f6:	3b1e      	subs	r3, #30
    42f8:	4083      	lsls	r3, r0
    42fa:	4a4c      	ldr	r2, [pc, #304]	; (442c <main+0x1f4>)
    42fc:	6013      	str	r3, [r2, #0]
    42fe:	6832      	ldr	r2, [r6, #0]
    4300:	69d3      	ldr	r3, [r2, #28]
    4302:	2b00      	cmp	r3, #0
    4304:	d1fc      	bne.n	4300 <main+0xc8>
    4306:	682a      	ldr	r2, [r5, #0]
    4308:	3302      	adds	r3, #2
    430a:	4313      	orrs	r3, r2
    430c:	2201      	movs	r2, #1
    430e:	602b      	str	r3, [r5, #0]
    4310:	4b47      	ldr	r3, [pc, #284]	; (4430 <main+0x1f8>)
    4312:	701a      	strb	r2, [r3, #0]
    4314:	f3bf 8f5f 	dmb	sy
    4318:	b662      	cpsie	i
    431a:	4b46      	ldr	r3, [pc, #280]	; (4434 <main+0x1fc>)
    431c:	4798      	blx	r3
    431e:	4846      	ldr	r0, [pc, #280]	; (4438 <main+0x200>)
    4320:	4d46      	ldr	r5, [pc, #280]	; (443c <main+0x204>)
    4322:	47a8      	blx	r5
    4324:	4a46      	ldr	r2, [pc, #280]	; (4440 <main+0x208>)
    4326:	4947      	ldr	r1, [pc, #284]	; (4444 <main+0x20c>)
    4328:	4847      	ldr	r0, [pc, #284]	; (4448 <main+0x210>)
    432a:	47a8      	blx	r5
    432c:	4847      	ldr	r0, [pc, #284]	; (444c <main+0x214>)
    432e:	4e43      	ldr	r6, [pc, #268]	; (443c <main+0x204>)
    4330:	47b0      	blx	r6
    4332:	2000      	movs	r0, #0
    4334:	4b46      	ldr	r3, [pc, #280]	; (4450 <main+0x218>)
    4336:	4798      	blx	r3
    4338:	0007      	movs	r7, r0
    433a:	2801      	cmp	r0, #1
    433c:	d109      	bne.n	4352 <main+0x11a>
    433e:	4845      	ldr	r0, [pc, #276]	; (4454 <main+0x21c>)
    4340:	47b0      	blx	r6
    4342:	4845      	ldr	r0, [pc, #276]	; (4458 <main+0x220>)
    4344:	47b0      	blx	r6
    4346:	2000      	movs	r0, #0
    4348:	4b44      	ldr	r3, [pc, #272]	; (445c <main+0x224>)
    434a:	4798      	blx	r3
    434c:	2802      	cmp	r0, #2
    434e:	d1fa      	bne.n	4346 <main+0x10e>
    4350:	e7ef      	b.n	4332 <main+0xfa>
    4352:	2800      	cmp	r0, #0
    4354:	d1ed      	bne.n	4332 <main+0xfa>
    4356:	4842      	ldr	r0, [pc, #264]	; (4460 <main+0x228>)
    4358:	4d42      	ldr	r5, [pc, #264]	; (4464 <main+0x22c>)
    435a:	47a8      	blx	r5
    435c:	228c      	movs	r2, #140	; 0x8c
    435e:	0039      	movs	r1, r7
    4360:	0092      	lsls	r2, r2, #2
    4362:	4b41      	ldr	r3, [pc, #260]	; (4468 <main+0x230>)
    4364:	0020      	movs	r0, r4
    4366:	4798      	blx	r3
    4368:	0021      	movs	r1, r4
    436a:	0038      	movs	r0, r7
    436c:	4b3f      	ldr	r3, [pc, #252]	; (446c <main+0x234>)
    436e:	4798      	blx	r3
    4370:	0001      	movs	r1, r0
    4372:	280b      	cmp	r0, #11
    4374:	d10a      	bne.n	438c <main+0x154>
    4376:	483e      	ldr	r0, [pc, #248]	; (4470 <main+0x238>)
    4378:	47b0      	blx	r6
    437a:	483e      	ldr	r0, [pc, #248]	; (4474 <main+0x23c>)
    437c:	4b2f      	ldr	r3, [pc, #188]	; (443c <main+0x204>)
    437e:	4798      	blx	r3
    4380:	2000      	movs	r0, #0
    4382:	4b36      	ldr	r3, [pc, #216]	; (445c <main+0x224>)
    4384:	4798      	blx	r3
    4386:	2802      	cmp	r0, #2
    4388:	d1fa      	bne.n	4380 <main+0x148>
    438a:	e7cf      	b.n	432c <main+0xf4>
    438c:	4e3a      	ldr	r6, [pc, #232]	; (4478 <main+0x240>)
    438e:	0030      	movs	r0, r6
    4390:	47a8      	blx	r5
    4392:	483a      	ldr	r0, [pc, #232]	; (447c <main+0x244>)
    4394:	47a8      	blx	r5
    4396:	466b      	mov	r3, sp
    4398:	2230      	movs	r2, #48	; 0x30
    439a:	4669      	mov	r1, sp
    439c:	701a      	strb	r2, [r3, #0]
    439e:	a805      	add	r0, sp, #20
    43a0:	220a      	movs	r2, #10
    43a2:	4b37      	ldr	r3, [pc, #220]	; (4480 <main+0x248>)
    43a4:	4798      	blx	r3
    43a6:	1e01      	subs	r1, r0, #0
    43a8:	d003      	beq.n	43b2 <main+0x17a>
    43aa:	4b24      	ldr	r3, [pc, #144]	; (443c <main+0x204>)
    43ac:	4830      	ldr	r0, [pc, #192]	; (4470 <main+0x238>)
    43ae:	4798      	blx	r3
    43b0:	e7e3      	b.n	437a <main+0x142>
    43b2:	0030      	movs	r0, r6
    43b4:	47a8      	blx	r5
    43b6:	4833      	ldr	r0, [pc, #204]	; (4484 <main+0x24c>)
    43b8:	47a8      	blx	r5
    43ba:	a905      	add	r1, sp, #20
    43bc:	4832      	ldr	r0, [pc, #200]	; (4488 <main+0x250>)
    43be:	4b33      	ldr	r3, [pc, #204]	; (448c <main+0x254>)
    43c0:	4798      	blx	r3
    43c2:	4f33      	ldr	r7, [pc, #204]	; (4490 <main+0x258>)
    43c4:	2800      	cmp	r0, #0
    43c6:	d104      	bne.n	43d2 <main+0x19a>
    43c8:	a805      	add	r0, sp, #20
    43ca:	47b8      	blx	r7
    43cc:	4831      	ldr	r0, [pc, #196]	; (4494 <main+0x25c>)
    43ce:	47a8      	blx	r5
    43d0:	e7d3      	b.n	437a <main+0x142>
    43d2:	0030      	movs	r0, r6
    43d4:	47a8      	blx	r5
    43d6:	a805      	add	r0, sp, #20
    43d8:	47b8      	blx	r7
    43da:	4b18      	ldr	r3, [pc, #96]	; (443c <main+0x204>)
    43dc:	482e      	ldr	r0, [pc, #184]	; (4498 <main+0x260>)
    43de:	4798      	blx	r3
    43e0:	e7cb      	b.n	437a <main+0x142>
    43e2:	46c0      	nop			; (mov r8, r8)
    43e4:	fffffd94 	.word	0xfffffd94
    43e8:	000062bc 	.word	0x000062bc
    43ec:	00004a65 	.word	0x00004a65
    43f0:	00002a0d 	.word	0x00002a0d
    43f4:	00001141 	.word	0x00001141
    43f8:	00040003 	.word	0x00040003
    43fc:	200001ac 	.word	0x200001ac
    4400:	00050003 	.word	0x00050003
    4404:	00004221 	.word	0x00004221
    4408:	200001a0 	.word	0x200001a0
    440c:	2000019c 	.word	0x2000019c
    4410:	000041fd 	.word	0x000041fd
    4414:	20000198 	.word	0x20000198
    4418:	42000800 	.word	0x42000800
    441c:	00001e59 	.word	0x00001e59
    4420:	20000034 	.word	0x20000034
    4424:	00004b91 	.word	0x00004b91
    4428:	0000178d 	.word	0x0000178d
    442c:	e000e100 	.word	0xe000e100
    4430:	20000031 	.word	0x20000031
    4434:	00000345 	.word	0x00000345
    4438:	00006152 	.word	0x00006152
    443c:	00004a89 	.word	0x00004a89
    4440:	0000617a 	.word	0x0000617a
    4444:	00006183 	.word	0x00006183
    4448:	0000618f 	.word	0x0000618f
    444c:	000061a7 	.word	0x000061a7
    4450:	00000999 	.word	0x00000999
    4454:	000061cd 	.word	0x000061cd
    4458:	000061e1 	.word	0x000061e1
    445c:	00000365 	.word	0x00000365
    4460:	00006207 	.word	0x00006207
    4464:	00004b7d 	.word	0x00004b7d
    4468:	00004a77 	.word	0x00004a77
    446c:	00003d65 	.word	0x00003d65
    4470:	00006220 	.word	0x00006220
    4474:	000062a2 	.word	0x000062a2
    4478:	00006230 	.word	0x00006230
    447c:	00006236 	.word	0x00006236
    4480:	00003d8d 	.word	0x00003d8d
    4484:	00006251 	.word	0x00006251
    4488:	00006271 	.word	0x00006271
    448c:	00004175 	.word	0x00004175
    4490:	00004139 	.word	0x00004139
    4494:	00006284 	.word	0x00006284
    4498:	0000628c 	.word	0x0000628c

0000449c <__gnu_thumb1_case_uqi>:
    449c:	b402      	push	{r1}
    449e:	4671      	mov	r1, lr
    44a0:	0849      	lsrs	r1, r1, #1
    44a2:	0049      	lsls	r1, r1, #1
    44a4:	5c09      	ldrb	r1, [r1, r0]
    44a6:	0049      	lsls	r1, r1, #1
    44a8:	448e      	add	lr, r1
    44aa:	bc02      	pop	{r1}
    44ac:	4770      	bx	lr
    44ae:	46c0      	nop			; (mov r8, r8)

000044b0 <__udivsi3>:
    44b0:	2200      	movs	r2, #0
    44b2:	0843      	lsrs	r3, r0, #1
    44b4:	428b      	cmp	r3, r1
    44b6:	d374      	bcc.n	45a2 <__udivsi3+0xf2>
    44b8:	0903      	lsrs	r3, r0, #4
    44ba:	428b      	cmp	r3, r1
    44bc:	d35f      	bcc.n	457e <__udivsi3+0xce>
    44be:	0a03      	lsrs	r3, r0, #8
    44c0:	428b      	cmp	r3, r1
    44c2:	d344      	bcc.n	454e <__udivsi3+0x9e>
    44c4:	0b03      	lsrs	r3, r0, #12
    44c6:	428b      	cmp	r3, r1
    44c8:	d328      	bcc.n	451c <__udivsi3+0x6c>
    44ca:	0c03      	lsrs	r3, r0, #16
    44cc:	428b      	cmp	r3, r1
    44ce:	d30d      	bcc.n	44ec <__udivsi3+0x3c>
    44d0:	22ff      	movs	r2, #255	; 0xff
    44d2:	0209      	lsls	r1, r1, #8
    44d4:	ba12      	rev	r2, r2
    44d6:	0c03      	lsrs	r3, r0, #16
    44d8:	428b      	cmp	r3, r1
    44da:	d302      	bcc.n	44e2 <__udivsi3+0x32>
    44dc:	1212      	asrs	r2, r2, #8
    44de:	0209      	lsls	r1, r1, #8
    44e0:	d065      	beq.n	45ae <__udivsi3+0xfe>
    44e2:	0b03      	lsrs	r3, r0, #12
    44e4:	428b      	cmp	r3, r1
    44e6:	d319      	bcc.n	451c <__udivsi3+0x6c>
    44e8:	e000      	b.n	44ec <__udivsi3+0x3c>
    44ea:	0a09      	lsrs	r1, r1, #8
    44ec:	0bc3      	lsrs	r3, r0, #15
    44ee:	428b      	cmp	r3, r1
    44f0:	d301      	bcc.n	44f6 <__udivsi3+0x46>
    44f2:	03cb      	lsls	r3, r1, #15
    44f4:	1ac0      	subs	r0, r0, r3
    44f6:	4152      	adcs	r2, r2
    44f8:	0b83      	lsrs	r3, r0, #14
    44fa:	428b      	cmp	r3, r1
    44fc:	d301      	bcc.n	4502 <__udivsi3+0x52>
    44fe:	038b      	lsls	r3, r1, #14
    4500:	1ac0      	subs	r0, r0, r3
    4502:	4152      	adcs	r2, r2
    4504:	0b43      	lsrs	r3, r0, #13
    4506:	428b      	cmp	r3, r1
    4508:	d301      	bcc.n	450e <__udivsi3+0x5e>
    450a:	034b      	lsls	r3, r1, #13
    450c:	1ac0      	subs	r0, r0, r3
    450e:	4152      	adcs	r2, r2
    4510:	0b03      	lsrs	r3, r0, #12
    4512:	428b      	cmp	r3, r1
    4514:	d301      	bcc.n	451a <__udivsi3+0x6a>
    4516:	030b      	lsls	r3, r1, #12
    4518:	1ac0      	subs	r0, r0, r3
    451a:	4152      	adcs	r2, r2
    451c:	0ac3      	lsrs	r3, r0, #11
    451e:	428b      	cmp	r3, r1
    4520:	d301      	bcc.n	4526 <__udivsi3+0x76>
    4522:	02cb      	lsls	r3, r1, #11
    4524:	1ac0      	subs	r0, r0, r3
    4526:	4152      	adcs	r2, r2
    4528:	0a83      	lsrs	r3, r0, #10
    452a:	428b      	cmp	r3, r1
    452c:	d301      	bcc.n	4532 <__udivsi3+0x82>
    452e:	028b      	lsls	r3, r1, #10
    4530:	1ac0      	subs	r0, r0, r3
    4532:	4152      	adcs	r2, r2
    4534:	0a43      	lsrs	r3, r0, #9
    4536:	428b      	cmp	r3, r1
    4538:	d301      	bcc.n	453e <__udivsi3+0x8e>
    453a:	024b      	lsls	r3, r1, #9
    453c:	1ac0      	subs	r0, r0, r3
    453e:	4152      	adcs	r2, r2
    4540:	0a03      	lsrs	r3, r0, #8
    4542:	428b      	cmp	r3, r1
    4544:	d301      	bcc.n	454a <__udivsi3+0x9a>
    4546:	020b      	lsls	r3, r1, #8
    4548:	1ac0      	subs	r0, r0, r3
    454a:	4152      	adcs	r2, r2
    454c:	d2cd      	bcs.n	44ea <__udivsi3+0x3a>
    454e:	09c3      	lsrs	r3, r0, #7
    4550:	428b      	cmp	r3, r1
    4552:	d301      	bcc.n	4558 <__udivsi3+0xa8>
    4554:	01cb      	lsls	r3, r1, #7
    4556:	1ac0      	subs	r0, r0, r3
    4558:	4152      	adcs	r2, r2
    455a:	0983      	lsrs	r3, r0, #6
    455c:	428b      	cmp	r3, r1
    455e:	d301      	bcc.n	4564 <__udivsi3+0xb4>
    4560:	018b      	lsls	r3, r1, #6
    4562:	1ac0      	subs	r0, r0, r3
    4564:	4152      	adcs	r2, r2
    4566:	0943      	lsrs	r3, r0, #5
    4568:	428b      	cmp	r3, r1
    456a:	d301      	bcc.n	4570 <__udivsi3+0xc0>
    456c:	014b      	lsls	r3, r1, #5
    456e:	1ac0      	subs	r0, r0, r3
    4570:	4152      	adcs	r2, r2
    4572:	0903      	lsrs	r3, r0, #4
    4574:	428b      	cmp	r3, r1
    4576:	d301      	bcc.n	457c <__udivsi3+0xcc>
    4578:	010b      	lsls	r3, r1, #4
    457a:	1ac0      	subs	r0, r0, r3
    457c:	4152      	adcs	r2, r2
    457e:	08c3      	lsrs	r3, r0, #3
    4580:	428b      	cmp	r3, r1
    4582:	d301      	bcc.n	4588 <__udivsi3+0xd8>
    4584:	00cb      	lsls	r3, r1, #3
    4586:	1ac0      	subs	r0, r0, r3
    4588:	4152      	adcs	r2, r2
    458a:	0883      	lsrs	r3, r0, #2
    458c:	428b      	cmp	r3, r1
    458e:	d301      	bcc.n	4594 <__udivsi3+0xe4>
    4590:	008b      	lsls	r3, r1, #2
    4592:	1ac0      	subs	r0, r0, r3
    4594:	4152      	adcs	r2, r2
    4596:	0843      	lsrs	r3, r0, #1
    4598:	428b      	cmp	r3, r1
    459a:	d301      	bcc.n	45a0 <__udivsi3+0xf0>
    459c:	004b      	lsls	r3, r1, #1
    459e:	1ac0      	subs	r0, r0, r3
    45a0:	4152      	adcs	r2, r2
    45a2:	1a41      	subs	r1, r0, r1
    45a4:	d200      	bcs.n	45a8 <__udivsi3+0xf8>
    45a6:	4601      	mov	r1, r0
    45a8:	4152      	adcs	r2, r2
    45aa:	4610      	mov	r0, r2
    45ac:	4770      	bx	lr
    45ae:	e7ff      	b.n	45b0 <__udivsi3+0x100>
    45b0:	b501      	push	{r0, lr}
    45b2:	2000      	movs	r0, #0
    45b4:	f000 f8f0 	bl	4798 <__aeabi_idiv0>
    45b8:	bd02      	pop	{r1, pc}
    45ba:	46c0      	nop			; (mov r8, r8)

000045bc <__aeabi_uidivmod>:
    45bc:	2900      	cmp	r1, #0
    45be:	d0f7      	beq.n	45b0 <__udivsi3+0x100>
    45c0:	e776      	b.n	44b0 <__udivsi3>
    45c2:	4770      	bx	lr

000045c4 <__divsi3>:
    45c4:	4603      	mov	r3, r0
    45c6:	430b      	orrs	r3, r1
    45c8:	d47f      	bmi.n	46ca <__divsi3+0x106>
    45ca:	2200      	movs	r2, #0
    45cc:	0843      	lsrs	r3, r0, #1
    45ce:	428b      	cmp	r3, r1
    45d0:	d374      	bcc.n	46bc <__divsi3+0xf8>
    45d2:	0903      	lsrs	r3, r0, #4
    45d4:	428b      	cmp	r3, r1
    45d6:	d35f      	bcc.n	4698 <__divsi3+0xd4>
    45d8:	0a03      	lsrs	r3, r0, #8
    45da:	428b      	cmp	r3, r1
    45dc:	d344      	bcc.n	4668 <__divsi3+0xa4>
    45de:	0b03      	lsrs	r3, r0, #12
    45e0:	428b      	cmp	r3, r1
    45e2:	d328      	bcc.n	4636 <__divsi3+0x72>
    45e4:	0c03      	lsrs	r3, r0, #16
    45e6:	428b      	cmp	r3, r1
    45e8:	d30d      	bcc.n	4606 <__divsi3+0x42>
    45ea:	22ff      	movs	r2, #255	; 0xff
    45ec:	0209      	lsls	r1, r1, #8
    45ee:	ba12      	rev	r2, r2
    45f0:	0c03      	lsrs	r3, r0, #16
    45f2:	428b      	cmp	r3, r1
    45f4:	d302      	bcc.n	45fc <__divsi3+0x38>
    45f6:	1212      	asrs	r2, r2, #8
    45f8:	0209      	lsls	r1, r1, #8
    45fa:	d065      	beq.n	46c8 <__divsi3+0x104>
    45fc:	0b03      	lsrs	r3, r0, #12
    45fe:	428b      	cmp	r3, r1
    4600:	d319      	bcc.n	4636 <__divsi3+0x72>
    4602:	e000      	b.n	4606 <__divsi3+0x42>
    4604:	0a09      	lsrs	r1, r1, #8
    4606:	0bc3      	lsrs	r3, r0, #15
    4608:	428b      	cmp	r3, r1
    460a:	d301      	bcc.n	4610 <__divsi3+0x4c>
    460c:	03cb      	lsls	r3, r1, #15
    460e:	1ac0      	subs	r0, r0, r3
    4610:	4152      	adcs	r2, r2
    4612:	0b83      	lsrs	r3, r0, #14
    4614:	428b      	cmp	r3, r1
    4616:	d301      	bcc.n	461c <__divsi3+0x58>
    4618:	038b      	lsls	r3, r1, #14
    461a:	1ac0      	subs	r0, r0, r3
    461c:	4152      	adcs	r2, r2
    461e:	0b43      	lsrs	r3, r0, #13
    4620:	428b      	cmp	r3, r1
    4622:	d301      	bcc.n	4628 <__divsi3+0x64>
    4624:	034b      	lsls	r3, r1, #13
    4626:	1ac0      	subs	r0, r0, r3
    4628:	4152      	adcs	r2, r2
    462a:	0b03      	lsrs	r3, r0, #12
    462c:	428b      	cmp	r3, r1
    462e:	d301      	bcc.n	4634 <__divsi3+0x70>
    4630:	030b      	lsls	r3, r1, #12
    4632:	1ac0      	subs	r0, r0, r3
    4634:	4152      	adcs	r2, r2
    4636:	0ac3      	lsrs	r3, r0, #11
    4638:	428b      	cmp	r3, r1
    463a:	d301      	bcc.n	4640 <__divsi3+0x7c>
    463c:	02cb      	lsls	r3, r1, #11
    463e:	1ac0      	subs	r0, r0, r3
    4640:	4152      	adcs	r2, r2
    4642:	0a83      	lsrs	r3, r0, #10
    4644:	428b      	cmp	r3, r1
    4646:	d301      	bcc.n	464c <__divsi3+0x88>
    4648:	028b      	lsls	r3, r1, #10
    464a:	1ac0      	subs	r0, r0, r3
    464c:	4152      	adcs	r2, r2
    464e:	0a43      	lsrs	r3, r0, #9
    4650:	428b      	cmp	r3, r1
    4652:	d301      	bcc.n	4658 <__divsi3+0x94>
    4654:	024b      	lsls	r3, r1, #9
    4656:	1ac0      	subs	r0, r0, r3
    4658:	4152      	adcs	r2, r2
    465a:	0a03      	lsrs	r3, r0, #8
    465c:	428b      	cmp	r3, r1
    465e:	d301      	bcc.n	4664 <__divsi3+0xa0>
    4660:	020b      	lsls	r3, r1, #8
    4662:	1ac0      	subs	r0, r0, r3
    4664:	4152      	adcs	r2, r2
    4666:	d2cd      	bcs.n	4604 <__divsi3+0x40>
    4668:	09c3      	lsrs	r3, r0, #7
    466a:	428b      	cmp	r3, r1
    466c:	d301      	bcc.n	4672 <__divsi3+0xae>
    466e:	01cb      	lsls	r3, r1, #7
    4670:	1ac0      	subs	r0, r0, r3
    4672:	4152      	adcs	r2, r2
    4674:	0983      	lsrs	r3, r0, #6
    4676:	428b      	cmp	r3, r1
    4678:	d301      	bcc.n	467e <__divsi3+0xba>
    467a:	018b      	lsls	r3, r1, #6
    467c:	1ac0      	subs	r0, r0, r3
    467e:	4152      	adcs	r2, r2
    4680:	0943      	lsrs	r3, r0, #5
    4682:	428b      	cmp	r3, r1
    4684:	d301      	bcc.n	468a <__divsi3+0xc6>
    4686:	014b      	lsls	r3, r1, #5
    4688:	1ac0      	subs	r0, r0, r3
    468a:	4152      	adcs	r2, r2
    468c:	0903      	lsrs	r3, r0, #4
    468e:	428b      	cmp	r3, r1
    4690:	d301      	bcc.n	4696 <__divsi3+0xd2>
    4692:	010b      	lsls	r3, r1, #4
    4694:	1ac0      	subs	r0, r0, r3
    4696:	4152      	adcs	r2, r2
    4698:	08c3      	lsrs	r3, r0, #3
    469a:	428b      	cmp	r3, r1
    469c:	d301      	bcc.n	46a2 <__divsi3+0xde>
    469e:	00cb      	lsls	r3, r1, #3
    46a0:	1ac0      	subs	r0, r0, r3
    46a2:	4152      	adcs	r2, r2
    46a4:	0883      	lsrs	r3, r0, #2
    46a6:	428b      	cmp	r3, r1
    46a8:	d301      	bcc.n	46ae <__divsi3+0xea>
    46aa:	008b      	lsls	r3, r1, #2
    46ac:	1ac0      	subs	r0, r0, r3
    46ae:	4152      	adcs	r2, r2
    46b0:	0843      	lsrs	r3, r0, #1
    46b2:	428b      	cmp	r3, r1
    46b4:	d301      	bcc.n	46ba <__divsi3+0xf6>
    46b6:	004b      	lsls	r3, r1, #1
    46b8:	1ac0      	subs	r0, r0, r3
    46ba:	4152      	adcs	r2, r2
    46bc:	1a41      	subs	r1, r0, r1
    46be:	d200      	bcs.n	46c2 <__divsi3+0xfe>
    46c0:	4601      	mov	r1, r0
    46c2:	4152      	adcs	r2, r2
    46c4:	4610      	mov	r0, r2
    46c6:	4770      	bx	lr
    46c8:	e05d      	b.n	4786 <__divsi3+0x1c2>
    46ca:	0fca      	lsrs	r2, r1, #31
    46cc:	d000      	beq.n	46d0 <__divsi3+0x10c>
    46ce:	4249      	negs	r1, r1
    46d0:	1003      	asrs	r3, r0, #32
    46d2:	d300      	bcc.n	46d6 <__divsi3+0x112>
    46d4:	4240      	negs	r0, r0
    46d6:	4053      	eors	r3, r2
    46d8:	2200      	movs	r2, #0
    46da:	469c      	mov	ip, r3
    46dc:	0903      	lsrs	r3, r0, #4
    46de:	428b      	cmp	r3, r1
    46e0:	d32d      	bcc.n	473e <__divsi3+0x17a>
    46e2:	0a03      	lsrs	r3, r0, #8
    46e4:	428b      	cmp	r3, r1
    46e6:	d312      	bcc.n	470e <__divsi3+0x14a>
    46e8:	22fc      	movs	r2, #252	; 0xfc
    46ea:	0189      	lsls	r1, r1, #6
    46ec:	ba12      	rev	r2, r2
    46ee:	0a03      	lsrs	r3, r0, #8
    46f0:	428b      	cmp	r3, r1
    46f2:	d30c      	bcc.n	470e <__divsi3+0x14a>
    46f4:	0189      	lsls	r1, r1, #6
    46f6:	1192      	asrs	r2, r2, #6
    46f8:	428b      	cmp	r3, r1
    46fa:	d308      	bcc.n	470e <__divsi3+0x14a>
    46fc:	0189      	lsls	r1, r1, #6
    46fe:	1192      	asrs	r2, r2, #6
    4700:	428b      	cmp	r3, r1
    4702:	d304      	bcc.n	470e <__divsi3+0x14a>
    4704:	0189      	lsls	r1, r1, #6
    4706:	d03a      	beq.n	477e <__divsi3+0x1ba>
    4708:	1192      	asrs	r2, r2, #6
    470a:	e000      	b.n	470e <__divsi3+0x14a>
    470c:	0989      	lsrs	r1, r1, #6
    470e:	09c3      	lsrs	r3, r0, #7
    4710:	428b      	cmp	r3, r1
    4712:	d301      	bcc.n	4718 <__divsi3+0x154>
    4714:	01cb      	lsls	r3, r1, #7
    4716:	1ac0      	subs	r0, r0, r3
    4718:	4152      	adcs	r2, r2
    471a:	0983      	lsrs	r3, r0, #6
    471c:	428b      	cmp	r3, r1
    471e:	d301      	bcc.n	4724 <__divsi3+0x160>
    4720:	018b      	lsls	r3, r1, #6
    4722:	1ac0      	subs	r0, r0, r3
    4724:	4152      	adcs	r2, r2
    4726:	0943      	lsrs	r3, r0, #5
    4728:	428b      	cmp	r3, r1
    472a:	d301      	bcc.n	4730 <__divsi3+0x16c>
    472c:	014b      	lsls	r3, r1, #5
    472e:	1ac0      	subs	r0, r0, r3
    4730:	4152      	adcs	r2, r2
    4732:	0903      	lsrs	r3, r0, #4
    4734:	428b      	cmp	r3, r1
    4736:	d301      	bcc.n	473c <__divsi3+0x178>
    4738:	010b      	lsls	r3, r1, #4
    473a:	1ac0      	subs	r0, r0, r3
    473c:	4152      	adcs	r2, r2
    473e:	08c3      	lsrs	r3, r0, #3
    4740:	428b      	cmp	r3, r1
    4742:	d301      	bcc.n	4748 <__divsi3+0x184>
    4744:	00cb      	lsls	r3, r1, #3
    4746:	1ac0      	subs	r0, r0, r3
    4748:	4152      	adcs	r2, r2
    474a:	0883      	lsrs	r3, r0, #2
    474c:	428b      	cmp	r3, r1
    474e:	d301      	bcc.n	4754 <__divsi3+0x190>
    4750:	008b      	lsls	r3, r1, #2
    4752:	1ac0      	subs	r0, r0, r3
    4754:	4152      	adcs	r2, r2
    4756:	d2d9      	bcs.n	470c <__divsi3+0x148>
    4758:	0843      	lsrs	r3, r0, #1
    475a:	428b      	cmp	r3, r1
    475c:	d301      	bcc.n	4762 <__divsi3+0x19e>
    475e:	004b      	lsls	r3, r1, #1
    4760:	1ac0      	subs	r0, r0, r3
    4762:	4152      	adcs	r2, r2
    4764:	1a41      	subs	r1, r0, r1
    4766:	d200      	bcs.n	476a <__divsi3+0x1a6>
    4768:	4601      	mov	r1, r0
    476a:	4663      	mov	r3, ip
    476c:	4152      	adcs	r2, r2
    476e:	105b      	asrs	r3, r3, #1
    4770:	4610      	mov	r0, r2
    4772:	d301      	bcc.n	4778 <__divsi3+0x1b4>
    4774:	4240      	negs	r0, r0
    4776:	2b00      	cmp	r3, #0
    4778:	d500      	bpl.n	477c <__divsi3+0x1b8>
    477a:	4249      	negs	r1, r1
    477c:	4770      	bx	lr
    477e:	4663      	mov	r3, ip
    4780:	105b      	asrs	r3, r3, #1
    4782:	d300      	bcc.n	4786 <__divsi3+0x1c2>
    4784:	4240      	negs	r0, r0
    4786:	b501      	push	{r0, lr}
    4788:	2000      	movs	r0, #0
    478a:	f000 f805 	bl	4798 <__aeabi_idiv0>
    478e:	bd02      	pop	{r1, pc}

00004790 <__aeabi_idivmod>:
    4790:	2900      	cmp	r1, #0
    4792:	d0f8      	beq.n	4786 <__divsi3+0x1c2>
    4794:	e716      	b.n	45c4 <__divsi3>
    4796:	4770      	bx	lr

00004798 <__aeabi_idiv0>:
    4798:	4770      	bx	lr
    479a:	46c0      	nop			; (mov r8, r8)

0000479c <__aeabi_llsl>:
    479c:	4091      	lsls	r1, r2
    479e:	1c03      	adds	r3, r0, #0
    47a0:	4090      	lsls	r0, r2
    47a2:	469c      	mov	ip, r3
    47a4:	3a20      	subs	r2, #32
    47a6:	4093      	lsls	r3, r2
    47a8:	4319      	orrs	r1, r3
    47aa:	4252      	negs	r2, r2
    47ac:	4663      	mov	r3, ip
    47ae:	40d3      	lsrs	r3, r2
    47b0:	4319      	orrs	r1, r3
    47b2:	4770      	bx	lr

000047b4 <__aeabi_uldivmod>:
    47b4:	2b00      	cmp	r3, #0
    47b6:	d111      	bne.n	47dc <__aeabi_uldivmod+0x28>
    47b8:	2a00      	cmp	r2, #0
    47ba:	d10f      	bne.n	47dc <__aeabi_uldivmod+0x28>
    47bc:	2900      	cmp	r1, #0
    47be:	d100      	bne.n	47c2 <__aeabi_uldivmod+0xe>
    47c0:	2800      	cmp	r0, #0
    47c2:	d002      	beq.n	47ca <__aeabi_uldivmod+0x16>
    47c4:	2100      	movs	r1, #0
    47c6:	43c9      	mvns	r1, r1
    47c8:	1c08      	adds	r0, r1, #0
    47ca:	b407      	push	{r0, r1, r2}
    47cc:	4802      	ldr	r0, [pc, #8]	; (47d8 <__aeabi_uldivmod+0x24>)
    47ce:	a102      	add	r1, pc, #8	; (adr r1, 47d8 <__aeabi_uldivmod+0x24>)
    47d0:	1840      	adds	r0, r0, r1
    47d2:	9002      	str	r0, [sp, #8]
    47d4:	bd03      	pop	{r0, r1, pc}
    47d6:	46c0      	nop			; (mov r8, r8)
    47d8:	ffffffc1 	.word	0xffffffc1
    47dc:	b403      	push	{r0, r1}
    47de:	4668      	mov	r0, sp
    47e0:	b501      	push	{r0, lr}
    47e2:	9802      	ldr	r0, [sp, #8]
    47e4:	f000 f830 	bl	4848 <__udivmoddi4>
    47e8:	9b01      	ldr	r3, [sp, #4]
    47ea:	469e      	mov	lr, r3
    47ec:	b002      	add	sp, #8
    47ee:	bc0c      	pop	{r2, r3}
    47f0:	4770      	bx	lr
    47f2:	46c0      	nop			; (mov r8, r8)

000047f4 <__aeabi_lmul>:
    47f4:	b5f0      	push	{r4, r5, r6, r7, lr}
    47f6:	46ce      	mov	lr, r9
    47f8:	4647      	mov	r7, r8
    47fa:	0415      	lsls	r5, r2, #16
    47fc:	0c2d      	lsrs	r5, r5, #16
    47fe:	002e      	movs	r6, r5
    4800:	b580      	push	{r7, lr}
    4802:	0407      	lsls	r7, r0, #16
    4804:	0c14      	lsrs	r4, r2, #16
    4806:	0c3f      	lsrs	r7, r7, #16
    4808:	4699      	mov	r9, r3
    480a:	0c03      	lsrs	r3, r0, #16
    480c:	437e      	muls	r6, r7
    480e:	435d      	muls	r5, r3
    4810:	4367      	muls	r7, r4
    4812:	4363      	muls	r3, r4
    4814:	197f      	adds	r7, r7, r5
    4816:	0c34      	lsrs	r4, r6, #16
    4818:	19e4      	adds	r4, r4, r7
    481a:	469c      	mov	ip, r3
    481c:	42a5      	cmp	r5, r4
    481e:	d903      	bls.n	4828 <__aeabi_lmul+0x34>
    4820:	2380      	movs	r3, #128	; 0x80
    4822:	025b      	lsls	r3, r3, #9
    4824:	4698      	mov	r8, r3
    4826:	44c4      	add	ip, r8
    4828:	464b      	mov	r3, r9
    482a:	4351      	muls	r1, r2
    482c:	4343      	muls	r3, r0
    482e:	0436      	lsls	r6, r6, #16
    4830:	0c36      	lsrs	r6, r6, #16
    4832:	0c25      	lsrs	r5, r4, #16
    4834:	0424      	lsls	r4, r4, #16
    4836:	4465      	add	r5, ip
    4838:	19a4      	adds	r4, r4, r6
    483a:	1859      	adds	r1, r3, r1
    483c:	1949      	adds	r1, r1, r5
    483e:	0020      	movs	r0, r4
    4840:	bc0c      	pop	{r2, r3}
    4842:	4690      	mov	r8, r2
    4844:	4699      	mov	r9, r3
    4846:	bdf0      	pop	{r4, r5, r6, r7, pc}

00004848 <__udivmoddi4>:
    4848:	b5f0      	push	{r4, r5, r6, r7, lr}
    484a:	4657      	mov	r7, sl
    484c:	464e      	mov	r6, r9
    484e:	4645      	mov	r5, r8
    4850:	46de      	mov	lr, fp
    4852:	b5e0      	push	{r5, r6, r7, lr}
    4854:	0004      	movs	r4, r0
    4856:	b083      	sub	sp, #12
    4858:	000d      	movs	r5, r1
    485a:	4692      	mov	sl, r2
    485c:	4699      	mov	r9, r3
    485e:	428b      	cmp	r3, r1
    4860:	d82f      	bhi.n	48c2 <__udivmoddi4+0x7a>
    4862:	d02c      	beq.n	48be <__udivmoddi4+0x76>
    4864:	4649      	mov	r1, r9
    4866:	4650      	mov	r0, sl
    4868:	f000 f8ae 	bl	49c8 <__clzdi2>
    486c:	0029      	movs	r1, r5
    486e:	0006      	movs	r6, r0
    4870:	0020      	movs	r0, r4
    4872:	f000 f8a9 	bl	49c8 <__clzdi2>
    4876:	1a33      	subs	r3, r6, r0
    4878:	4698      	mov	r8, r3
    487a:	3b20      	subs	r3, #32
    487c:	469b      	mov	fp, r3
    487e:	d500      	bpl.n	4882 <__udivmoddi4+0x3a>
    4880:	e074      	b.n	496c <__udivmoddi4+0x124>
    4882:	4653      	mov	r3, sl
    4884:	465a      	mov	r2, fp
    4886:	4093      	lsls	r3, r2
    4888:	001f      	movs	r7, r3
    488a:	4653      	mov	r3, sl
    488c:	4642      	mov	r2, r8
    488e:	4093      	lsls	r3, r2
    4890:	001e      	movs	r6, r3
    4892:	42af      	cmp	r7, r5
    4894:	d829      	bhi.n	48ea <__udivmoddi4+0xa2>
    4896:	d026      	beq.n	48e6 <__udivmoddi4+0x9e>
    4898:	465b      	mov	r3, fp
    489a:	1ba4      	subs	r4, r4, r6
    489c:	41bd      	sbcs	r5, r7
    489e:	2b00      	cmp	r3, #0
    48a0:	da00      	bge.n	48a4 <__udivmoddi4+0x5c>
    48a2:	e079      	b.n	4998 <__udivmoddi4+0x150>
    48a4:	2200      	movs	r2, #0
    48a6:	2300      	movs	r3, #0
    48a8:	9200      	str	r2, [sp, #0]
    48aa:	9301      	str	r3, [sp, #4]
    48ac:	2301      	movs	r3, #1
    48ae:	465a      	mov	r2, fp
    48b0:	4093      	lsls	r3, r2
    48b2:	9301      	str	r3, [sp, #4]
    48b4:	2301      	movs	r3, #1
    48b6:	4642      	mov	r2, r8
    48b8:	4093      	lsls	r3, r2
    48ba:	9300      	str	r3, [sp, #0]
    48bc:	e019      	b.n	48f2 <__udivmoddi4+0xaa>
    48be:	4282      	cmp	r2, r0
    48c0:	d9d0      	bls.n	4864 <__udivmoddi4+0x1c>
    48c2:	2200      	movs	r2, #0
    48c4:	2300      	movs	r3, #0
    48c6:	9200      	str	r2, [sp, #0]
    48c8:	9301      	str	r3, [sp, #4]
    48ca:	9b0c      	ldr	r3, [sp, #48]	; 0x30
    48cc:	2b00      	cmp	r3, #0
    48ce:	d001      	beq.n	48d4 <__udivmoddi4+0x8c>
    48d0:	601c      	str	r4, [r3, #0]
    48d2:	605d      	str	r5, [r3, #4]
    48d4:	9800      	ldr	r0, [sp, #0]
    48d6:	9901      	ldr	r1, [sp, #4]
    48d8:	b003      	add	sp, #12
    48da:	bc3c      	pop	{r2, r3, r4, r5}
    48dc:	4690      	mov	r8, r2
    48de:	4699      	mov	r9, r3
    48e0:	46a2      	mov	sl, r4
    48e2:	46ab      	mov	fp, r5
    48e4:	bdf0      	pop	{r4, r5, r6, r7, pc}
    48e6:	42a3      	cmp	r3, r4
    48e8:	d9d6      	bls.n	4898 <__udivmoddi4+0x50>
    48ea:	2200      	movs	r2, #0
    48ec:	2300      	movs	r3, #0
    48ee:	9200      	str	r2, [sp, #0]
    48f0:	9301      	str	r3, [sp, #4]
    48f2:	4643      	mov	r3, r8
    48f4:	2b00      	cmp	r3, #0
    48f6:	d0e8      	beq.n	48ca <__udivmoddi4+0x82>
    48f8:	07fb      	lsls	r3, r7, #31
    48fa:	0872      	lsrs	r2, r6, #1
    48fc:	431a      	orrs	r2, r3
    48fe:	4646      	mov	r6, r8
    4900:	087b      	lsrs	r3, r7, #1
    4902:	e00e      	b.n	4922 <__udivmoddi4+0xda>
    4904:	42ab      	cmp	r3, r5
    4906:	d101      	bne.n	490c <__udivmoddi4+0xc4>
    4908:	42a2      	cmp	r2, r4
    490a:	d80c      	bhi.n	4926 <__udivmoddi4+0xde>
    490c:	1aa4      	subs	r4, r4, r2
    490e:	419d      	sbcs	r5, r3
    4910:	2001      	movs	r0, #1
    4912:	1924      	adds	r4, r4, r4
    4914:	416d      	adcs	r5, r5
    4916:	2100      	movs	r1, #0
    4918:	3e01      	subs	r6, #1
    491a:	1824      	adds	r4, r4, r0
    491c:	414d      	adcs	r5, r1
    491e:	2e00      	cmp	r6, #0
    4920:	d006      	beq.n	4930 <__udivmoddi4+0xe8>
    4922:	42ab      	cmp	r3, r5
    4924:	d9ee      	bls.n	4904 <__udivmoddi4+0xbc>
    4926:	3e01      	subs	r6, #1
    4928:	1924      	adds	r4, r4, r4
    492a:	416d      	adcs	r5, r5
    492c:	2e00      	cmp	r6, #0
    492e:	d1f8      	bne.n	4922 <__udivmoddi4+0xda>
    4930:	465b      	mov	r3, fp
    4932:	9800      	ldr	r0, [sp, #0]
    4934:	9901      	ldr	r1, [sp, #4]
    4936:	1900      	adds	r0, r0, r4
    4938:	4169      	adcs	r1, r5
    493a:	2b00      	cmp	r3, #0
    493c:	db22      	blt.n	4984 <__udivmoddi4+0x13c>
    493e:	002b      	movs	r3, r5
    4940:	465a      	mov	r2, fp
    4942:	40d3      	lsrs	r3, r2
    4944:	002a      	movs	r2, r5
    4946:	4644      	mov	r4, r8
    4948:	40e2      	lsrs	r2, r4
    494a:	001c      	movs	r4, r3
    494c:	465b      	mov	r3, fp
    494e:	0015      	movs	r5, r2
    4950:	2b00      	cmp	r3, #0
    4952:	db2c      	blt.n	49ae <__udivmoddi4+0x166>
    4954:	0026      	movs	r6, r4
    4956:	409e      	lsls	r6, r3
    4958:	0033      	movs	r3, r6
    495a:	0026      	movs	r6, r4
    495c:	4647      	mov	r7, r8
    495e:	40be      	lsls	r6, r7
    4960:	0032      	movs	r2, r6
    4962:	1a80      	subs	r0, r0, r2
    4964:	4199      	sbcs	r1, r3
    4966:	9000      	str	r0, [sp, #0]
    4968:	9101      	str	r1, [sp, #4]
    496a:	e7ae      	b.n	48ca <__udivmoddi4+0x82>
    496c:	4642      	mov	r2, r8
    496e:	2320      	movs	r3, #32
    4970:	1a9b      	subs	r3, r3, r2
    4972:	4652      	mov	r2, sl
    4974:	40da      	lsrs	r2, r3
    4976:	4641      	mov	r1, r8
    4978:	0013      	movs	r3, r2
    497a:	464a      	mov	r2, r9
    497c:	408a      	lsls	r2, r1
    497e:	0017      	movs	r7, r2
    4980:	431f      	orrs	r7, r3
    4982:	e782      	b.n	488a <__udivmoddi4+0x42>
    4984:	4642      	mov	r2, r8
    4986:	2320      	movs	r3, #32
    4988:	1a9b      	subs	r3, r3, r2
    498a:	002a      	movs	r2, r5
    498c:	4646      	mov	r6, r8
    498e:	409a      	lsls	r2, r3
    4990:	0023      	movs	r3, r4
    4992:	40f3      	lsrs	r3, r6
    4994:	4313      	orrs	r3, r2
    4996:	e7d5      	b.n	4944 <__udivmoddi4+0xfc>
    4998:	4642      	mov	r2, r8
    499a:	2320      	movs	r3, #32
    499c:	2100      	movs	r1, #0
    499e:	1a9b      	subs	r3, r3, r2
    49a0:	2200      	movs	r2, #0
    49a2:	9100      	str	r1, [sp, #0]
    49a4:	9201      	str	r2, [sp, #4]
    49a6:	2201      	movs	r2, #1
    49a8:	40da      	lsrs	r2, r3
    49aa:	9201      	str	r2, [sp, #4]
    49ac:	e782      	b.n	48b4 <__udivmoddi4+0x6c>
    49ae:	4642      	mov	r2, r8
    49b0:	2320      	movs	r3, #32
    49b2:	0026      	movs	r6, r4
    49b4:	1a9b      	subs	r3, r3, r2
    49b6:	40de      	lsrs	r6, r3
    49b8:	002f      	movs	r7, r5
    49ba:	46b4      	mov	ip, r6
    49bc:	4097      	lsls	r7, r2
    49be:	4666      	mov	r6, ip
    49c0:	003b      	movs	r3, r7
    49c2:	4333      	orrs	r3, r6
    49c4:	e7c9      	b.n	495a <__udivmoddi4+0x112>
    49c6:	46c0      	nop			; (mov r8, r8)

000049c8 <__clzdi2>:
    49c8:	b510      	push	{r4, lr}
    49ca:	2900      	cmp	r1, #0
    49cc:	d103      	bne.n	49d6 <__clzdi2+0xe>
    49ce:	f000 f807 	bl	49e0 <__clzsi2>
    49d2:	3020      	adds	r0, #32
    49d4:	e002      	b.n	49dc <__clzdi2+0x14>
    49d6:	1c08      	adds	r0, r1, #0
    49d8:	f000 f802 	bl	49e0 <__clzsi2>
    49dc:	bd10      	pop	{r4, pc}
    49de:	46c0      	nop			; (mov r8, r8)

000049e0 <__clzsi2>:
    49e0:	211c      	movs	r1, #28
    49e2:	2301      	movs	r3, #1
    49e4:	041b      	lsls	r3, r3, #16
    49e6:	4298      	cmp	r0, r3
    49e8:	d301      	bcc.n	49ee <__clzsi2+0xe>
    49ea:	0c00      	lsrs	r0, r0, #16
    49ec:	3910      	subs	r1, #16
    49ee:	0a1b      	lsrs	r3, r3, #8
    49f0:	4298      	cmp	r0, r3
    49f2:	d301      	bcc.n	49f8 <__clzsi2+0x18>
    49f4:	0a00      	lsrs	r0, r0, #8
    49f6:	3908      	subs	r1, #8
    49f8:	091b      	lsrs	r3, r3, #4
    49fa:	4298      	cmp	r0, r3
    49fc:	d301      	bcc.n	4a02 <__clzsi2+0x22>
    49fe:	0900      	lsrs	r0, r0, #4
    4a00:	3904      	subs	r1, #4
    4a02:	a202      	add	r2, pc, #8	; (adr r2, 4a0c <__clzsi2+0x2c>)
    4a04:	5c10      	ldrb	r0, [r2, r0]
    4a06:	1840      	adds	r0, r0, r1
    4a08:	4770      	bx	lr
    4a0a:	46c0      	nop			; (mov r8, r8)
    4a0c:	02020304 	.word	0x02020304
    4a10:	01010101 	.word	0x01010101
	...

00004a1c <__libc_init_array>:
    4a1c:	b570      	push	{r4, r5, r6, lr}
    4a1e:	2600      	movs	r6, #0
    4a20:	4d0c      	ldr	r5, [pc, #48]	; (4a54 <__libc_init_array+0x38>)
    4a22:	4c0d      	ldr	r4, [pc, #52]	; (4a58 <__libc_init_array+0x3c>)
    4a24:	1b64      	subs	r4, r4, r5
    4a26:	10a4      	asrs	r4, r4, #2
    4a28:	42a6      	cmp	r6, r4
    4a2a:	d109      	bne.n	4a40 <__libc_init_array+0x24>
    4a2c:	2600      	movs	r6, #0
    4a2e:	f001 fc9b 	bl	6368 <_init>
    4a32:	4d0a      	ldr	r5, [pc, #40]	; (4a5c <__libc_init_array+0x40>)
    4a34:	4c0a      	ldr	r4, [pc, #40]	; (4a60 <__libc_init_array+0x44>)
    4a36:	1b64      	subs	r4, r4, r5
    4a38:	10a4      	asrs	r4, r4, #2
    4a3a:	42a6      	cmp	r6, r4
    4a3c:	d105      	bne.n	4a4a <__libc_init_array+0x2e>
    4a3e:	bd70      	pop	{r4, r5, r6, pc}
    4a40:	00b3      	lsls	r3, r6, #2
    4a42:	58eb      	ldr	r3, [r5, r3]
    4a44:	4798      	blx	r3
    4a46:	3601      	adds	r6, #1
    4a48:	e7ee      	b.n	4a28 <__libc_init_array+0xc>
    4a4a:	00b3      	lsls	r3, r6, #2
    4a4c:	58eb      	ldr	r3, [r5, r3]
    4a4e:	4798      	blx	r3
    4a50:	3601      	adds	r6, #1
    4a52:	e7f2      	b.n	4a3a <__libc_init_array+0x1e>
    4a54:	00006374 	.word	0x00006374
    4a58:	00006374 	.word	0x00006374
    4a5c:	00006374 	.word	0x00006374
    4a60:	00006378 	.word	0x00006378

00004a64 <memcpy>:
    4a64:	2300      	movs	r3, #0
    4a66:	b510      	push	{r4, lr}
    4a68:	429a      	cmp	r2, r3
    4a6a:	d100      	bne.n	4a6e <memcpy+0xa>
    4a6c:	bd10      	pop	{r4, pc}
    4a6e:	5ccc      	ldrb	r4, [r1, r3]
    4a70:	54c4      	strb	r4, [r0, r3]
    4a72:	3301      	adds	r3, #1
    4a74:	e7f8      	b.n	4a68 <memcpy+0x4>

00004a76 <memset>:
    4a76:	0003      	movs	r3, r0
    4a78:	1882      	adds	r2, r0, r2
    4a7a:	4293      	cmp	r3, r2
    4a7c:	d100      	bne.n	4a80 <memset+0xa>
    4a7e:	4770      	bx	lr
    4a80:	7019      	strb	r1, [r3, #0]
    4a82:	3301      	adds	r3, #1
    4a84:	e7f9      	b.n	4a7a <memset+0x4>
	...

00004a88 <iprintf>:
    4a88:	b40f      	push	{r0, r1, r2, r3}
    4a8a:	4b0b      	ldr	r3, [pc, #44]	; (4ab8 <iprintf+0x30>)
    4a8c:	b513      	push	{r0, r1, r4, lr}
    4a8e:	681c      	ldr	r4, [r3, #0]
    4a90:	2c00      	cmp	r4, #0
    4a92:	d005      	beq.n	4aa0 <iprintf+0x18>
    4a94:	69a3      	ldr	r3, [r4, #24]
    4a96:	2b00      	cmp	r3, #0
    4a98:	d102      	bne.n	4aa0 <iprintf+0x18>
    4a9a:	0020      	movs	r0, r4
    4a9c:	f000 faf2 	bl	5084 <__sinit>
    4aa0:	ab05      	add	r3, sp, #20
    4aa2:	9a04      	ldr	r2, [sp, #16]
    4aa4:	68a1      	ldr	r1, [r4, #8]
    4aa6:	0020      	movs	r0, r4
    4aa8:	9301      	str	r3, [sp, #4]
    4aaa:	f000 fcc7 	bl	543c <_vfiprintf_r>
    4aae:	bc16      	pop	{r1, r2, r4}
    4ab0:	bc08      	pop	{r3}
    4ab2:	b004      	add	sp, #16
    4ab4:	4718      	bx	r3
    4ab6:	46c0      	nop			; (mov r8, r8)
    4ab8:	20000034 	.word	0x20000034

00004abc <_puts_r>:
    4abc:	b570      	push	{r4, r5, r6, lr}
    4abe:	0005      	movs	r5, r0
    4ac0:	000e      	movs	r6, r1
    4ac2:	2800      	cmp	r0, #0
    4ac4:	d004      	beq.n	4ad0 <_puts_r+0x14>
    4ac6:	6983      	ldr	r3, [r0, #24]
    4ac8:	2b00      	cmp	r3, #0
    4aca:	d101      	bne.n	4ad0 <_puts_r+0x14>
    4acc:	f000 fada 	bl	5084 <__sinit>
    4ad0:	69ab      	ldr	r3, [r5, #24]
    4ad2:	68ac      	ldr	r4, [r5, #8]
    4ad4:	2b00      	cmp	r3, #0
    4ad6:	d102      	bne.n	4ade <_puts_r+0x22>
    4ad8:	0028      	movs	r0, r5
    4ada:	f000 fad3 	bl	5084 <__sinit>
    4ade:	4b24      	ldr	r3, [pc, #144]	; (4b70 <_puts_r+0xb4>)
    4ae0:	429c      	cmp	r4, r3
    4ae2:	d10f      	bne.n	4b04 <_puts_r+0x48>
    4ae4:	686c      	ldr	r4, [r5, #4]
    4ae6:	89a3      	ldrh	r3, [r4, #12]
    4ae8:	071b      	lsls	r3, r3, #28
    4aea:	d502      	bpl.n	4af2 <_puts_r+0x36>
    4aec:	6923      	ldr	r3, [r4, #16]
    4aee:	2b00      	cmp	r3, #0
    4af0:	d120      	bne.n	4b34 <_puts_r+0x78>
    4af2:	0021      	movs	r1, r4
    4af4:	0028      	movs	r0, r5
    4af6:	f000 f957 	bl	4da8 <__swsetup_r>
    4afa:	2800      	cmp	r0, #0
    4afc:	d01a      	beq.n	4b34 <_puts_r+0x78>
    4afe:	2001      	movs	r0, #1
    4b00:	4240      	negs	r0, r0
    4b02:	bd70      	pop	{r4, r5, r6, pc}
    4b04:	4b1b      	ldr	r3, [pc, #108]	; (4b74 <_puts_r+0xb8>)
    4b06:	429c      	cmp	r4, r3
    4b08:	d101      	bne.n	4b0e <_puts_r+0x52>
    4b0a:	68ac      	ldr	r4, [r5, #8]
    4b0c:	e7eb      	b.n	4ae6 <_puts_r+0x2a>
    4b0e:	4b1a      	ldr	r3, [pc, #104]	; (4b78 <_puts_r+0xbc>)
    4b10:	429c      	cmp	r4, r3
    4b12:	d1e8      	bne.n	4ae6 <_puts_r+0x2a>
    4b14:	68ec      	ldr	r4, [r5, #12]
    4b16:	e7e6      	b.n	4ae6 <_puts_r+0x2a>
    4b18:	3b01      	subs	r3, #1
    4b1a:	3601      	adds	r6, #1
    4b1c:	60a3      	str	r3, [r4, #8]
    4b1e:	2b00      	cmp	r3, #0
    4b20:	da04      	bge.n	4b2c <_puts_r+0x70>
    4b22:	69a2      	ldr	r2, [r4, #24]
    4b24:	4293      	cmp	r3, r2
    4b26:	db16      	blt.n	4b56 <_puts_r+0x9a>
    4b28:	290a      	cmp	r1, #10
    4b2a:	d014      	beq.n	4b56 <_puts_r+0x9a>
    4b2c:	6823      	ldr	r3, [r4, #0]
    4b2e:	1c5a      	adds	r2, r3, #1
    4b30:	6022      	str	r2, [r4, #0]
    4b32:	7019      	strb	r1, [r3, #0]
    4b34:	7831      	ldrb	r1, [r6, #0]
    4b36:	68a3      	ldr	r3, [r4, #8]
    4b38:	2900      	cmp	r1, #0
    4b3a:	d1ed      	bne.n	4b18 <_puts_r+0x5c>
    4b3c:	3b01      	subs	r3, #1
    4b3e:	60a3      	str	r3, [r4, #8]
    4b40:	2b00      	cmp	r3, #0
    4b42:	da0f      	bge.n	4b64 <_puts_r+0xa8>
    4b44:	0022      	movs	r2, r4
    4b46:	310a      	adds	r1, #10
    4b48:	0028      	movs	r0, r5
    4b4a:	f000 f8d7 	bl	4cfc <__swbuf_r>
    4b4e:	1c43      	adds	r3, r0, #1
    4b50:	d0d5      	beq.n	4afe <_puts_r+0x42>
    4b52:	200a      	movs	r0, #10
    4b54:	e7d5      	b.n	4b02 <_puts_r+0x46>
    4b56:	0022      	movs	r2, r4
    4b58:	0028      	movs	r0, r5
    4b5a:	f000 f8cf 	bl	4cfc <__swbuf_r>
    4b5e:	1c43      	adds	r3, r0, #1
    4b60:	d1e8      	bne.n	4b34 <_puts_r+0x78>
    4b62:	e7cc      	b.n	4afe <_puts_r+0x42>
    4b64:	200a      	movs	r0, #10
    4b66:	6823      	ldr	r3, [r4, #0]
    4b68:	1c5a      	adds	r2, r3, #1
    4b6a:	6022      	str	r2, [r4, #0]
    4b6c:	7018      	strb	r0, [r3, #0]
    4b6e:	e7c8      	b.n	4b02 <_puts_r+0x46>
    4b70:	000062f4 	.word	0x000062f4
    4b74:	00006314 	.word	0x00006314
    4b78:	000062d4 	.word	0x000062d4

00004b7c <puts>:
    4b7c:	b510      	push	{r4, lr}
    4b7e:	4b03      	ldr	r3, [pc, #12]	; (4b8c <puts+0x10>)
    4b80:	0001      	movs	r1, r0
    4b82:	6818      	ldr	r0, [r3, #0]
    4b84:	f7ff ff9a 	bl	4abc <_puts_r>
    4b88:	bd10      	pop	{r4, pc}
    4b8a:	46c0      	nop			; (mov r8, r8)
    4b8c:	20000034 	.word	0x20000034

00004b90 <setbuf>:
    4b90:	424a      	negs	r2, r1
    4b92:	414a      	adcs	r2, r1
    4b94:	2380      	movs	r3, #128	; 0x80
    4b96:	b510      	push	{r4, lr}
    4b98:	0052      	lsls	r2, r2, #1
    4b9a:	00db      	lsls	r3, r3, #3
    4b9c:	f000 f802 	bl	4ba4 <setvbuf>
    4ba0:	bd10      	pop	{r4, pc}
	...

00004ba4 <setvbuf>:
    4ba4:	b5f0      	push	{r4, r5, r6, r7, lr}
    4ba6:	001d      	movs	r5, r3
    4ba8:	4b4f      	ldr	r3, [pc, #316]	; (4ce8 <setvbuf+0x144>)
    4baa:	b085      	sub	sp, #20
    4bac:	681e      	ldr	r6, [r3, #0]
    4bae:	0004      	movs	r4, r0
    4bb0:	000f      	movs	r7, r1
    4bb2:	9200      	str	r2, [sp, #0]
    4bb4:	2e00      	cmp	r6, #0
    4bb6:	d005      	beq.n	4bc4 <setvbuf+0x20>
    4bb8:	69b3      	ldr	r3, [r6, #24]
    4bba:	2b00      	cmp	r3, #0
    4bbc:	d102      	bne.n	4bc4 <setvbuf+0x20>
    4bbe:	0030      	movs	r0, r6
    4bc0:	f000 fa60 	bl	5084 <__sinit>
    4bc4:	4b49      	ldr	r3, [pc, #292]	; (4cec <setvbuf+0x148>)
    4bc6:	429c      	cmp	r4, r3
    4bc8:	d150      	bne.n	4c6c <setvbuf+0xc8>
    4bca:	6874      	ldr	r4, [r6, #4]
    4bcc:	9b00      	ldr	r3, [sp, #0]
    4bce:	2b02      	cmp	r3, #2
    4bd0:	d005      	beq.n	4bde <setvbuf+0x3a>
    4bd2:	2b01      	cmp	r3, #1
    4bd4:	d900      	bls.n	4bd8 <setvbuf+0x34>
    4bd6:	e084      	b.n	4ce2 <setvbuf+0x13e>
    4bd8:	2d00      	cmp	r5, #0
    4bda:	da00      	bge.n	4bde <setvbuf+0x3a>
    4bdc:	e081      	b.n	4ce2 <setvbuf+0x13e>
    4bde:	0021      	movs	r1, r4
    4be0:	0030      	movs	r0, r6
    4be2:	f000 f9e1 	bl	4fa8 <_fflush_r>
    4be6:	6b61      	ldr	r1, [r4, #52]	; 0x34
    4be8:	2900      	cmp	r1, #0
    4bea:	d008      	beq.n	4bfe <setvbuf+0x5a>
    4bec:	0023      	movs	r3, r4
    4bee:	3344      	adds	r3, #68	; 0x44
    4bf0:	4299      	cmp	r1, r3
    4bf2:	d002      	beq.n	4bfa <setvbuf+0x56>
    4bf4:	0030      	movs	r0, r6
    4bf6:	f000 fb51 	bl	529c <_free_r>
    4bfa:	2300      	movs	r3, #0
    4bfc:	6363      	str	r3, [r4, #52]	; 0x34
    4bfe:	2300      	movs	r3, #0
    4c00:	61a3      	str	r3, [r4, #24]
    4c02:	6063      	str	r3, [r4, #4]
    4c04:	89a3      	ldrh	r3, [r4, #12]
    4c06:	061b      	lsls	r3, r3, #24
    4c08:	d503      	bpl.n	4c12 <setvbuf+0x6e>
    4c0a:	6921      	ldr	r1, [r4, #16]
    4c0c:	0030      	movs	r0, r6
    4c0e:	f000 fb45 	bl	529c <_free_r>
    4c12:	89a3      	ldrh	r3, [r4, #12]
    4c14:	4a36      	ldr	r2, [pc, #216]	; (4cf0 <setvbuf+0x14c>)
    4c16:	4013      	ands	r3, r2
    4c18:	81a3      	strh	r3, [r4, #12]
    4c1a:	9b00      	ldr	r3, [sp, #0]
    4c1c:	2b02      	cmp	r3, #2
    4c1e:	d05a      	beq.n	4cd6 <setvbuf+0x132>
    4c20:	ab03      	add	r3, sp, #12
    4c22:	aa02      	add	r2, sp, #8
    4c24:	0021      	movs	r1, r4
    4c26:	0030      	movs	r0, r6
    4c28:	f000 fac2 	bl	51b0 <__swhatbuf_r>
    4c2c:	89a3      	ldrh	r3, [r4, #12]
    4c2e:	4318      	orrs	r0, r3
    4c30:	81a0      	strh	r0, [r4, #12]
    4c32:	2d00      	cmp	r5, #0
    4c34:	d124      	bne.n	4c80 <setvbuf+0xdc>
    4c36:	9d02      	ldr	r5, [sp, #8]
    4c38:	0028      	movs	r0, r5
    4c3a:	f000 fb25 	bl	5288 <malloc>
    4c3e:	9501      	str	r5, [sp, #4]
    4c40:	1e07      	subs	r7, r0, #0
    4c42:	d142      	bne.n	4cca <setvbuf+0x126>
    4c44:	9b02      	ldr	r3, [sp, #8]
    4c46:	9301      	str	r3, [sp, #4]
    4c48:	42ab      	cmp	r3, r5
    4c4a:	d139      	bne.n	4cc0 <setvbuf+0x11c>
    4c4c:	2001      	movs	r0, #1
    4c4e:	4240      	negs	r0, r0
    4c50:	2302      	movs	r3, #2
    4c52:	89a2      	ldrh	r2, [r4, #12]
    4c54:	4313      	orrs	r3, r2
    4c56:	81a3      	strh	r3, [r4, #12]
    4c58:	2300      	movs	r3, #0
    4c5a:	60a3      	str	r3, [r4, #8]
    4c5c:	0023      	movs	r3, r4
    4c5e:	3347      	adds	r3, #71	; 0x47
    4c60:	6023      	str	r3, [r4, #0]
    4c62:	6123      	str	r3, [r4, #16]
    4c64:	2301      	movs	r3, #1
    4c66:	6163      	str	r3, [r4, #20]
    4c68:	b005      	add	sp, #20
    4c6a:	bdf0      	pop	{r4, r5, r6, r7, pc}
    4c6c:	4b21      	ldr	r3, [pc, #132]	; (4cf4 <setvbuf+0x150>)
    4c6e:	429c      	cmp	r4, r3
    4c70:	d101      	bne.n	4c76 <setvbuf+0xd2>
    4c72:	68b4      	ldr	r4, [r6, #8]
    4c74:	e7aa      	b.n	4bcc <setvbuf+0x28>
    4c76:	4b20      	ldr	r3, [pc, #128]	; (4cf8 <setvbuf+0x154>)
    4c78:	429c      	cmp	r4, r3
    4c7a:	d1a7      	bne.n	4bcc <setvbuf+0x28>
    4c7c:	68f4      	ldr	r4, [r6, #12]
    4c7e:	e7a5      	b.n	4bcc <setvbuf+0x28>
    4c80:	2f00      	cmp	r7, #0
    4c82:	d0d9      	beq.n	4c38 <setvbuf+0x94>
    4c84:	69b3      	ldr	r3, [r6, #24]
    4c86:	2b00      	cmp	r3, #0
    4c88:	d102      	bne.n	4c90 <setvbuf+0xec>
    4c8a:	0030      	movs	r0, r6
    4c8c:	f000 f9fa 	bl	5084 <__sinit>
    4c90:	9b00      	ldr	r3, [sp, #0]
    4c92:	2b01      	cmp	r3, #1
    4c94:	d103      	bne.n	4c9e <setvbuf+0xfa>
    4c96:	89a3      	ldrh	r3, [r4, #12]
    4c98:	9a00      	ldr	r2, [sp, #0]
    4c9a:	431a      	orrs	r2, r3
    4c9c:	81a2      	strh	r2, [r4, #12]
    4c9e:	2008      	movs	r0, #8
    4ca0:	89a3      	ldrh	r3, [r4, #12]
    4ca2:	6027      	str	r7, [r4, #0]
    4ca4:	6127      	str	r7, [r4, #16]
    4ca6:	6165      	str	r5, [r4, #20]
    4ca8:	4018      	ands	r0, r3
    4caa:	d018      	beq.n	4cde <setvbuf+0x13a>
    4cac:	2001      	movs	r0, #1
    4cae:	4018      	ands	r0, r3
    4cb0:	2300      	movs	r3, #0
    4cb2:	4298      	cmp	r0, r3
    4cb4:	d011      	beq.n	4cda <setvbuf+0x136>
    4cb6:	426d      	negs	r5, r5
    4cb8:	60a3      	str	r3, [r4, #8]
    4cba:	61a5      	str	r5, [r4, #24]
    4cbc:	0018      	movs	r0, r3
    4cbe:	e7d3      	b.n	4c68 <setvbuf+0xc4>
    4cc0:	9801      	ldr	r0, [sp, #4]
    4cc2:	f000 fae1 	bl	5288 <malloc>
    4cc6:	1e07      	subs	r7, r0, #0
    4cc8:	d0c0      	beq.n	4c4c <setvbuf+0xa8>
    4cca:	2380      	movs	r3, #128	; 0x80
    4ccc:	89a2      	ldrh	r2, [r4, #12]
    4cce:	9d01      	ldr	r5, [sp, #4]
    4cd0:	4313      	orrs	r3, r2
    4cd2:	81a3      	strh	r3, [r4, #12]
    4cd4:	e7d6      	b.n	4c84 <setvbuf+0xe0>
    4cd6:	2000      	movs	r0, #0
    4cd8:	e7ba      	b.n	4c50 <setvbuf+0xac>
    4cda:	60a5      	str	r5, [r4, #8]
    4cdc:	e7c4      	b.n	4c68 <setvbuf+0xc4>
    4cde:	60a0      	str	r0, [r4, #8]
    4ce0:	e7c2      	b.n	4c68 <setvbuf+0xc4>
    4ce2:	2001      	movs	r0, #1
    4ce4:	4240      	negs	r0, r0
    4ce6:	e7bf      	b.n	4c68 <setvbuf+0xc4>
    4ce8:	20000034 	.word	0x20000034
    4cec:	000062f4 	.word	0x000062f4
    4cf0:	fffff35c 	.word	0xfffff35c
    4cf4:	00006314 	.word	0x00006314
    4cf8:	000062d4 	.word	0x000062d4

00004cfc <__swbuf_r>:
    4cfc:	b5f8      	push	{r3, r4, r5, r6, r7, lr}
    4cfe:	0005      	movs	r5, r0
    4d00:	000e      	movs	r6, r1
    4d02:	0014      	movs	r4, r2
    4d04:	2800      	cmp	r0, #0
    4d06:	d004      	beq.n	4d12 <__swbuf_r+0x16>
    4d08:	6983      	ldr	r3, [r0, #24]
    4d0a:	2b00      	cmp	r3, #0
    4d0c:	d101      	bne.n	4d12 <__swbuf_r+0x16>
    4d0e:	f000 f9b9 	bl	5084 <__sinit>
    4d12:	4b22      	ldr	r3, [pc, #136]	; (4d9c <__swbuf_r+0xa0>)
    4d14:	429c      	cmp	r4, r3
    4d16:	d12d      	bne.n	4d74 <__swbuf_r+0x78>
    4d18:	686c      	ldr	r4, [r5, #4]
    4d1a:	69a3      	ldr	r3, [r4, #24]
    4d1c:	60a3      	str	r3, [r4, #8]
    4d1e:	89a3      	ldrh	r3, [r4, #12]
    4d20:	071b      	lsls	r3, r3, #28
    4d22:	d531      	bpl.n	4d88 <__swbuf_r+0x8c>
    4d24:	6923      	ldr	r3, [r4, #16]
    4d26:	2b00      	cmp	r3, #0
    4d28:	d02e      	beq.n	4d88 <__swbuf_r+0x8c>
    4d2a:	6823      	ldr	r3, [r4, #0]
    4d2c:	6922      	ldr	r2, [r4, #16]
    4d2e:	b2f7      	uxtb	r7, r6
    4d30:	1a98      	subs	r0, r3, r2
    4d32:	6963      	ldr	r3, [r4, #20]
    4d34:	b2f6      	uxtb	r6, r6
    4d36:	4298      	cmp	r0, r3
    4d38:	db05      	blt.n	4d46 <__swbuf_r+0x4a>
    4d3a:	0021      	movs	r1, r4
    4d3c:	0028      	movs	r0, r5
    4d3e:	f000 f933 	bl	4fa8 <_fflush_r>
    4d42:	2800      	cmp	r0, #0
    4d44:	d126      	bne.n	4d94 <__swbuf_r+0x98>
    4d46:	68a3      	ldr	r3, [r4, #8]
    4d48:	3001      	adds	r0, #1
    4d4a:	3b01      	subs	r3, #1
    4d4c:	60a3      	str	r3, [r4, #8]
    4d4e:	6823      	ldr	r3, [r4, #0]
    4d50:	1c5a      	adds	r2, r3, #1
    4d52:	6022      	str	r2, [r4, #0]
    4d54:	701f      	strb	r7, [r3, #0]
    4d56:	6963      	ldr	r3, [r4, #20]
    4d58:	4298      	cmp	r0, r3
    4d5a:	d004      	beq.n	4d66 <__swbuf_r+0x6a>
    4d5c:	89a3      	ldrh	r3, [r4, #12]
    4d5e:	07db      	lsls	r3, r3, #31
    4d60:	d51a      	bpl.n	4d98 <__swbuf_r+0x9c>
    4d62:	2e0a      	cmp	r6, #10
    4d64:	d118      	bne.n	4d98 <__swbuf_r+0x9c>
    4d66:	0021      	movs	r1, r4
    4d68:	0028      	movs	r0, r5
    4d6a:	f000 f91d 	bl	4fa8 <_fflush_r>
    4d6e:	2800      	cmp	r0, #0
    4d70:	d012      	beq.n	4d98 <__swbuf_r+0x9c>
    4d72:	e00f      	b.n	4d94 <__swbuf_r+0x98>
    4d74:	4b0a      	ldr	r3, [pc, #40]	; (4da0 <__swbuf_r+0xa4>)
    4d76:	429c      	cmp	r4, r3
    4d78:	d101      	bne.n	4d7e <__swbuf_r+0x82>
    4d7a:	68ac      	ldr	r4, [r5, #8]
    4d7c:	e7cd      	b.n	4d1a <__swbuf_r+0x1e>
    4d7e:	4b09      	ldr	r3, [pc, #36]	; (4da4 <__swbuf_r+0xa8>)
    4d80:	429c      	cmp	r4, r3
    4d82:	d1ca      	bne.n	4d1a <__swbuf_r+0x1e>
    4d84:	68ec      	ldr	r4, [r5, #12]
    4d86:	e7c8      	b.n	4d1a <__swbuf_r+0x1e>
    4d88:	0021      	movs	r1, r4
    4d8a:	0028      	movs	r0, r5
    4d8c:	f000 f80c 	bl	4da8 <__swsetup_r>
    4d90:	2800      	cmp	r0, #0
    4d92:	d0ca      	beq.n	4d2a <__swbuf_r+0x2e>
    4d94:	2601      	movs	r6, #1
    4d96:	4276      	negs	r6, r6
    4d98:	0030      	movs	r0, r6
    4d9a:	bdf8      	pop	{r3, r4, r5, r6, r7, pc}
    4d9c:	000062f4 	.word	0x000062f4
    4da0:	00006314 	.word	0x00006314
    4da4:	000062d4 	.word	0x000062d4

00004da8 <__swsetup_r>:
    4da8:	4b36      	ldr	r3, [pc, #216]	; (4e84 <__swsetup_r+0xdc>)
    4daa:	b570      	push	{r4, r5, r6, lr}
    4dac:	681d      	ldr	r5, [r3, #0]
    4dae:	0006      	movs	r6, r0
    4db0:	000c      	movs	r4, r1
    4db2:	2d00      	cmp	r5, #0
    4db4:	d005      	beq.n	4dc2 <__swsetup_r+0x1a>
    4db6:	69ab      	ldr	r3, [r5, #24]
    4db8:	2b00      	cmp	r3, #0
    4dba:	d102      	bne.n	4dc2 <__swsetup_r+0x1a>
    4dbc:	0028      	movs	r0, r5
    4dbe:	f000 f961 	bl	5084 <__sinit>
    4dc2:	4b31      	ldr	r3, [pc, #196]	; (4e88 <__swsetup_r+0xe0>)
    4dc4:	429c      	cmp	r4, r3
    4dc6:	d10f      	bne.n	4de8 <__swsetup_r+0x40>
    4dc8:	686c      	ldr	r4, [r5, #4]
    4dca:	230c      	movs	r3, #12
    4dcc:	5ee2      	ldrsh	r2, [r4, r3]
    4dce:	b293      	uxth	r3, r2
    4dd0:	0719      	lsls	r1, r3, #28
    4dd2:	d42d      	bmi.n	4e30 <__swsetup_r+0x88>
    4dd4:	06d9      	lsls	r1, r3, #27
    4dd6:	d411      	bmi.n	4dfc <__swsetup_r+0x54>
    4dd8:	2309      	movs	r3, #9
    4dda:	2001      	movs	r0, #1
    4ddc:	6033      	str	r3, [r6, #0]
    4dde:	3337      	adds	r3, #55	; 0x37
    4de0:	4313      	orrs	r3, r2
    4de2:	81a3      	strh	r3, [r4, #12]
    4de4:	4240      	negs	r0, r0
    4de6:	bd70      	pop	{r4, r5, r6, pc}
    4de8:	4b28      	ldr	r3, [pc, #160]	; (4e8c <__swsetup_r+0xe4>)
    4dea:	429c      	cmp	r4, r3
    4dec:	d101      	bne.n	4df2 <__swsetup_r+0x4a>
    4dee:	68ac      	ldr	r4, [r5, #8]
    4df0:	e7eb      	b.n	4dca <__swsetup_r+0x22>
    4df2:	4b27      	ldr	r3, [pc, #156]	; (4e90 <__swsetup_r+0xe8>)
    4df4:	429c      	cmp	r4, r3
    4df6:	d1e8      	bne.n	4dca <__swsetup_r+0x22>
    4df8:	68ec      	ldr	r4, [r5, #12]
    4dfa:	e7e6      	b.n	4dca <__swsetup_r+0x22>
    4dfc:	075b      	lsls	r3, r3, #29
    4dfe:	d513      	bpl.n	4e28 <__swsetup_r+0x80>
    4e00:	6b61      	ldr	r1, [r4, #52]	; 0x34
    4e02:	2900      	cmp	r1, #0
    4e04:	d008      	beq.n	4e18 <__swsetup_r+0x70>
    4e06:	0023      	movs	r3, r4
    4e08:	3344      	adds	r3, #68	; 0x44
    4e0a:	4299      	cmp	r1, r3
    4e0c:	d002      	beq.n	4e14 <__swsetup_r+0x6c>
    4e0e:	0030      	movs	r0, r6
    4e10:	f000 fa44 	bl	529c <_free_r>
    4e14:	2300      	movs	r3, #0
    4e16:	6363      	str	r3, [r4, #52]	; 0x34
    4e18:	2224      	movs	r2, #36	; 0x24
    4e1a:	89a3      	ldrh	r3, [r4, #12]
    4e1c:	4393      	bics	r3, r2
    4e1e:	81a3      	strh	r3, [r4, #12]
    4e20:	2300      	movs	r3, #0
    4e22:	6063      	str	r3, [r4, #4]
    4e24:	6923      	ldr	r3, [r4, #16]
    4e26:	6023      	str	r3, [r4, #0]
    4e28:	2308      	movs	r3, #8
    4e2a:	89a2      	ldrh	r2, [r4, #12]
    4e2c:	4313      	orrs	r3, r2
    4e2e:	81a3      	strh	r3, [r4, #12]
    4e30:	6923      	ldr	r3, [r4, #16]
    4e32:	2b00      	cmp	r3, #0
    4e34:	d10b      	bne.n	4e4e <__swsetup_r+0xa6>
    4e36:	21a0      	movs	r1, #160	; 0xa0
    4e38:	2280      	movs	r2, #128	; 0x80
    4e3a:	89a3      	ldrh	r3, [r4, #12]
    4e3c:	0089      	lsls	r1, r1, #2
    4e3e:	0092      	lsls	r2, r2, #2
    4e40:	400b      	ands	r3, r1
    4e42:	4293      	cmp	r3, r2
    4e44:	d003      	beq.n	4e4e <__swsetup_r+0xa6>
    4e46:	0021      	movs	r1, r4
    4e48:	0030      	movs	r0, r6
    4e4a:	f000 f9d9 	bl	5200 <__smakebuf_r>
    4e4e:	2301      	movs	r3, #1
    4e50:	89a2      	ldrh	r2, [r4, #12]
    4e52:	4013      	ands	r3, r2
    4e54:	d011      	beq.n	4e7a <__swsetup_r+0xd2>
    4e56:	2300      	movs	r3, #0
    4e58:	60a3      	str	r3, [r4, #8]
    4e5a:	6963      	ldr	r3, [r4, #20]
    4e5c:	425b      	negs	r3, r3
    4e5e:	61a3      	str	r3, [r4, #24]
    4e60:	2000      	movs	r0, #0
    4e62:	6923      	ldr	r3, [r4, #16]
    4e64:	4283      	cmp	r3, r0
    4e66:	d1be      	bne.n	4de6 <__swsetup_r+0x3e>
    4e68:	230c      	movs	r3, #12
    4e6a:	5ee2      	ldrsh	r2, [r4, r3]
    4e6c:	0613      	lsls	r3, r2, #24
    4e6e:	d5ba      	bpl.n	4de6 <__swsetup_r+0x3e>
    4e70:	2340      	movs	r3, #64	; 0x40
    4e72:	4313      	orrs	r3, r2
    4e74:	81a3      	strh	r3, [r4, #12]
    4e76:	3801      	subs	r0, #1
    4e78:	e7b5      	b.n	4de6 <__swsetup_r+0x3e>
    4e7a:	0792      	lsls	r2, r2, #30
    4e7c:	d400      	bmi.n	4e80 <__swsetup_r+0xd8>
    4e7e:	6963      	ldr	r3, [r4, #20]
    4e80:	60a3      	str	r3, [r4, #8]
    4e82:	e7ed      	b.n	4e60 <__swsetup_r+0xb8>
    4e84:	20000034 	.word	0x20000034
    4e88:	000062f4 	.word	0x000062f4
    4e8c:	00006314 	.word	0x00006314
    4e90:	000062d4 	.word	0x000062d4

00004e94 <__sflush_r>:
    4e94:	b5f7      	push	{r0, r1, r2, r4, r5, r6, r7, lr}
    4e96:	898a      	ldrh	r2, [r1, #12]
    4e98:	0005      	movs	r5, r0
    4e9a:	000c      	movs	r4, r1
    4e9c:	0713      	lsls	r3, r2, #28
    4e9e:	d460      	bmi.n	4f62 <__sflush_r+0xce>
    4ea0:	684b      	ldr	r3, [r1, #4]
    4ea2:	2b00      	cmp	r3, #0
    4ea4:	dc04      	bgt.n	4eb0 <__sflush_r+0x1c>
    4ea6:	6c0b      	ldr	r3, [r1, #64]	; 0x40
    4ea8:	2b00      	cmp	r3, #0
    4eaa:	dc01      	bgt.n	4eb0 <__sflush_r+0x1c>
    4eac:	2000      	movs	r0, #0
    4eae:	bdfe      	pop	{r1, r2, r3, r4, r5, r6, r7, pc}
    4eb0:	6ae7      	ldr	r7, [r4, #44]	; 0x2c
    4eb2:	2f00      	cmp	r7, #0
    4eb4:	d0fa      	beq.n	4eac <__sflush_r+0x18>
    4eb6:	2300      	movs	r3, #0
    4eb8:	682e      	ldr	r6, [r5, #0]
    4eba:	602b      	str	r3, [r5, #0]
    4ebc:	2380      	movs	r3, #128	; 0x80
    4ebe:	015b      	lsls	r3, r3, #5
    4ec0:	401a      	ands	r2, r3
    4ec2:	d034      	beq.n	4f2e <__sflush_r+0x9a>
    4ec4:	6d60      	ldr	r0, [r4, #84]	; 0x54
    4ec6:	89a3      	ldrh	r3, [r4, #12]
    4ec8:	075b      	lsls	r3, r3, #29
    4eca:	d506      	bpl.n	4eda <__sflush_r+0x46>
    4ecc:	6863      	ldr	r3, [r4, #4]
    4ece:	1ac0      	subs	r0, r0, r3
    4ed0:	6b63      	ldr	r3, [r4, #52]	; 0x34
    4ed2:	2b00      	cmp	r3, #0
    4ed4:	d001      	beq.n	4eda <__sflush_r+0x46>
    4ed6:	6c23      	ldr	r3, [r4, #64]	; 0x40
    4ed8:	1ac0      	subs	r0, r0, r3
    4eda:	0002      	movs	r2, r0
    4edc:	6a21      	ldr	r1, [r4, #32]
    4ede:	2300      	movs	r3, #0
    4ee0:	0028      	movs	r0, r5
    4ee2:	6ae7      	ldr	r7, [r4, #44]	; 0x2c
    4ee4:	47b8      	blx	r7
    4ee6:	89a1      	ldrh	r1, [r4, #12]
    4ee8:	1c43      	adds	r3, r0, #1
    4eea:	d106      	bne.n	4efa <__sflush_r+0x66>
    4eec:	682b      	ldr	r3, [r5, #0]
    4eee:	2b1d      	cmp	r3, #29
    4ef0:	d831      	bhi.n	4f56 <__sflush_r+0xc2>
    4ef2:	4a2c      	ldr	r2, [pc, #176]	; (4fa4 <__sflush_r+0x110>)
    4ef4:	40da      	lsrs	r2, r3
    4ef6:	07d3      	lsls	r3, r2, #31
    4ef8:	d52d      	bpl.n	4f56 <__sflush_r+0xc2>
    4efa:	2300      	movs	r3, #0
    4efc:	6063      	str	r3, [r4, #4]
    4efe:	6923      	ldr	r3, [r4, #16]
    4f00:	6023      	str	r3, [r4, #0]
    4f02:	04cb      	lsls	r3, r1, #19
    4f04:	d505      	bpl.n	4f12 <__sflush_r+0x7e>
    4f06:	1c43      	adds	r3, r0, #1
    4f08:	d102      	bne.n	4f10 <__sflush_r+0x7c>
    4f0a:	682b      	ldr	r3, [r5, #0]
    4f0c:	2b00      	cmp	r3, #0
    4f0e:	d100      	bne.n	4f12 <__sflush_r+0x7e>
    4f10:	6560      	str	r0, [r4, #84]	; 0x54
    4f12:	6b61      	ldr	r1, [r4, #52]	; 0x34
    4f14:	602e      	str	r6, [r5, #0]
    4f16:	2900      	cmp	r1, #0
    4f18:	d0c8      	beq.n	4eac <__sflush_r+0x18>
    4f1a:	0023      	movs	r3, r4
    4f1c:	3344      	adds	r3, #68	; 0x44
    4f1e:	4299      	cmp	r1, r3
    4f20:	d002      	beq.n	4f28 <__sflush_r+0x94>
    4f22:	0028      	movs	r0, r5
    4f24:	f000 f9ba 	bl	529c <_free_r>
    4f28:	2000      	movs	r0, #0
    4f2a:	6360      	str	r0, [r4, #52]	; 0x34
    4f2c:	e7bf      	b.n	4eae <__sflush_r+0x1a>
    4f2e:	2301      	movs	r3, #1
    4f30:	6a21      	ldr	r1, [r4, #32]
    4f32:	0028      	movs	r0, r5
    4f34:	47b8      	blx	r7
    4f36:	1c43      	adds	r3, r0, #1
    4f38:	d1c5      	bne.n	4ec6 <__sflush_r+0x32>
    4f3a:	682b      	ldr	r3, [r5, #0]
    4f3c:	2b00      	cmp	r3, #0
    4f3e:	d0c2      	beq.n	4ec6 <__sflush_r+0x32>
    4f40:	2b1d      	cmp	r3, #29
    4f42:	d001      	beq.n	4f48 <__sflush_r+0xb4>
    4f44:	2b16      	cmp	r3, #22
    4f46:	d101      	bne.n	4f4c <__sflush_r+0xb8>
    4f48:	602e      	str	r6, [r5, #0]
    4f4a:	e7af      	b.n	4eac <__sflush_r+0x18>
    4f4c:	2340      	movs	r3, #64	; 0x40
    4f4e:	89a2      	ldrh	r2, [r4, #12]
    4f50:	4313      	orrs	r3, r2
    4f52:	81a3      	strh	r3, [r4, #12]
    4f54:	e7ab      	b.n	4eae <__sflush_r+0x1a>
    4f56:	2340      	movs	r3, #64	; 0x40
    4f58:	430b      	orrs	r3, r1
    4f5a:	2001      	movs	r0, #1
    4f5c:	81a3      	strh	r3, [r4, #12]
    4f5e:	4240      	negs	r0, r0
    4f60:	e7a5      	b.n	4eae <__sflush_r+0x1a>
    4f62:	690f      	ldr	r7, [r1, #16]
    4f64:	2f00      	cmp	r7, #0
    4f66:	d0a1      	beq.n	4eac <__sflush_r+0x18>
    4f68:	680b      	ldr	r3, [r1, #0]
    4f6a:	600f      	str	r7, [r1, #0]
    4f6c:	1bdb      	subs	r3, r3, r7
    4f6e:	9301      	str	r3, [sp, #4]
    4f70:	2300      	movs	r3, #0
    4f72:	0792      	lsls	r2, r2, #30
    4f74:	d100      	bne.n	4f78 <__sflush_r+0xe4>
    4f76:	694b      	ldr	r3, [r1, #20]
    4f78:	60a3      	str	r3, [r4, #8]
    4f7a:	9b01      	ldr	r3, [sp, #4]
    4f7c:	2b00      	cmp	r3, #0
    4f7e:	dc00      	bgt.n	4f82 <__sflush_r+0xee>
    4f80:	e794      	b.n	4eac <__sflush_r+0x18>
    4f82:	9b01      	ldr	r3, [sp, #4]
    4f84:	003a      	movs	r2, r7
    4f86:	6a21      	ldr	r1, [r4, #32]
    4f88:	0028      	movs	r0, r5
    4f8a:	6aa6      	ldr	r6, [r4, #40]	; 0x28
    4f8c:	47b0      	blx	r6
    4f8e:	2800      	cmp	r0, #0
    4f90:	dc03      	bgt.n	4f9a <__sflush_r+0x106>
    4f92:	2340      	movs	r3, #64	; 0x40
    4f94:	89a2      	ldrh	r2, [r4, #12]
    4f96:	4313      	orrs	r3, r2
    4f98:	e7df      	b.n	4f5a <__sflush_r+0xc6>
    4f9a:	9b01      	ldr	r3, [sp, #4]
    4f9c:	183f      	adds	r7, r7, r0
    4f9e:	1a1b      	subs	r3, r3, r0
    4fa0:	9301      	str	r3, [sp, #4]
    4fa2:	e7ea      	b.n	4f7a <__sflush_r+0xe6>
    4fa4:	20400001 	.word	0x20400001

00004fa8 <_fflush_r>:
    4fa8:	690b      	ldr	r3, [r1, #16]
    4faa:	b570      	push	{r4, r5, r6, lr}
    4fac:	0005      	movs	r5, r0
    4fae:	000c      	movs	r4, r1
    4fb0:	2b00      	cmp	r3, #0
    4fb2:	d101      	bne.n	4fb8 <_fflush_r+0x10>
    4fb4:	2000      	movs	r0, #0
    4fb6:	bd70      	pop	{r4, r5, r6, pc}
    4fb8:	2800      	cmp	r0, #0
    4fba:	d004      	beq.n	4fc6 <_fflush_r+0x1e>
    4fbc:	6983      	ldr	r3, [r0, #24]
    4fbe:	2b00      	cmp	r3, #0
    4fc0:	d101      	bne.n	4fc6 <_fflush_r+0x1e>
    4fc2:	f000 f85f 	bl	5084 <__sinit>
    4fc6:	4b0b      	ldr	r3, [pc, #44]	; (4ff4 <_fflush_r+0x4c>)
    4fc8:	429c      	cmp	r4, r3
    4fca:	d109      	bne.n	4fe0 <_fflush_r+0x38>
    4fcc:	686c      	ldr	r4, [r5, #4]
    4fce:	220c      	movs	r2, #12
    4fd0:	5ea3      	ldrsh	r3, [r4, r2]
    4fd2:	2b00      	cmp	r3, #0
    4fd4:	d0ee      	beq.n	4fb4 <_fflush_r+0xc>
    4fd6:	0021      	movs	r1, r4
    4fd8:	0028      	movs	r0, r5
    4fda:	f7ff ff5b 	bl	4e94 <__sflush_r>
    4fde:	e7ea      	b.n	4fb6 <_fflush_r+0xe>
    4fe0:	4b05      	ldr	r3, [pc, #20]	; (4ff8 <_fflush_r+0x50>)
    4fe2:	429c      	cmp	r4, r3
    4fe4:	d101      	bne.n	4fea <_fflush_r+0x42>
    4fe6:	68ac      	ldr	r4, [r5, #8]
    4fe8:	e7f1      	b.n	4fce <_fflush_r+0x26>
    4fea:	4b04      	ldr	r3, [pc, #16]	; (4ffc <_fflush_r+0x54>)
    4fec:	429c      	cmp	r4, r3
    4fee:	d1ee      	bne.n	4fce <_fflush_r+0x26>
    4ff0:	68ec      	ldr	r4, [r5, #12]
    4ff2:	e7ec      	b.n	4fce <_fflush_r+0x26>
    4ff4:	000062f4 	.word	0x000062f4
    4ff8:	00006314 	.word	0x00006314
    4ffc:	000062d4 	.word	0x000062d4

00005000 <_cleanup_r>:
    5000:	b510      	push	{r4, lr}
    5002:	4902      	ldr	r1, [pc, #8]	; (500c <_cleanup_r+0xc>)
    5004:	f000 f8b2 	bl	516c <_fwalk_reent>
    5008:	bd10      	pop	{r4, pc}
    500a:	46c0      	nop			; (mov r8, r8)
    500c:	00004fa9 	.word	0x00004fa9

00005010 <std.isra.0>:
    5010:	2300      	movs	r3, #0
    5012:	b510      	push	{r4, lr}
    5014:	0004      	movs	r4, r0
    5016:	6003      	str	r3, [r0, #0]
    5018:	6043      	str	r3, [r0, #4]
    501a:	6083      	str	r3, [r0, #8]
    501c:	8181      	strh	r1, [r0, #12]
    501e:	6643      	str	r3, [r0, #100]	; 0x64
    5020:	81c2      	strh	r2, [r0, #14]
    5022:	6103      	str	r3, [r0, #16]
    5024:	6143      	str	r3, [r0, #20]
    5026:	6183      	str	r3, [r0, #24]
    5028:	0019      	movs	r1, r3
    502a:	2208      	movs	r2, #8
    502c:	305c      	adds	r0, #92	; 0x5c
    502e:	f7ff fd22 	bl	4a76 <memset>
    5032:	4b05      	ldr	r3, [pc, #20]	; (5048 <std.isra.0+0x38>)
    5034:	6224      	str	r4, [r4, #32]
    5036:	6263      	str	r3, [r4, #36]	; 0x24
    5038:	4b04      	ldr	r3, [pc, #16]	; (504c <std.isra.0+0x3c>)
    503a:	62a3      	str	r3, [r4, #40]	; 0x28
    503c:	4b04      	ldr	r3, [pc, #16]	; (5050 <std.isra.0+0x40>)
    503e:	62e3      	str	r3, [r4, #44]	; 0x2c
    5040:	4b04      	ldr	r3, [pc, #16]	; (5054 <std.isra.0+0x44>)
    5042:	6323      	str	r3, [r4, #48]	; 0x30
    5044:	bd10      	pop	{r4, pc}
    5046:	46c0      	nop			; (mov r8, r8)
    5048:	000059a9 	.word	0x000059a9
    504c:	000059d1 	.word	0x000059d1
    5050:	00005a09 	.word	0x00005a09
    5054:	00005a35 	.word	0x00005a35

00005058 <__sfmoreglue>:
    5058:	b570      	push	{r4, r5, r6, lr}
    505a:	2568      	movs	r5, #104	; 0x68
    505c:	1e4a      	subs	r2, r1, #1
    505e:	4355      	muls	r5, r2
    5060:	000e      	movs	r6, r1
    5062:	0029      	movs	r1, r5
    5064:	3174      	adds	r1, #116	; 0x74
    5066:	f000 f963 	bl	5330 <_malloc_r>
    506a:	1e04      	subs	r4, r0, #0
    506c:	d008      	beq.n	5080 <__sfmoreglue+0x28>
    506e:	2100      	movs	r1, #0
    5070:	002a      	movs	r2, r5
    5072:	6001      	str	r1, [r0, #0]
    5074:	6046      	str	r6, [r0, #4]
    5076:	300c      	adds	r0, #12
    5078:	60a0      	str	r0, [r4, #8]
    507a:	3268      	adds	r2, #104	; 0x68
    507c:	f7ff fcfb 	bl	4a76 <memset>
    5080:	0020      	movs	r0, r4
    5082:	bd70      	pop	{r4, r5, r6, pc}

00005084 <__sinit>:
    5084:	6983      	ldr	r3, [r0, #24]
    5086:	b513      	push	{r0, r1, r4, lr}
    5088:	0004      	movs	r4, r0
    508a:	2b00      	cmp	r3, #0
    508c:	d128      	bne.n	50e0 <__sinit+0x5c>
    508e:	6483      	str	r3, [r0, #72]	; 0x48
    5090:	64c3      	str	r3, [r0, #76]	; 0x4c
    5092:	6503      	str	r3, [r0, #80]	; 0x50
    5094:	4b13      	ldr	r3, [pc, #76]	; (50e4 <__sinit+0x60>)
    5096:	4a14      	ldr	r2, [pc, #80]	; (50e8 <__sinit+0x64>)
    5098:	681b      	ldr	r3, [r3, #0]
    509a:	6282      	str	r2, [r0, #40]	; 0x28
    509c:	9301      	str	r3, [sp, #4]
    509e:	4298      	cmp	r0, r3
    50a0:	d101      	bne.n	50a6 <__sinit+0x22>
    50a2:	2301      	movs	r3, #1
    50a4:	6183      	str	r3, [r0, #24]
    50a6:	0020      	movs	r0, r4
    50a8:	f000 f820 	bl	50ec <__sfp>
    50ac:	6060      	str	r0, [r4, #4]
    50ae:	0020      	movs	r0, r4
    50b0:	f000 f81c 	bl	50ec <__sfp>
    50b4:	60a0      	str	r0, [r4, #8]
    50b6:	0020      	movs	r0, r4
    50b8:	f000 f818 	bl	50ec <__sfp>
    50bc:	2200      	movs	r2, #0
    50be:	60e0      	str	r0, [r4, #12]
    50c0:	2104      	movs	r1, #4
    50c2:	6860      	ldr	r0, [r4, #4]
    50c4:	f7ff ffa4 	bl	5010 <std.isra.0>
    50c8:	2201      	movs	r2, #1
    50ca:	2109      	movs	r1, #9
    50cc:	68a0      	ldr	r0, [r4, #8]
    50ce:	f7ff ff9f 	bl	5010 <std.isra.0>
    50d2:	2202      	movs	r2, #2
    50d4:	2112      	movs	r1, #18
    50d6:	68e0      	ldr	r0, [r4, #12]
    50d8:	f7ff ff9a 	bl	5010 <std.isra.0>
    50dc:	2301      	movs	r3, #1
    50de:	61a3      	str	r3, [r4, #24]
    50e0:	bd13      	pop	{r0, r1, r4, pc}
    50e2:	46c0      	nop			; (mov r8, r8)
    50e4:	000062d0 	.word	0x000062d0
    50e8:	00005001 	.word	0x00005001

000050ec <__sfp>:
    50ec:	b5f8      	push	{r3, r4, r5, r6, r7, lr}
    50ee:	4b1e      	ldr	r3, [pc, #120]	; (5168 <__sfp+0x7c>)
    50f0:	0007      	movs	r7, r0
    50f2:	681e      	ldr	r6, [r3, #0]
    50f4:	69b3      	ldr	r3, [r6, #24]
    50f6:	2b00      	cmp	r3, #0
    50f8:	d102      	bne.n	5100 <__sfp+0x14>
    50fa:	0030      	movs	r0, r6
    50fc:	f7ff ffc2 	bl	5084 <__sinit>
    5100:	3648      	adds	r6, #72	; 0x48
    5102:	68b4      	ldr	r4, [r6, #8]
    5104:	6873      	ldr	r3, [r6, #4]
    5106:	3b01      	subs	r3, #1
    5108:	d504      	bpl.n	5114 <__sfp+0x28>
    510a:	6833      	ldr	r3, [r6, #0]
    510c:	2b00      	cmp	r3, #0
    510e:	d007      	beq.n	5120 <__sfp+0x34>
    5110:	6836      	ldr	r6, [r6, #0]
    5112:	e7f6      	b.n	5102 <__sfp+0x16>
    5114:	220c      	movs	r2, #12
    5116:	5ea5      	ldrsh	r5, [r4, r2]
    5118:	2d00      	cmp	r5, #0
    511a:	d00d      	beq.n	5138 <__sfp+0x4c>
    511c:	3468      	adds	r4, #104	; 0x68
    511e:	e7f2      	b.n	5106 <__sfp+0x1a>
    5120:	2104      	movs	r1, #4
    5122:	0038      	movs	r0, r7
    5124:	f7ff ff98 	bl	5058 <__sfmoreglue>
    5128:	6030      	str	r0, [r6, #0]
    512a:	2800      	cmp	r0, #0
    512c:	d1f0      	bne.n	5110 <__sfp+0x24>
    512e:	230c      	movs	r3, #12
    5130:	0004      	movs	r4, r0
    5132:	603b      	str	r3, [r7, #0]
    5134:	0020      	movs	r0, r4
    5136:	bdf8      	pop	{r3, r4, r5, r6, r7, pc}
    5138:	2301      	movs	r3, #1
    513a:	0020      	movs	r0, r4
    513c:	425b      	negs	r3, r3
    513e:	81e3      	strh	r3, [r4, #14]
    5140:	3302      	adds	r3, #2
    5142:	81a3      	strh	r3, [r4, #12]
    5144:	6665      	str	r5, [r4, #100]	; 0x64
    5146:	6025      	str	r5, [r4, #0]
    5148:	60a5      	str	r5, [r4, #8]
    514a:	6065      	str	r5, [r4, #4]
    514c:	6125      	str	r5, [r4, #16]
    514e:	6165      	str	r5, [r4, #20]
    5150:	61a5      	str	r5, [r4, #24]
    5152:	2208      	movs	r2, #8
    5154:	0029      	movs	r1, r5
    5156:	305c      	adds	r0, #92	; 0x5c
    5158:	f7ff fc8d 	bl	4a76 <memset>
    515c:	6365      	str	r5, [r4, #52]	; 0x34
    515e:	63a5      	str	r5, [r4, #56]	; 0x38
    5160:	64a5      	str	r5, [r4, #72]	; 0x48
    5162:	64e5      	str	r5, [r4, #76]	; 0x4c
    5164:	e7e6      	b.n	5134 <__sfp+0x48>
    5166:	46c0      	nop			; (mov r8, r8)
    5168:	000062d0 	.word	0x000062d0

0000516c <_fwalk_reent>:
    516c:	b5f7      	push	{r0, r1, r2, r4, r5, r6, r7, lr}
    516e:	0004      	movs	r4, r0
    5170:	0007      	movs	r7, r0
    5172:	2600      	movs	r6, #0
    5174:	9101      	str	r1, [sp, #4]
    5176:	3448      	adds	r4, #72	; 0x48
    5178:	2c00      	cmp	r4, #0
    517a:	d101      	bne.n	5180 <_fwalk_reent+0x14>
    517c:	0030      	movs	r0, r6
    517e:	bdfe      	pop	{r1, r2, r3, r4, r5, r6, r7, pc}
    5180:	6863      	ldr	r3, [r4, #4]
    5182:	68a5      	ldr	r5, [r4, #8]
    5184:	9300      	str	r3, [sp, #0]
    5186:	9b00      	ldr	r3, [sp, #0]
    5188:	3b01      	subs	r3, #1
    518a:	9300      	str	r3, [sp, #0]
    518c:	d501      	bpl.n	5192 <_fwalk_reent+0x26>
    518e:	6824      	ldr	r4, [r4, #0]
    5190:	e7f2      	b.n	5178 <_fwalk_reent+0xc>
    5192:	89ab      	ldrh	r3, [r5, #12]
    5194:	2b01      	cmp	r3, #1
    5196:	d908      	bls.n	51aa <_fwalk_reent+0x3e>
    5198:	220e      	movs	r2, #14
    519a:	5eab      	ldrsh	r3, [r5, r2]
    519c:	3301      	adds	r3, #1
    519e:	d004      	beq.n	51aa <_fwalk_reent+0x3e>
    51a0:	0029      	movs	r1, r5
    51a2:	0038      	movs	r0, r7
    51a4:	9b01      	ldr	r3, [sp, #4]
    51a6:	4798      	blx	r3
    51a8:	4306      	orrs	r6, r0
    51aa:	3568      	adds	r5, #104	; 0x68
    51ac:	e7eb      	b.n	5186 <_fwalk_reent+0x1a>
	...

000051b0 <__swhatbuf_r>:
    51b0:	b570      	push	{r4, r5, r6, lr}
    51b2:	000e      	movs	r6, r1
    51b4:	001d      	movs	r5, r3
    51b6:	230e      	movs	r3, #14
    51b8:	5ec9      	ldrsh	r1, [r1, r3]
    51ba:	b090      	sub	sp, #64	; 0x40
    51bc:	0014      	movs	r4, r2
    51be:	2900      	cmp	r1, #0
    51c0:	da07      	bge.n	51d2 <__swhatbuf_r+0x22>
    51c2:	2300      	movs	r3, #0
    51c4:	602b      	str	r3, [r5, #0]
    51c6:	89b3      	ldrh	r3, [r6, #12]
    51c8:	061b      	lsls	r3, r3, #24
    51ca:	d411      	bmi.n	51f0 <__swhatbuf_r+0x40>
    51cc:	2380      	movs	r3, #128	; 0x80
    51ce:	00db      	lsls	r3, r3, #3
    51d0:	e00f      	b.n	51f2 <__swhatbuf_r+0x42>
    51d2:	aa01      	add	r2, sp, #4
    51d4:	f000 fc5a 	bl	5a8c <_fstat_r>
    51d8:	2800      	cmp	r0, #0
    51da:	dbf2      	blt.n	51c2 <__swhatbuf_r+0x12>
    51dc:	22f0      	movs	r2, #240	; 0xf0
    51de:	9b02      	ldr	r3, [sp, #8]
    51e0:	0212      	lsls	r2, r2, #8
    51e2:	4013      	ands	r3, r2
    51e4:	4a05      	ldr	r2, [pc, #20]	; (51fc <__swhatbuf_r+0x4c>)
    51e6:	189b      	adds	r3, r3, r2
    51e8:	425a      	negs	r2, r3
    51ea:	4153      	adcs	r3, r2
    51ec:	602b      	str	r3, [r5, #0]
    51ee:	e7ed      	b.n	51cc <__swhatbuf_r+0x1c>
    51f0:	2340      	movs	r3, #64	; 0x40
    51f2:	2000      	movs	r0, #0
    51f4:	6023      	str	r3, [r4, #0]
    51f6:	b010      	add	sp, #64	; 0x40
    51f8:	bd70      	pop	{r4, r5, r6, pc}
    51fa:	46c0      	nop			; (mov r8, r8)
    51fc:	ffffe000 	.word	0xffffe000

00005200 <__smakebuf_r>:
    5200:	b5f7      	push	{r0, r1, r2, r4, r5, r6, r7, lr}
    5202:	2602      	movs	r6, #2
    5204:	898b      	ldrh	r3, [r1, #12]
    5206:	0005      	movs	r5, r0
    5208:	000c      	movs	r4, r1
    520a:	4233      	tst	r3, r6
    520c:	d006      	beq.n	521c <__smakebuf_r+0x1c>
    520e:	0023      	movs	r3, r4
    5210:	3347      	adds	r3, #71	; 0x47
    5212:	6023      	str	r3, [r4, #0]
    5214:	6123      	str	r3, [r4, #16]
    5216:	2301      	movs	r3, #1
    5218:	6163      	str	r3, [r4, #20]
    521a:	bdf7      	pop	{r0, r1, r2, r4, r5, r6, r7, pc}
    521c:	ab01      	add	r3, sp, #4
    521e:	466a      	mov	r2, sp
    5220:	f7ff ffc6 	bl	51b0 <__swhatbuf_r>
    5224:	9900      	ldr	r1, [sp, #0]
    5226:	0007      	movs	r7, r0
    5228:	0028      	movs	r0, r5
    522a:	f000 f881 	bl	5330 <_malloc_r>
    522e:	2800      	cmp	r0, #0
    5230:	d108      	bne.n	5244 <__smakebuf_r+0x44>
    5232:	220c      	movs	r2, #12
    5234:	5ea3      	ldrsh	r3, [r4, r2]
    5236:	059a      	lsls	r2, r3, #22
    5238:	d4ef      	bmi.n	521a <__smakebuf_r+0x1a>
    523a:	2203      	movs	r2, #3
    523c:	4393      	bics	r3, r2
    523e:	431e      	orrs	r6, r3
    5240:	81a6      	strh	r6, [r4, #12]
    5242:	e7e4      	b.n	520e <__smakebuf_r+0xe>
    5244:	4b0f      	ldr	r3, [pc, #60]	; (5284 <__smakebuf_r+0x84>)
    5246:	62ab      	str	r3, [r5, #40]	; 0x28
    5248:	2380      	movs	r3, #128	; 0x80
    524a:	89a2      	ldrh	r2, [r4, #12]
    524c:	6020      	str	r0, [r4, #0]
    524e:	4313      	orrs	r3, r2
    5250:	81a3      	strh	r3, [r4, #12]
    5252:	9b00      	ldr	r3, [sp, #0]
    5254:	6120      	str	r0, [r4, #16]
    5256:	6163      	str	r3, [r4, #20]
    5258:	9b01      	ldr	r3, [sp, #4]
    525a:	2b00      	cmp	r3, #0
    525c:	d00d      	beq.n	527a <__smakebuf_r+0x7a>
    525e:	230e      	movs	r3, #14
    5260:	5ee1      	ldrsh	r1, [r4, r3]
    5262:	0028      	movs	r0, r5
    5264:	f000 fc24 	bl	5ab0 <_isatty_r>
    5268:	2800      	cmp	r0, #0
    526a:	d006      	beq.n	527a <__smakebuf_r+0x7a>
    526c:	2203      	movs	r2, #3
    526e:	89a3      	ldrh	r3, [r4, #12]
    5270:	4393      	bics	r3, r2
    5272:	001a      	movs	r2, r3
    5274:	2301      	movs	r3, #1
    5276:	4313      	orrs	r3, r2
    5278:	81a3      	strh	r3, [r4, #12]
    527a:	89a0      	ldrh	r0, [r4, #12]
    527c:	4338      	orrs	r0, r7
    527e:	81a0      	strh	r0, [r4, #12]
    5280:	e7cb      	b.n	521a <__smakebuf_r+0x1a>
    5282:	46c0      	nop			; (mov r8, r8)
    5284:	00005001 	.word	0x00005001

00005288 <malloc>:
    5288:	b510      	push	{r4, lr}
    528a:	4b03      	ldr	r3, [pc, #12]	; (5298 <malloc+0x10>)
    528c:	0001      	movs	r1, r0
    528e:	6818      	ldr	r0, [r3, #0]
    5290:	f000 f84e 	bl	5330 <_malloc_r>
    5294:	bd10      	pop	{r4, pc}
    5296:	46c0      	nop			; (mov r8, r8)
    5298:	20000034 	.word	0x20000034

0000529c <_free_r>:
    529c:	b570      	push	{r4, r5, r6, lr}
    529e:	0005      	movs	r5, r0
    52a0:	2900      	cmp	r1, #0
    52a2:	d010      	beq.n	52c6 <_free_r+0x2a>
    52a4:	1f0c      	subs	r4, r1, #4
    52a6:	6823      	ldr	r3, [r4, #0]
    52a8:	2b00      	cmp	r3, #0
    52aa:	da00      	bge.n	52ae <_free_r+0x12>
    52ac:	18e4      	adds	r4, r4, r3
    52ae:	0028      	movs	r0, r5
    52b0:	f000 fc2f 	bl	5b12 <__malloc_lock>
    52b4:	4a1d      	ldr	r2, [pc, #116]	; (532c <_free_r+0x90>)
    52b6:	6813      	ldr	r3, [r2, #0]
    52b8:	2b00      	cmp	r3, #0
    52ba:	d105      	bne.n	52c8 <_free_r+0x2c>
    52bc:	6063      	str	r3, [r4, #4]
    52be:	6014      	str	r4, [r2, #0]
    52c0:	0028      	movs	r0, r5
    52c2:	f000 fc27 	bl	5b14 <__malloc_unlock>
    52c6:	bd70      	pop	{r4, r5, r6, pc}
    52c8:	42a3      	cmp	r3, r4
    52ca:	d909      	bls.n	52e0 <_free_r+0x44>
    52cc:	6821      	ldr	r1, [r4, #0]
    52ce:	1860      	adds	r0, r4, r1
    52d0:	4283      	cmp	r3, r0
    52d2:	d1f3      	bne.n	52bc <_free_r+0x20>
    52d4:	6818      	ldr	r0, [r3, #0]
    52d6:	685b      	ldr	r3, [r3, #4]
    52d8:	1841      	adds	r1, r0, r1
    52da:	6021      	str	r1, [r4, #0]
    52dc:	e7ee      	b.n	52bc <_free_r+0x20>
    52de:	0013      	movs	r3, r2
    52e0:	685a      	ldr	r2, [r3, #4]
    52e2:	2a00      	cmp	r2, #0
    52e4:	d001      	beq.n	52ea <_free_r+0x4e>
    52e6:	42a2      	cmp	r2, r4
    52e8:	d9f9      	bls.n	52de <_free_r+0x42>
    52ea:	6819      	ldr	r1, [r3, #0]
    52ec:	1858      	adds	r0, r3, r1
    52ee:	42a0      	cmp	r0, r4
    52f0:	d10b      	bne.n	530a <_free_r+0x6e>
    52f2:	6820      	ldr	r0, [r4, #0]
    52f4:	1809      	adds	r1, r1, r0
    52f6:	1858      	adds	r0, r3, r1
    52f8:	6019      	str	r1, [r3, #0]
    52fa:	4282      	cmp	r2, r0
    52fc:	d1e0      	bne.n	52c0 <_free_r+0x24>
    52fe:	6810      	ldr	r0, [r2, #0]
    5300:	6852      	ldr	r2, [r2, #4]
    5302:	1841      	adds	r1, r0, r1
    5304:	6019      	str	r1, [r3, #0]
    5306:	605a      	str	r2, [r3, #4]
    5308:	e7da      	b.n	52c0 <_free_r+0x24>
    530a:	42a0      	cmp	r0, r4
    530c:	d902      	bls.n	5314 <_free_r+0x78>
    530e:	230c      	movs	r3, #12
    5310:	602b      	str	r3, [r5, #0]
    5312:	e7d5      	b.n	52c0 <_free_r+0x24>
    5314:	6821      	ldr	r1, [r4, #0]
    5316:	1860      	adds	r0, r4, r1
    5318:	4282      	cmp	r2, r0
    531a:	d103      	bne.n	5324 <_free_r+0x88>
    531c:	6810      	ldr	r0, [r2, #0]
    531e:	6852      	ldr	r2, [r2, #4]
    5320:	1841      	adds	r1, r0, r1
    5322:	6021      	str	r1, [r4, #0]
    5324:	6062      	str	r2, [r4, #4]
    5326:	605c      	str	r4, [r3, #4]
    5328:	e7ca      	b.n	52c0 <_free_r+0x24>
    532a:	46c0      	nop			; (mov r8, r8)
    532c:	20000170 	.word	0x20000170

00005330 <_malloc_r>:
    5330:	2303      	movs	r3, #3
    5332:	b570      	push	{r4, r5, r6, lr}
    5334:	1ccd      	adds	r5, r1, #3
    5336:	439d      	bics	r5, r3
    5338:	3508      	adds	r5, #8
    533a:	0006      	movs	r6, r0
    533c:	2d0c      	cmp	r5, #12
    533e:	d21e      	bcs.n	537e <_malloc_r+0x4e>
    5340:	250c      	movs	r5, #12
    5342:	42a9      	cmp	r1, r5
    5344:	d81d      	bhi.n	5382 <_malloc_r+0x52>
    5346:	0030      	movs	r0, r6
    5348:	f000 fbe3 	bl	5b12 <__malloc_lock>
    534c:	4a25      	ldr	r2, [pc, #148]	; (53e4 <_malloc_r+0xb4>)
    534e:	6814      	ldr	r4, [r2, #0]
    5350:	0021      	movs	r1, r4
    5352:	2900      	cmp	r1, #0
    5354:	d119      	bne.n	538a <_malloc_r+0x5a>
    5356:	4c24      	ldr	r4, [pc, #144]	; (53e8 <_malloc_r+0xb8>)
    5358:	6823      	ldr	r3, [r4, #0]
    535a:	2b00      	cmp	r3, #0
    535c:	d103      	bne.n	5366 <_malloc_r+0x36>
    535e:	0030      	movs	r0, r6
    5360:	f000 fb10 	bl	5984 <_sbrk_r>
    5364:	6020      	str	r0, [r4, #0]
    5366:	0029      	movs	r1, r5
    5368:	0030      	movs	r0, r6
    536a:	f000 fb0b 	bl	5984 <_sbrk_r>
    536e:	1c43      	adds	r3, r0, #1
    5370:	d12c      	bne.n	53cc <_malloc_r+0x9c>
    5372:	230c      	movs	r3, #12
    5374:	0030      	movs	r0, r6
    5376:	6033      	str	r3, [r6, #0]
    5378:	f000 fbcc 	bl	5b14 <__malloc_unlock>
    537c:	e003      	b.n	5386 <_malloc_r+0x56>
    537e:	2d00      	cmp	r5, #0
    5380:	dadf      	bge.n	5342 <_malloc_r+0x12>
    5382:	230c      	movs	r3, #12
    5384:	6033      	str	r3, [r6, #0]
    5386:	2000      	movs	r0, #0
    5388:	bd70      	pop	{r4, r5, r6, pc}
    538a:	680b      	ldr	r3, [r1, #0]
    538c:	1b5b      	subs	r3, r3, r5
    538e:	d41a      	bmi.n	53c6 <_malloc_r+0x96>
    5390:	2b0b      	cmp	r3, #11
    5392:	d903      	bls.n	539c <_malloc_r+0x6c>
    5394:	600b      	str	r3, [r1, #0]
    5396:	18cc      	adds	r4, r1, r3
    5398:	6025      	str	r5, [r4, #0]
    539a:	e003      	b.n	53a4 <_malloc_r+0x74>
    539c:	428c      	cmp	r4, r1
    539e:	d10e      	bne.n	53be <_malloc_r+0x8e>
    53a0:	6863      	ldr	r3, [r4, #4]
    53a2:	6013      	str	r3, [r2, #0]
    53a4:	0030      	movs	r0, r6
    53a6:	f000 fbb5 	bl	5b14 <__malloc_unlock>
    53aa:	0020      	movs	r0, r4
    53ac:	2207      	movs	r2, #7
    53ae:	300b      	adds	r0, #11
    53b0:	1d23      	adds	r3, r4, #4
    53b2:	4390      	bics	r0, r2
    53b4:	1ac3      	subs	r3, r0, r3
    53b6:	d0e7      	beq.n	5388 <_malloc_r+0x58>
    53b8:	425a      	negs	r2, r3
    53ba:	50e2      	str	r2, [r4, r3]
    53bc:	e7e4      	b.n	5388 <_malloc_r+0x58>
    53be:	684b      	ldr	r3, [r1, #4]
    53c0:	6063      	str	r3, [r4, #4]
    53c2:	000c      	movs	r4, r1
    53c4:	e7ee      	b.n	53a4 <_malloc_r+0x74>
    53c6:	000c      	movs	r4, r1
    53c8:	6849      	ldr	r1, [r1, #4]
    53ca:	e7c2      	b.n	5352 <_malloc_r+0x22>
    53cc:	2303      	movs	r3, #3
    53ce:	1cc4      	adds	r4, r0, #3
    53d0:	439c      	bics	r4, r3
    53d2:	42a0      	cmp	r0, r4
    53d4:	d0e0      	beq.n	5398 <_malloc_r+0x68>
    53d6:	1a21      	subs	r1, r4, r0
    53d8:	0030      	movs	r0, r6
    53da:	f000 fad3 	bl	5984 <_sbrk_r>
    53de:	1c43      	adds	r3, r0, #1
    53e0:	d1da      	bne.n	5398 <_malloc_r+0x68>
    53e2:	e7c6      	b.n	5372 <_malloc_r+0x42>
    53e4:	20000170 	.word	0x20000170
    53e8:	20000174 	.word	0x20000174

000053ec <__sfputc_r>:
    53ec:	6893      	ldr	r3, [r2, #8]
    53ee:	b510      	push	{r4, lr}
    53f0:	3b01      	subs	r3, #1
    53f2:	6093      	str	r3, [r2, #8]
    53f4:	2b00      	cmp	r3, #0
    53f6:	da05      	bge.n	5404 <__sfputc_r+0x18>
    53f8:	6994      	ldr	r4, [r2, #24]
    53fa:	42a3      	cmp	r3, r4
    53fc:	db08      	blt.n	5410 <__sfputc_r+0x24>
    53fe:	b2cb      	uxtb	r3, r1
    5400:	2b0a      	cmp	r3, #10
    5402:	d005      	beq.n	5410 <__sfputc_r+0x24>
    5404:	6813      	ldr	r3, [r2, #0]
    5406:	1c58      	adds	r0, r3, #1
    5408:	6010      	str	r0, [r2, #0]
    540a:	7019      	strb	r1, [r3, #0]
    540c:	b2c8      	uxtb	r0, r1
    540e:	bd10      	pop	{r4, pc}
    5410:	f7ff fc74 	bl	4cfc <__swbuf_r>
    5414:	e7fb      	b.n	540e <__sfputc_r+0x22>

00005416 <__sfputs_r>:
    5416:	b5f8      	push	{r3, r4, r5, r6, r7, lr}
    5418:	0006      	movs	r6, r0
    541a:	000f      	movs	r7, r1
    541c:	0014      	movs	r4, r2
    541e:	18d5      	adds	r5, r2, r3
    5420:	42ac      	cmp	r4, r5
    5422:	d101      	bne.n	5428 <__sfputs_r+0x12>
    5424:	2000      	movs	r0, #0
    5426:	e007      	b.n	5438 <__sfputs_r+0x22>
    5428:	7821      	ldrb	r1, [r4, #0]
    542a:	003a      	movs	r2, r7
    542c:	0030      	movs	r0, r6
    542e:	f7ff ffdd 	bl	53ec <__sfputc_r>
    5432:	3401      	adds	r4, #1
    5434:	1c43      	adds	r3, r0, #1
    5436:	d1f3      	bne.n	5420 <__sfputs_r+0xa>
    5438:	bdf8      	pop	{r3, r4, r5, r6, r7, pc}
	...

0000543c <_vfiprintf_r>:
    543c:	b5f0      	push	{r4, r5, r6, r7, lr}
    543e:	b09f      	sub	sp, #124	; 0x7c
    5440:	0006      	movs	r6, r0
    5442:	000f      	movs	r7, r1
    5444:	0014      	movs	r4, r2
    5446:	9305      	str	r3, [sp, #20]
    5448:	2800      	cmp	r0, #0
    544a:	d004      	beq.n	5456 <_vfiprintf_r+0x1a>
    544c:	6983      	ldr	r3, [r0, #24]
    544e:	2b00      	cmp	r3, #0
    5450:	d101      	bne.n	5456 <_vfiprintf_r+0x1a>
    5452:	f7ff fe17 	bl	5084 <__sinit>
    5456:	4b7f      	ldr	r3, [pc, #508]	; (5654 <_vfiprintf_r+0x218>)
    5458:	429f      	cmp	r7, r3
    545a:	d15c      	bne.n	5516 <_vfiprintf_r+0xda>
    545c:	6877      	ldr	r7, [r6, #4]
    545e:	89bb      	ldrh	r3, [r7, #12]
    5460:	071b      	lsls	r3, r3, #28
    5462:	d562      	bpl.n	552a <_vfiprintf_r+0xee>
    5464:	693b      	ldr	r3, [r7, #16]
    5466:	2b00      	cmp	r3, #0
    5468:	d05f      	beq.n	552a <_vfiprintf_r+0xee>
    546a:	2300      	movs	r3, #0
    546c:	ad06      	add	r5, sp, #24
    546e:	616b      	str	r3, [r5, #20]
    5470:	3320      	adds	r3, #32
    5472:	766b      	strb	r3, [r5, #25]
    5474:	3310      	adds	r3, #16
    5476:	76ab      	strb	r3, [r5, #26]
    5478:	9402      	str	r4, [sp, #8]
    547a:	9c02      	ldr	r4, [sp, #8]
    547c:	7823      	ldrb	r3, [r4, #0]
    547e:	2b00      	cmp	r3, #0
    5480:	d15d      	bne.n	553e <_vfiprintf_r+0x102>
    5482:	9b02      	ldr	r3, [sp, #8]
    5484:	1ae3      	subs	r3, r4, r3
    5486:	9304      	str	r3, [sp, #16]
    5488:	d00d      	beq.n	54a6 <_vfiprintf_r+0x6a>
    548a:	9b04      	ldr	r3, [sp, #16]
    548c:	9a02      	ldr	r2, [sp, #8]
    548e:	0039      	movs	r1, r7
    5490:	0030      	movs	r0, r6
    5492:	f7ff ffc0 	bl	5416 <__sfputs_r>
    5496:	1c43      	adds	r3, r0, #1
    5498:	d100      	bne.n	549c <_vfiprintf_r+0x60>
    549a:	e0cc      	b.n	5636 <_vfiprintf_r+0x1fa>
    549c:	696a      	ldr	r2, [r5, #20]
    549e:	9b04      	ldr	r3, [sp, #16]
    54a0:	4694      	mov	ip, r2
    54a2:	4463      	add	r3, ip
    54a4:	616b      	str	r3, [r5, #20]
    54a6:	7823      	ldrb	r3, [r4, #0]
    54a8:	2b00      	cmp	r3, #0
    54aa:	d100      	bne.n	54ae <_vfiprintf_r+0x72>
    54ac:	e0c3      	b.n	5636 <_vfiprintf_r+0x1fa>
    54ae:	2201      	movs	r2, #1
    54b0:	2300      	movs	r3, #0
    54b2:	4252      	negs	r2, r2
    54b4:	606a      	str	r2, [r5, #4]
    54b6:	a902      	add	r1, sp, #8
    54b8:	3254      	adds	r2, #84	; 0x54
    54ba:	1852      	adds	r2, r2, r1
    54bc:	3401      	adds	r4, #1
    54be:	602b      	str	r3, [r5, #0]
    54c0:	60eb      	str	r3, [r5, #12]
    54c2:	60ab      	str	r3, [r5, #8]
    54c4:	7013      	strb	r3, [r2, #0]
    54c6:	65ab      	str	r3, [r5, #88]	; 0x58
    54c8:	7821      	ldrb	r1, [r4, #0]
    54ca:	2205      	movs	r2, #5
    54cc:	4862      	ldr	r0, [pc, #392]	; (5658 <_vfiprintf_r+0x21c>)
    54ce:	f000 fb15 	bl	5afc <memchr>
    54d2:	1c63      	adds	r3, r4, #1
    54d4:	469c      	mov	ip, r3
    54d6:	2800      	cmp	r0, #0
    54d8:	d135      	bne.n	5546 <_vfiprintf_r+0x10a>
    54da:	6829      	ldr	r1, [r5, #0]
    54dc:	06cb      	lsls	r3, r1, #27
    54de:	d504      	bpl.n	54ea <_vfiprintf_r+0xae>
    54e0:	2353      	movs	r3, #83	; 0x53
    54e2:	aa02      	add	r2, sp, #8
    54e4:	3020      	adds	r0, #32
    54e6:	189b      	adds	r3, r3, r2
    54e8:	7018      	strb	r0, [r3, #0]
    54ea:	070b      	lsls	r3, r1, #28
    54ec:	d504      	bpl.n	54f8 <_vfiprintf_r+0xbc>
    54ee:	2353      	movs	r3, #83	; 0x53
    54f0:	202b      	movs	r0, #43	; 0x2b
    54f2:	aa02      	add	r2, sp, #8
    54f4:	189b      	adds	r3, r3, r2
    54f6:	7018      	strb	r0, [r3, #0]
    54f8:	7823      	ldrb	r3, [r4, #0]
    54fa:	2b2a      	cmp	r3, #42	; 0x2a
    54fc:	d02c      	beq.n	5558 <_vfiprintf_r+0x11c>
    54fe:	2000      	movs	r0, #0
    5500:	210a      	movs	r1, #10
    5502:	9b09      	ldr	r3, [sp, #36]	; 0x24
    5504:	7822      	ldrb	r2, [r4, #0]
    5506:	3a30      	subs	r2, #48	; 0x30
    5508:	2a09      	cmp	r2, #9
    550a:	d800      	bhi.n	550e <_vfiprintf_r+0xd2>
    550c:	e06b      	b.n	55e6 <_vfiprintf_r+0x1aa>
    550e:	2800      	cmp	r0, #0
    5510:	d02a      	beq.n	5568 <_vfiprintf_r+0x12c>
    5512:	9309      	str	r3, [sp, #36]	; 0x24
    5514:	e028      	b.n	5568 <_vfiprintf_r+0x12c>
    5516:	4b51      	ldr	r3, [pc, #324]	; (565c <_vfiprintf_r+0x220>)
    5518:	429f      	cmp	r7, r3
    551a:	d101      	bne.n	5520 <_vfiprintf_r+0xe4>
    551c:	68b7      	ldr	r7, [r6, #8]
    551e:	e79e      	b.n	545e <_vfiprintf_r+0x22>
    5520:	4b4f      	ldr	r3, [pc, #316]	; (5660 <_vfiprintf_r+0x224>)
    5522:	429f      	cmp	r7, r3
    5524:	d19b      	bne.n	545e <_vfiprintf_r+0x22>
    5526:	68f7      	ldr	r7, [r6, #12]
    5528:	e799      	b.n	545e <_vfiprintf_r+0x22>
    552a:	0039      	movs	r1, r7
    552c:	0030      	movs	r0, r6
    552e:	f7ff fc3b 	bl	4da8 <__swsetup_r>
    5532:	2800      	cmp	r0, #0
    5534:	d099      	beq.n	546a <_vfiprintf_r+0x2e>
    5536:	2001      	movs	r0, #1
    5538:	4240      	negs	r0, r0
    553a:	b01f      	add	sp, #124	; 0x7c
    553c:	bdf0      	pop	{r4, r5, r6, r7, pc}
    553e:	2b25      	cmp	r3, #37	; 0x25
    5540:	d09f      	beq.n	5482 <_vfiprintf_r+0x46>
    5542:	3401      	adds	r4, #1
    5544:	e79a      	b.n	547c <_vfiprintf_r+0x40>
    5546:	4b44      	ldr	r3, [pc, #272]	; (5658 <_vfiprintf_r+0x21c>)
    5548:	6829      	ldr	r1, [r5, #0]
    554a:	1ac0      	subs	r0, r0, r3
    554c:	2301      	movs	r3, #1
    554e:	4083      	lsls	r3, r0
    5550:	430b      	orrs	r3, r1
    5552:	602b      	str	r3, [r5, #0]
    5554:	4664      	mov	r4, ip
    5556:	e7b7      	b.n	54c8 <_vfiprintf_r+0x8c>
    5558:	9b05      	ldr	r3, [sp, #20]
    555a:	1d18      	adds	r0, r3, #4
    555c:	681b      	ldr	r3, [r3, #0]
    555e:	9005      	str	r0, [sp, #20]
    5560:	2b00      	cmp	r3, #0
    5562:	db3a      	blt.n	55da <_vfiprintf_r+0x19e>
    5564:	9309      	str	r3, [sp, #36]	; 0x24
    5566:	4664      	mov	r4, ip
    5568:	7823      	ldrb	r3, [r4, #0]
    556a:	2b2e      	cmp	r3, #46	; 0x2e
    556c:	d10b      	bne.n	5586 <_vfiprintf_r+0x14a>
    556e:	7863      	ldrb	r3, [r4, #1]
    5570:	1c62      	adds	r2, r4, #1
    5572:	2b2a      	cmp	r3, #42	; 0x2a
    5574:	d13f      	bne.n	55f6 <_vfiprintf_r+0x1ba>
    5576:	9b05      	ldr	r3, [sp, #20]
    5578:	3402      	adds	r4, #2
    557a:	1d1a      	adds	r2, r3, #4
    557c:	681b      	ldr	r3, [r3, #0]
    557e:	9205      	str	r2, [sp, #20]
    5580:	2b00      	cmp	r3, #0
    5582:	db35      	blt.n	55f0 <_vfiprintf_r+0x1b4>
    5584:	9307      	str	r3, [sp, #28]
    5586:	7821      	ldrb	r1, [r4, #0]
    5588:	2203      	movs	r2, #3
    558a:	4836      	ldr	r0, [pc, #216]	; (5664 <_vfiprintf_r+0x228>)
    558c:	f000 fab6 	bl	5afc <memchr>
    5590:	2800      	cmp	r0, #0
    5592:	d007      	beq.n	55a4 <_vfiprintf_r+0x168>
    5594:	4b33      	ldr	r3, [pc, #204]	; (5664 <_vfiprintf_r+0x228>)
    5596:	682a      	ldr	r2, [r5, #0]
    5598:	1ac0      	subs	r0, r0, r3
    559a:	2340      	movs	r3, #64	; 0x40
    559c:	4083      	lsls	r3, r0
    559e:	4313      	orrs	r3, r2
    55a0:	602b      	str	r3, [r5, #0]
    55a2:	3401      	adds	r4, #1
    55a4:	7821      	ldrb	r1, [r4, #0]
    55a6:	1c63      	adds	r3, r4, #1
    55a8:	2206      	movs	r2, #6
    55aa:	482f      	ldr	r0, [pc, #188]	; (5668 <_vfiprintf_r+0x22c>)
    55ac:	9302      	str	r3, [sp, #8]
    55ae:	7629      	strb	r1, [r5, #24]
    55b0:	f000 faa4 	bl	5afc <memchr>
    55b4:	2800      	cmp	r0, #0
    55b6:	d044      	beq.n	5642 <_vfiprintf_r+0x206>
    55b8:	4b2c      	ldr	r3, [pc, #176]	; (566c <_vfiprintf_r+0x230>)
    55ba:	2b00      	cmp	r3, #0
    55bc:	d12f      	bne.n	561e <_vfiprintf_r+0x1e2>
    55be:	6829      	ldr	r1, [r5, #0]
    55c0:	9b05      	ldr	r3, [sp, #20]
    55c2:	2207      	movs	r2, #7
    55c4:	05c9      	lsls	r1, r1, #23
    55c6:	d528      	bpl.n	561a <_vfiprintf_r+0x1de>
    55c8:	189b      	adds	r3, r3, r2
    55ca:	4393      	bics	r3, r2
    55cc:	3308      	adds	r3, #8
    55ce:	9305      	str	r3, [sp, #20]
    55d0:	696b      	ldr	r3, [r5, #20]
    55d2:	9a03      	ldr	r2, [sp, #12]
    55d4:	189b      	adds	r3, r3, r2
    55d6:	616b      	str	r3, [r5, #20]
    55d8:	e74f      	b.n	547a <_vfiprintf_r+0x3e>
    55da:	425b      	negs	r3, r3
    55dc:	60eb      	str	r3, [r5, #12]
    55de:	2302      	movs	r3, #2
    55e0:	430b      	orrs	r3, r1
    55e2:	602b      	str	r3, [r5, #0]
    55e4:	e7bf      	b.n	5566 <_vfiprintf_r+0x12a>
    55e6:	434b      	muls	r3, r1
    55e8:	3401      	adds	r4, #1
    55ea:	189b      	adds	r3, r3, r2
    55ec:	2001      	movs	r0, #1
    55ee:	e789      	b.n	5504 <_vfiprintf_r+0xc8>
    55f0:	2301      	movs	r3, #1
    55f2:	425b      	negs	r3, r3
    55f4:	e7c6      	b.n	5584 <_vfiprintf_r+0x148>
    55f6:	2300      	movs	r3, #0
    55f8:	0014      	movs	r4, r2
    55fa:	200a      	movs	r0, #10
    55fc:	001a      	movs	r2, r3
    55fe:	606b      	str	r3, [r5, #4]
    5600:	7821      	ldrb	r1, [r4, #0]
    5602:	3930      	subs	r1, #48	; 0x30
    5604:	2909      	cmp	r1, #9
    5606:	d903      	bls.n	5610 <_vfiprintf_r+0x1d4>
    5608:	2b00      	cmp	r3, #0
    560a:	d0bc      	beq.n	5586 <_vfiprintf_r+0x14a>
    560c:	9207      	str	r2, [sp, #28]
    560e:	e7ba      	b.n	5586 <_vfiprintf_r+0x14a>
    5610:	4342      	muls	r2, r0
    5612:	3401      	adds	r4, #1
    5614:	1852      	adds	r2, r2, r1
    5616:	2301      	movs	r3, #1
    5618:	e7f2      	b.n	5600 <_vfiprintf_r+0x1c4>
    561a:	3307      	adds	r3, #7
    561c:	e7d5      	b.n	55ca <_vfiprintf_r+0x18e>
    561e:	ab05      	add	r3, sp, #20
    5620:	9300      	str	r3, [sp, #0]
    5622:	003a      	movs	r2, r7
    5624:	4b12      	ldr	r3, [pc, #72]	; (5670 <_vfiprintf_r+0x234>)
    5626:	0029      	movs	r1, r5
    5628:	0030      	movs	r0, r6
    562a:	e000      	b.n	562e <_vfiprintf_r+0x1f2>
    562c:	bf00      	nop
    562e:	9003      	str	r0, [sp, #12]
    5630:	9b03      	ldr	r3, [sp, #12]
    5632:	3301      	adds	r3, #1
    5634:	d1cc      	bne.n	55d0 <_vfiprintf_r+0x194>
    5636:	89bb      	ldrh	r3, [r7, #12]
    5638:	065b      	lsls	r3, r3, #25
    563a:	d500      	bpl.n	563e <_vfiprintf_r+0x202>
    563c:	e77b      	b.n	5536 <_vfiprintf_r+0xfa>
    563e:	980b      	ldr	r0, [sp, #44]	; 0x2c
    5640:	e77b      	b.n	553a <_vfiprintf_r+0xfe>
    5642:	ab05      	add	r3, sp, #20
    5644:	9300      	str	r3, [sp, #0]
    5646:	003a      	movs	r2, r7
    5648:	4b09      	ldr	r3, [pc, #36]	; (5670 <_vfiprintf_r+0x234>)
    564a:	0029      	movs	r1, r5
    564c:	0030      	movs	r0, r6
    564e:	f000 f87f 	bl	5750 <_printf_i>
    5652:	e7ec      	b.n	562e <_vfiprintf_r+0x1f2>
    5654:	000062f4 	.word	0x000062f4
    5658:	00006334 	.word	0x00006334
    565c:	00006314 	.word	0x00006314
    5660:	000062d4 	.word	0x000062d4
    5664:	0000633a 	.word	0x0000633a
    5668:	0000633e 	.word	0x0000633e
    566c:	00000000 	.word	0x00000000
    5670:	00005417 	.word	0x00005417

00005674 <_printf_common>:
    5674:	b5f7      	push	{r0, r1, r2, r4, r5, r6, r7, lr}
    5676:	0015      	movs	r5, r2
    5678:	9301      	str	r3, [sp, #4]
    567a:	688a      	ldr	r2, [r1, #8]
    567c:	690b      	ldr	r3, [r1, #16]
    567e:	9000      	str	r0, [sp, #0]
    5680:	000c      	movs	r4, r1
    5682:	4293      	cmp	r3, r2
    5684:	da00      	bge.n	5688 <_printf_common+0x14>
    5686:	0013      	movs	r3, r2
    5688:	0022      	movs	r2, r4
    568a:	602b      	str	r3, [r5, #0]
    568c:	3243      	adds	r2, #67	; 0x43
    568e:	7812      	ldrb	r2, [r2, #0]
    5690:	2a00      	cmp	r2, #0
    5692:	d001      	beq.n	5698 <_printf_common+0x24>
    5694:	3301      	adds	r3, #1
    5696:	602b      	str	r3, [r5, #0]
    5698:	6823      	ldr	r3, [r4, #0]
    569a:	069b      	lsls	r3, r3, #26
    569c:	d502      	bpl.n	56a4 <_printf_common+0x30>
    569e:	682b      	ldr	r3, [r5, #0]
    56a0:	3302      	adds	r3, #2
    56a2:	602b      	str	r3, [r5, #0]
    56a4:	2706      	movs	r7, #6
    56a6:	6823      	ldr	r3, [r4, #0]
    56a8:	401f      	ands	r7, r3
    56aa:	d027      	beq.n	56fc <_printf_common+0x88>
    56ac:	0023      	movs	r3, r4
    56ae:	3343      	adds	r3, #67	; 0x43
    56b0:	781b      	ldrb	r3, [r3, #0]
    56b2:	1e5a      	subs	r2, r3, #1
    56b4:	4193      	sbcs	r3, r2
    56b6:	6822      	ldr	r2, [r4, #0]
    56b8:	0692      	lsls	r2, r2, #26
    56ba:	d430      	bmi.n	571e <_printf_common+0xaa>
    56bc:	0022      	movs	r2, r4
    56be:	9901      	ldr	r1, [sp, #4]
    56c0:	3243      	adds	r2, #67	; 0x43
    56c2:	9800      	ldr	r0, [sp, #0]
    56c4:	9e08      	ldr	r6, [sp, #32]
    56c6:	47b0      	blx	r6
    56c8:	1c43      	adds	r3, r0, #1
    56ca:	d025      	beq.n	5718 <_printf_common+0xa4>
    56cc:	2306      	movs	r3, #6
    56ce:	6820      	ldr	r0, [r4, #0]
    56d0:	682a      	ldr	r2, [r5, #0]
    56d2:	68e1      	ldr	r1, [r4, #12]
    56d4:	4003      	ands	r3, r0
    56d6:	2500      	movs	r5, #0
    56d8:	2b04      	cmp	r3, #4
    56da:	d103      	bne.n	56e4 <_printf_common+0x70>
    56dc:	1a8d      	subs	r5, r1, r2
    56de:	43eb      	mvns	r3, r5
    56e0:	17db      	asrs	r3, r3, #31
    56e2:	401d      	ands	r5, r3
    56e4:	68a3      	ldr	r3, [r4, #8]
    56e6:	6922      	ldr	r2, [r4, #16]
    56e8:	4293      	cmp	r3, r2
    56ea:	dd01      	ble.n	56f0 <_printf_common+0x7c>
    56ec:	1a9b      	subs	r3, r3, r2
    56ee:	18ed      	adds	r5, r5, r3
    56f0:	2700      	movs	r7, #0
    56f2:	42bd      	cmp	r5, r7
    56f4:	d120      	bne.n	5738 <_printf_common+0xc4>
    56f6:	2000      	movs	r0, #0
    56f8:	e010      	b.n	571c <_printf_common+0xa8>
    56fa:	3701      	adds	r7, #1
    56fc:	68e3      	ldr	r3, [r4, #12]
    56fe:	682a      	ldr	r2, [r5, #0]
    5700:	1a9b      	subs	r3, r3, r2
    5702:	429f      	cmp	r7, r3
    5704:	dad2      	bge.n	56ac <_printf_common+0x38>
    5706:	0022      	movs	r2, r4
    5708:	2301      	movs	r3, #1
    570a:	3219      	adds	r2, #25
    570c:	9901      	ldr	r1, [sp, #4]
    570e:	9800      	ldr	r0, [sp, #0]
    5710:	9e08      	ldr	r6, [sp, #32]
    5712:	47b0      	blx	r6
    5714:	1c43      	adds	r3, r0, #1
    5716:	d1f0      	bne.n	56fa <_printf_common+0x86>
    5718:	2001      	movs	r0, #1
    571a:	4240      	negs	r0, r0
    571c:	bdfe      	pop	{r1, r2, r3, r4, r5, r6, r7, pc}
    571e:	2030      	movs	r0, #48	; 0x30
    5720:	18e1      	adds	r1, r4, r3
    5722:	3143      	adds	r1, #67	; 0x43
    5724:	7008      	strb	r0, [r1, #0]
    5726:	0021      	movs	r1, r4
    5728:	1c5a      	adds	r2, r3, #1
    572a:	3145      	adds	r1, #69	; 0x45
    572c:	7809      	ldrb	r1, [r1, #0]
    572e:	18a2      	adds	r2, r4, r2
    5730:	3243      	adds	r2, #67	; 0x43
    5732:	3302      	adds	r3, #2
    5734:	7011      	strb	r1, [r2, #0]
    5736:	e7c1      	b.n	56bc <_printf_common+0x48>
    5738:	0022      	movs	r2, r4
    573a:	2301      	movs	r3, #1
    573c:	321a      	adds	r2, #26
    573e:	9901      	ldr	r1, [sp, #4]
    5740:	9800      	ldr	r0, [sp, #0]
    5742:	9e08      	ldr	r6, [sp, #32]
    5744:	47b0      	blx	r6
    5746:	1c43      	adds	r3, r0, #1
    5748:	d0e6      	beq.n	5718 <_printf_common+0xa4>
    574a:	3701      	adds	r7, #1
    574c:	e7d1      	b.n	56f2 <_printf_common+0x7e>
	...

00005750 <_printf_i>:
    5750:	b5f0      	push	{r4, r5, r6, r7, lr}
    5752:	b08b      	sub	sp, #44	; 0x2c
    5754:	9206      	str	r2, [sp, #24]
    5756:	000a      	movs	r2, r1
    5758:	3243      	adds	r2, #67	; 0x43
    575a:	9307      	str	r3, [sp, #28]
    575c:	9005      	str	r0, [sp, #20]
    575e:	9204      	str	r2, [sp, #16]
    5760:	7e0a      	ldrb	r2, [r1, #24]
    5762:	000c      	movs	r4, r1
    5764:	9b10      	ldr	r3, [sp, #64]	; 0x40
    5766:	2a6e      	cmp	r2, #110	; 0x6e
    5768:	d100      	bne.n	576c <_printf_i+0x1c>
    576a:	e08f      	b.n	588c <_printf_i+0x13c>
    576c:	d817      	bhi.n	579e <_printf_i+0x4e>
    576e:	2a63      	cmp	r2, #99	; 0x63
    5770:	d02c      	beq.n	57cc <_printf_i+0x7c>
    5772:	d808      	bhi.n	5786 <_printf_i+0x36>
    5774:	2a00      	cmp	r2, #0
    5776:	d100      	bne.n	577a <_printf_i+0x2a>
    5778:	e099      	b.n	58ae <_printf_i+0x15e>
    577a:	2a58      	cmp	r2, #88	; 0x58
    577c:	d054      	beq.n	5828 <_printf_i+0xd8>
    577e:	0026      	movs	r6, r4
    5780:	3642      	adds	r6, #66	; 0x42
    5782:	7032      	strb	r2, [r6, #0]
    5784:	e029      	b.n	57da <_printf_i+0x8a>
    5786:	2a64      	cmp	r2, #100	; 0x64
    5788:	d001      	beq.n	578e <_printf_i+0x3e>
    578a:	2a69      	cmp	r2, #105	; 0x69
    578c:	d1f7      	bne.n	577e <_printf_i+0x2e>
    578e:	6821      	ldr	r1, [r4, #0]
    5790:	681a      	ldr	r2, [r3, #0]
    5792:	0608      	lsls	r0, r1, #24
    5794:	d523      	bpl.n	57de <_printf_i+0x8e>
    5796:	1d11      	adds	r1, r2, #4
    5798:	6019      	str	r1, [r3, #0]
    579a:	6815      	ldr	r5, [r2, #0]
    579c:	e025      	b.n	57ea <_printf_i+0x9a>
    579e:	2a73      	cmp	r2, #115	; 0x73
    57a0:	d100      	bne.n	57a4 <_printf_i+0x54>
    57a2:	e088      	b.n	58b6 <_printf_i+0x166>
    57a4:	d808      	bhi.n	57b8 <_printf_i+0x68>
    57a6:	2a6f      	cmp	r2, #111	; 0x6f
    57a8:	d029      	beq.n	57fe <_printf_i+0xae>
    57aa:	2a70      	cmp	r2, #112	; 0x70
    57ac:	d1e7      	bne.n	577e <_printf_i+0x2e>
    57ae:	2220      	movs	r2, #32
    57b0:	6809      	ldr	r1, [r1, #0]
    57b2:	430a      	orrs	r2, r1
    57b4:	6022      	str	r2, [r4, #0]
    57b6:	e003      	b.n	57c0 <_printf_i+0x70>
    57b8:	2a75      	cmp	r2, #117	; 0x75
    57ba:	d020      	beq.n	57fe <_printf_i+0xae>
    57bc:	2a78      	cmp	r2, #120	; 0x78
    57be:	d1de      	bne.n	577e <_printf_i+0x2e>
    57c0:	0022      	movs	r2, r4
    57c2:	2178      	movs	r1, #120	; 0x78
    57c4:	3245      	adds	r2, #69	; 0x45
    57c6:	7011      	strb	r1, [r2, #0]
    57c8:	4a6c      	ldr	r2, [pc, #432]	; (597c <_printf_i+0x22c>)
    57ca:	e030      	b.n	582e <_printf_i+0xde>
    57cc:	000e      	movs	r6, r1
    57ce:	681a      	ldr	r2, [r3, #0]
    57d0:	3642      	adds	r6, #66	; 0x42
    57d2:	1d11      	adds	r1, r2, #4
    57d4:	6019      	str	r1, [r3, #0]
    57d6:	6813      	ldr	r3, [r2, #0]
    57d8:	7033      	strb	r3, [r6, #0]
    57da:	2301      	movs	r3, #1
    57dc:	e079      	b.n	58d2 <_printf_i+0x182>
    57de:	0649      	lsls	r1, r1, #25
    57e0:	d5d9      	bpl.n	5796 <_printf_i+0x46>
    57e2:	1d11      	adds	r1, r2, #4
    57e4:	6019      	str	r1, [r3, #0]
    57e6:	2300      	movs	r3, #0
    57e8:	5ed5      	ldrsh	r5, [r2, r3]
    57ea:	2d00      	cmp	r5, #0
    57ec:	da03      	bge.n	57f6 <_printf_i+0xa6>
    57ee:	232d      	movs	r3, #45	; 0x2d
    57f0:	9a04      	ldr	r2, [sp, #16]
    57f2:	426d      	negs	r5, r5
    57f4:	7013      	strb	r3, [r2, #0]
    57f6:	4b62      	ldr	r3, [pc, #392]	; (5980 <_printf_i+0x230>)
    57f8:	270a      	movs	r7, #10
    57fa:	9303      	str	r3, [sp, #12]
    57fc:	e02f      	b.n	585e <_printf_i+0x10e>
    57fe:	6820      	ldr	r0, [r4, #0]
    5800:	6819      	ldr	r1, [r3, #0]
    5802:	0605      	lsls	r5, r0, #24
    5804:	d503      	bpl.n	580e <_printf_i+0xbe>
    5806:	1d08      	adds	r0, r1, #4
    5808:	6018      	str	r0, [r3, #0]
    580a:	680d      	ldr	r5, [r1, #0]
    580c:	e005      	b.n	581a <_printf_i+0xca>
    580e:	0640      	lsls	r0, r0, #25
    5810:	d5f9      	bpl.n	5806 <_printf_i+0xb6>
    5812:	680d      	ldr	r5, [r1, #0]
    5814:	1d08      	adds	r0, r1, #4
    5816:	6018      	str	r0, [r3, #0]
    5818:	b2ad      	uxth	r5, r5
    581a:	4b59      	ldr	r3, [pc, #356]	; (5980 <_printf_i+0x230>)
    581c:	2708      	movs	r7, #8
    581e:	9303      	str	r3, [sp, #12]
    5820:	2a6f      	cmp	r2, #111	; 0x6f
    5822:	d018      	beq.n	5856 <_printf_i+0x106>
    5824:	270a      	movs	r7, #10
    5826:	e016      	b.n	5856 <_printf_i+0x106>
    5828:	3145      	adds	r1, #69	; 0x45
    582a:	700a      	strb	r2, [r1, #0]
    582c:	4a54      	ldr	r2, [pc, #336]	; (5980 <_printf_i+0x230>)
    582e:	9203      	str	r2, [sp, #12]
    5830:	681a      	ldr	r2, [r3, #0]
    5832:	6821      	ldr	r1, [r4, #0]
    5834:	1d10      	adds	r0, r2, #4
    5836:	6018      	str	r0, [r3, #0]
    5838:	6815      	ldr	r5, [r2, #0]
    583a:	0608      	lsls	r0, r1, #24
    583c:	d522      	bpl.n	5884 <_printf_i+0x134>
    583e:	07cb      	lsls	r3, r1, #31
    5840:	d502      	bpl.n	5848 <_printf_i+0xf8>
    5842:	2320      	movs	r3, #32
    5844:	4319      	orrs	r1, r3
    5846:	6021      	str	r1, [r4, #0]
    5848:	2710      	movs	r7, #16
    584a:	2d00      	cmp	r5, #0
    584c:	d103      	bne.n	5856 <_printf_i+0x106>
    584e:	2320      	movs	r3, #32
    5850:	6822      	ldr	r2, [r4, #0]
    5852:	439a      	bics	r2, r3
    5854:	6022      	str	r2, [r4, #0]
    5856:	0023      	movs	r3, r4
    5858:	2200      	movs	r2, #0
    585a:	3343      	adds	r3, #67	; 0x43
    585c:	701a      	strb	r2, [r3, #0]
    585e:	6863      	ldr	r3, [r4, #4]
    5860:	60a3      	str	r3, [r4, #8]
    5862:	2b00      	cmp	r3, #0
    5864:	db5c      	blt.n	5920 <_printf_i+0x1d0>
    5866:	2204      	movs	r2, #4
    5868:	6821      	ldr	r1, [r4, #0]
    586a:	4391      	bics	r1, r2
    586c:	6021      	str	r1, [r4, #0]
    586e:	2d00      	cmp	r5, #0
    5870:	d158      	bne.n	5924 <_printf_i+0x1d4>
    5872:	9e04      	ldr	r6, [sp, #16]
    5874:	2b00      	cmp	r3, #0
    5876:	d064      	beq.n	5942 <_printf_i+0x1f2>
    5878:	0026      	movs	r6, r4
    587a:	9b03      	ldr	r3, [sp, #12]
    587c:	3642      	adds	r6, #66	; 0x42
    587e:	781b      	ldrb	r3, [r3, #0]
    5880:	7033      	strb	r3, [r6, #0]
    5882:	e05e      	b.n	5942 <_printf_i+0x1f2>
    5884:	0648      	lsls	r0, r1, #25
    5886:	d5da      	bpl.n	583e <_printf_i+0xee>
    5888:	b2ad      	uxth	r5, r5
    588a:	e7d8      	b.n	583e <_printf_i+0xee>
    588c:	6809      	ldr	r1, [r1, #0]
    588e:	681a      	ldr	r2, [r3, #0]
    5890:	0608      	lsls	r0, r1, #24
    5892:	d505      	bpl.n	58a0 <_printf_i+0x150>
    5894:	1d11      	adds	r1, r2, #4
    5896:	6019      	str	r1, [r3, #0]
    5898:	6813      	ldr	r3, [r2, #0]
    589a:	6962      	ldr	r2, [r4, #20]
    589c:	601a      	str	r2, [r3, #0]
    589e:	e006      	b.n	58ae <_printf_i+0x15e>
    58a0:	0649      	lsls	r1, r1, #25
    58a2:	d5f7      	bpl.n	5894 <_printf_i+0x144>
    58a4:	1d11      	adds	r1, r2, #4
    58a6:	6019      	str	r1, [r3, #0]
    58a8:	6813      	ldr	r3, [r2, #0]
    58aa:	8aa2      	ldrh	r2, [r4, #20]
    58ac:	801a      	strh	r2, [r3, #0]
    58ae:	2300      	movs	r3, #0
    58b0:	9e04      	ldr	r6, [sp, #16]
    58b2:	6123      	str	r3, [r4, #16]
    58b4:	e054      	b.n	5960 <_printf_i+0x210>
    58b6:	681a      	ldr	r2, [r3, #0]
    58b8:	1d11      	adds	r1, r2, #4
    58ba:	6019      	str	r1, [r3, #0]
    58bc:	6816      	ldr	r6, [r2, #0]
    58be:	2100      	movs	r1, #0
    58c0:	6862      	ldr	r2, [r4, #4]
    58c2:	0030      	movs	r0, r6
    58c4:	f000 f91a 	bl	5afc <memchr>
    58c8:	2800      	cmp	r0, #0
    58ca:	d001      	beq.n	58d0 <_printf_i+0x180>
    58cc:	1b80      	subs	r0, r0, r6
    58ce:	6060      	str	r0, [r4, #4]
    58d0:	6863      	ldr	r3, [r4, #4]
    58d2:	6123      	str	r3, [r4, #16]
    58d4:	2300      	movs	r3, #0
    58d6:	9a04      	ldr	r2, [sp, #16]
    58d8:	7013      	strb	r3, [r2, #0]
    58da:	e041      	b.n	5960 <_printf_i+0x210>
    58dc:	6923      	ldr	r3, [r4, #16]
    58de:	0032      	movs	r2, r6
    58e0:	9906      	ldr	r1, [sp, #24]
    58e2:	9805      	ldr	r0, [sp, #20]
    58e4:	9d07      	ldr	r5, [sp, #28]
    58e6:	47a8      	blx	r5
    58e8:	1c43      	adds	r3, r0, #1
    58ea:	d043      	beq.n	5974 <_printf_i+0x224>
    58ec:	6823      	ldr	r3, [r4, #0]
    58ee:	2500      	movs	r5, #0
    58f0:	079b      	lsls	r3, r3, #30
    58f2:	d40f      	bmi.n	5914 <_printf_i+0x1c4>
    58f4:	9b09      	ldr	r3, [sp, #36]	; 0x24
    58f6:	68e0      	ldr	r0, [r4, #12]
    58f8:	4298      	cmp	r0, r3
    58fa:	da3d      	bge.n	5978 <_printf_i+0x228>
    58fc:	0018      	movs	r0, r3
    58fe:	e03b      	b.n	5978 <_printf_i+0x228>
    5900:	0022      	movs	r2, r4
    5902:	2301      	movs	r3, #1
    5904:	3219      	adds	r2, #25
    5906:	9906      	ldr	r1, [sp, #24]
    5908:	9805      	ldr	r0, [sp, #20]
    590a:	9e07      	ldr	r6, [sp, #28]
    590c:	47b0      	blx	r6
    590e:	1c43      	adds	r3, r0, #1
    5910:	d030      	beq.n	5974 <_printf_i+0x224>
    5912:	3501      	adds	r5, #1
    5914:	68e3      	ldr	r3, [r4, #12]
    5916:	9a09      	ldr	r2, [sp, #36]	; 0x24
    5918:	1a9b      	subs	r3, r3, r2
    591a:	429d      	cmp	r5, r3
    591c:	dbf0      	blt.n	5900 <_printf_i+0x1b0>
    591e:	e7e9      	b.n	58f4 <_printf_i+0x1a4>
    5920:	2d00      	cmp	r5, #0
    5922:	d0a9      	beq.n	5878 <_printf_i+0x128>
    5924:	9e04      	ldr	r6, [sp, #16]
    5926:	0028      	movs	r0, r5
    5928:	0039      	movs	r1, r7
    592a:	f7fe fe47 	bl	45bc <__aeabi_uidivmod>
    592e:	9b03      	ldr	r3, [sp, #12]
    5930:	3e01      	subs	r6, #1
    5932:	5c5b      	ldrb	r3, [r3, r1]
    5934:	0028      	movs	r0, r5
    5936:	7033      	strb	r3, [r6, #0]
    5938:	0039      	movs	r1, r7
    593a:	f7fe fdb9 	bl	44b0 <__udivsi3>
    593e:	1e05      	subs	r5, r0, #0
    5940:	d1f1      	bne.n	5926 <_printf_i+0x1d6>
    5942:	2f08      	cmp	r7, #8
    5944:	d109      	bne.n	595a <_printf_i+0x20a>
    5946:	6823      	ldr	r3, [r4, #0]
    5948:	07db      	lsls	r3, r3, #31
    594a:	d506      	bpl.n	595a <_printf_i+0x20a>
    594c:	6863      	ldr	r3, [r4, #4]
    594e:	6922      	ldr	r2, [r4, #16]
    5950:	4293      	cmp	r3, r2
    5952:	dc02      	bgt.n	595a <_printf_i+0x20a>
    5954:	2330      	movs	r3, #48	; 0x30
    5956:	3e01      	subs	r6, #1
    5958:	7033      	strb	r3, [r6, #0]
    595a:	9b04      	ldr	r3, [sp, #16]
    595c:	1b9b      	subs	r3, r3, r6
    595e:	6123      	str	r3, [r4, #16]
    5960:	9b07      	ldr	r3, [sp, #28]
    5962:	aa09      	add	r2, sp, #36	; 0x24
    5964:	9300      	str	r3, [sp, #0]
    5966:	0021      	movs	r1, r4
    5968:	9b06      	ldr	r3, [sp, #24]
    596a:	9805      	ldr	r0, [sp, #20]
    596c:	f7ff fe82 	bl	5674 <_printf_common>
    5970:	1c43      	adds	r3, r0, #1
    5972:	d1b3      	bne.n	58dc <_printf_i+0x18c>
    5974:	2001      	movs	r0, #1
    5976:	4240      	negs	r0, r0
    5978:	b00b      	add	sp, #44	; 0x2c
    597a:	bdf0      	pop	{r4, r5, r6, r7, pc}
    597c:	00006356 	.word	0x00006356
    5980:	00006345 	.word	0x00006345

00005984 <_sbrk_r>:
    5984:	2300      	movs	r3, #0
    5986:	b570      	push	{r4, r5, r6, lr}
    5988:	4c06      	ldr	r4, [pc, #24]	; (59a4 <_sbrk_r+0x20>)
    598a:	0005      	movs	r5, r0
    598c:	0008      	movs	r0, r1
    598e:	6023      	str	r3, [r4, #0]
    5990:	f7fd f8e8 	bl	2b64 <_sbrk>
    5994:	1c43      	adds	r3, r0, #1
    5996:	d103      	bne.n	59a0 <_sbrk_r+0x1c>
    5998:	6823      	ldr	r3, [r4, #0]
    599a:	2b00      	cmp	r3, #0
    599c:	d000      	beq.n	59a0 <_sbrk_r+0x1c>
    599e:	602b      	str	r3, [r5, #0]
    59a0:	bd70      	pop	{r4, r5, r6, pc}
    59a2:	46c0      	nop			; (mov r8, r8)
    59a4:	200001e0 	.word	0x200001e0

000059a8 <__sread>:
    59a8:	b570      	push	{r4, r5, r6, lr}
    59aa:	000c      	movs	r4, r1
    59ac:	250e      	movs	r5, #14
    59ae:	5f49      	ldrsh	r1, [r1, r5]
    59b0:	f000 f8b2 	bl	5b18 <_read_r>
    59b4:	2800      	cmp	r0, #0
    59b6:	db03      	blt.n	59c0 <__sread+0x18>
    59b8:	6d63      	ldr	r3, [r4, #84]	; 0x54
    59ba:	181b      	adds	r3, r3, r0
    59bc:	6563      	str	r3, [r4, #84]	; 0x54
    59be:	bd70      	pop	{r4, r5, r6, pc}
    59c0:	89a3      	ldrh	r3, [r4, #12]
    59c2:	4a02      	ldr	r2, [pc, #8]	; (59cc <__sread+0x24>)
    59c4:	4013      	ands	r3, r2
    59c6:	81a3      	strh	r3, [r4, #12]
    59c8:	e7f9      	b.n	59be <__sread+0x16>
    59ca:	46c0      	nop			; (mov r8, r8)
    59cc:	ffffefff 	.word	0xffffefff

000059d0 <__swrite>:
    59d0:	b5f8      	push	{r3, r4, r5, r6, r7, lr}
    59d2:	001f      	movs	r7, r3
    59d4:	898b      	ldrh	r3, [r1, #12]
    59d6:	0005      	movs	r5, r0
    59d8:	000c      	movs	r4, r1
    59da:	0016      	movs	r6, r2
    59dc:	05db      	lsls	r3, r3, #23
    59de:	d505      	bpl.n	59ec <__swrite+0x1c>
    59e0:	230e      	movs	r3, #14
    59e2:	5ec9      	ldrsh	r1, [r1, r3]
    59e4:	2200      	movs	r2, #0
    59e6:	2302      	movs	r3, #2
    59e8:	f000 f874 	bl	5ad4 <_lseek_r>
    59ec:	89a3      	ldrh	r3, [r4, #12]
    59ee:	4a05      	ldr	r2, [pc, #20]	; (5a04 <__swrite+0x34>)
    59f0:	0028      	movs	r0, r5
    59f2:	4013      	ands	r3, r2
    59f4:	81a3      	strh	r3, [r4, #12]
    59f6:	0032      	movs	r2, r6
    59f8:	230e      	movs	r3, #14
    59fa:	5ee1      	ldrsh	r1, [r4, r3]
    59fc:	003b      	movs	r3, r7
    59fe:	f000 f81f 	bl	5a40 <_write_r>
    5a02:	bdf8      	pop	{r3, r4, r5, r6, r7, pc}
    5a04:	ffffefff 	.word	0xffffefff

00005a08 <__sseek>:
    5a08:	b570      	push	{r4, r5, r6, lr}
    5a0a:	000c      	movs	r4, r1
    5a0c:	250e      	movs	r5, #14
    5a0e:	5f49      	ldrsh	r1, [r1, r5]
    5a10:	f000 f860 	bl	5ad4 <_lseek_r>
    5a14:	89a3      	ldrh	r3, [r4, #12]
    5a16:	1c42      	adds	r2, r0, #1
    5a18:	d103      	bne.n	5a22 <__sseek+0x1a>
    5a1a:	4a05      	ldr	r2, [pc, #20]	; (5a30 <__sseek+0x28>)
    5a1c:	4013      	ands	r3, r2
    5a1e:	81a3      	strh	r3, [r4, #12]
    5a20:	bd70      	pop	{r4, r5, r6, pc}
    5a22:	2280      	movs	r2, #128	; 0x80
    5a24:	0152      	lsls	r2, r2, #5
    5a26:	4313      	orrs	r3, r2
    5a28:	81a3      	strh	r3, [r4, #12]
    5a2a:	6560      	str	r0, [r4, #84]	; 0x54
    5a2c:	e7f8      	b.n	5a20 <__sseek+0x18>
    5a2e:	46c0      	nop			; (mov r8, r8)
    5a30:	ffffefff 	.word	0xffffefff

00005a34 <__sclose>:
    5a34:	b510      	push	{r4, lr}
    5a36:	230e      	movs	r3, #14
    5a38:	5ec9      	ldrsh	r1, [r1, r3]
    5a3a:	f000 f815 	bl	5a68 <_close_r>
    5a3e:	bd10      	pop	{r4, pc}

00005a40 <_write_r>:
    5a40:	b570      	push	{r4, r5, r6, lr}
    5a42:	0005      	movs	r5, r0
    5a44:	0008      	movs	r0, r1
    5a46:	0011      	movs	r1, r2
    5a48:	2200      	movs	r2, #0
    5a4a:	4c06      	ldr	r4, [pc, #24]	; (5a64 <_write_r+0x24>)
    5a4c:	6022      	str	r2, [r4, #0]
    5a4e:	001a      	movs	r2, r3
    5a50:	f7fd f86e 	bl	2b30 <_write>
    5a54:	1c43      	adds	r3, r0, #1
    5a56:	d103      	bne.n	5a60 <_write_r+0x20>
    5a58:	6823      	ldr	r3, [r4, #0]
    5a5a:	2b00      	cmp	r3, #0
    5a5c:	d000      	beq.n	5a60 <_write_r+0x20>
    5a5e:	602b      	str	r3, [r5, #0]
    5a60:	bd70      	pop	{r4, r5, r6, pc}
    5a62:	46c0      	nop			; (mov r8, r8)
    5a64:	200001e0 	.word	0x200001e0

00005a68 <_close_r>:
    5a68:	2300      	movs	r3, #0
    5a6a:	b570      	push	{r4, r5, r6, lr}
    5a6c:	4c06      	ldr	r4, [pc, #24]	; (5a88 <_close_r+0x20>)
    5a6e:	0005      	movs	r5, r0
    5a70:	0008      	movs	r0, r1
    5a72:	6023      	str	r3, [r4, #0]
    5a74:	f7fd f886 	bl	2b84 <_close>
    5a78:	1c43      	adds	r3, r0, #1
    5a7a:	d103      	bne.n	5a84 <_close_r+0x1c>
    5a7c:	6823      	ldr	r3, [r4, #0]
    5a7e:	2b00      	cmp	r3, #0
    5a80:	d000      	beq.n	5a84 <_close_r+0x1c>
    5a82:	602b      	str	r3, [r5, #0]
    5a84:	bd70      	pop	{r4, r5, r6, pc}
    5a86:	46c0      	nop			; (mov r8, r8)
    5a88:	200001e0 	.word	0x200001e0

00005a8c <_fstat_r>:
    5a8c:	2300      	movs	r3, #0
    5a8e:	b570      	push	{r4, r5, r6, lr}
    5a90:	4c06      	ldr	r4, [pc, #24]	; (5aac <_fstat_r+0x20>)
    5a92:	0005      	movs	r5, r0
    5a94:	0008      	movs	r0, r1
    5a96:	0011      	movs	r1, r2
    5a98:	6023      	str	r3, [r4, #0]
    5a9a:	f7fd f876 	bl	2b8a <_fstat>
    5a9e:	1c43      	adds	r3, r0, #1
    5aa0:	d103      	bne.n	5aaa <_fstat_r+0x1e>
    5aa2:	6823      	ldr	r3, [r4, #0]
    5aa4:	2b00      	cmp	r3, #0
    5aa6:	d000      	beq.n	5aaa <_fstat_r+0x1e>
    5aa8:	602b      	str	r3, [r5, #0]
    5aaa:	bd70      	pop	{r4, r5, r6, pc}
    5aac:	200001e0 	.word	0x200001e0

00005ab0 <_isatty_r>:
    5ab0:	2300      	movs	r3, #0
    5ab2:	b570      	push	{r4, r5, r6, lr}
    5ab4:	4c06      	ldr	r4, [pc, #24]	; (5ad0 <_isatty_r+0x20>)
    5ab6:	0005      	movs	r5, r0
    5ab8:	0008      	movs	r0, r1
    5aba:	6023      	str	r3, [r4, #0]
    5abc:	f7fd f86a 	bl	2b94 <_isatty>
    5ac0:	1c43      	adds	r3, r0, #1
    5ac2:	d103      	bne.n	5acc <_isatty_r+0x1c>
    5ac4:	6823      	ldr	r3, [r4, #0]
    5ac6:	2b00      	cmp	r3, #0
    5ac8:	d000      	beq.n	5acc <_isatty_r+0x1c>
    5aca:	602b      	str	r3, [r5, #0]
    5acc:	bd70      	pop	{r4, r5, r6, pc}
    5ace:	46c0      	nop			; (mov r8, r8)
    5ad0:	200001e0 	.word	0x200001e0

00005ad4 <_lseek_r>:
    5ad4:	b570      	push	{r4, r5, r6, lr}
    5ad6:	0005      	movs	r5, r0
    5ad8:	0008      	movs	r0, r1
    5ada:	0011      	movs	r1, r2
    5adc:	2200      	movs	r2, #0
    5ade:	4c06      	ldr	r4, [pc, #24]	; (5af8 <_lseek_r+0x24>)
    5ae0:	6022      	str	r2, [r4, #0]
    5ae2:	001a      	movs	r2, r3
    5ae4:	f7fd f858 	bl	2b98 <_lseek>
    5ae8:	1c43      	adds	r3, r0, #1
    5aea:	d103      	bne.n	5af4 <_lseek_r+0x20>
    5aec:	6823      	ldr	r3, [r4, #0]
    5aee:	2b00      	cmp	r3, #0
    5af0:	d000      	beq.n	5af4 <_lseek_r+0x20>
    5af2:	602b      	str	r3, [r5, #0]
    5af4:	bd70      	pop	{r4, r5, r6, pc}
    5af6:	46c0      	nop			; (mov r8, r8)
    5af8:	200001e0 	.word	0x200001e0

00005afc <memchr>:
    5afc:	b2c9      	uxtb	r1, r1
    5afe:	1882      	adds	r2, r0, r2
    5b00:	4290      	cmp	r0, r2
    5b02:	d101      	bne.n	5b08 <memchr+0xc>
    5b04:	2000      	movs	r0, #0
    5b06:	4770      	bx	lr
    5b08:	7803      	ldrb	r3, [r0, #0]
    5b0a:	428b      	cmp	r3, r1
    5b0c:	d0fb      	beq.n	5b06 <memchr+0xa>
    5b0e:	3001      	adds	r0, #1
    5b10:	e7f6      	b.n	5b00 <memchr+0x4>

00005b12 <__malloc_lock>:
    5b12:	4770      	bx	lr

00005b14 <__malloc_unlock>:
    5b14:	4770      	bx	lr
	...

00005b18 <_read_r>:
    5b18:	b570      	push	{r4, r5, r6, lr}
    5b1a:	0005      	movs	r5, r0
    5b1c:	0008      	movs	r0, r1
    5b1e:	0011      	movs	r1, r2
    5b20:	2200      	movs	r2, #0
    5b22:	4c06      	ldr	r4, [pc, #24]	; (5b3c <_read_r+0x24>)
    5b24:	6022      	str	r2, [r4, #0]
    5b26:	001a      	movs	r2, r3
    5b28:	f7fc ffe6 	bl	2af8 <_read>
    5b2c:	1c43      	adds	r3, r0, #1
    5b2e:	d103      	bne.n	5b38 <_read_r+0x20>
    5b30:	6823      	ldr	r3, [r4, #0]
    5b32:	2b00      	cmp	r3, #0
    5b34:	d000      	beq.n	5b38 <_read_r+0x20>
    5b36:	602b      	str	r3, [r5, #0]
    5b38:	bd70      	pop	{r4, r5, r6, pc}
    5b3a:	46c0      	nop			; (mov r8, r8)
    5b3c:	200001e0 	.word	0x200001e0

00005b40 <mmc_trans_multipliers>:
    5b40:	00000000 0000000a 0000000c 0000000d     ................
    5b50:	0000000f 00000014 0000001a 0000001e     ................
    5b60:	00000023 00000028 0000002d 00000034     #...(...-...4...
    5b70:	00000037 0000003c 00000046 00000050     7...<...F...P...

00005b80 <sd_mmc_trans_units>:
    5b80:	0000000a 00000064 000003e8 00002710     ....d........'..
	...

00005b9c <sd_trans_multipliers>:
    5b9c:	00000000 0000000a 0000000c 0000000d     ................
    5bac:	0000000f 00000014 00000019 0000001e     ................
    5bbc:	00000023 00000028 0000002d 00000032     #...(...-...2...
    5bcc:	00000037 0000003c 00000046 00000050     7...<...F...P...
    5bdc:	42000800 42000c00 42001000 42001400     ...B...B...B...B
    5bec:	42001800 42001c00                       ...B...B

00005bf4 <LfnOfs>:
    5bf4:	07050301 12100e09 1c181614 909a801e              .............

00005c01 <excvt.4558>:
    5c01:	b6909a80 808fb78e d8d4d3d2 8f8eded7     ................
    5c11:	e2929290 ebeae399 9d9a9959 9f9e9d9c     ........Y.......
    5c21:	e9e0d6b5 a7a6a5a5 abaaa9a8 afae21ac     .............!..
    5c31:	b3b2b1b0 b7b6b5b4 bbbab9b8 bfbebdbc     ................
    5c41:	c3c2c1c0 c7c7c5c4 cbcac9c8 cfcecdcc     ................
    5c51:	d3d2d1d0 d7d6d5d4 dbdad9d8 dfdedddc     ................
    5c61:	e3e2e1e0 e7e6e5e5 ebeae9e7 efeeeded     ................
    5c71:	f3f2f1f0 f7f6f5f4 fbfaf9f8 fffefdfc     ................
    5c81:	3c3a2a22 7f7c3f3e 3b2c2b00 005d5b3d     "*:<>?|..+,;=[].
	...

00005c92 <Tbl>:
    5c92:	00fc00c7 00e200e9 00e000e4 00e700e5     ................
    5ca2:	00eb00ea 00ef00e8 00ec00ee 00c500c4     ................
    5cb2:	00e600c9 00f400c6 00f200f6 00f900fb     ................
    5cc2:	00d600ff 00f800dc 00d800a3 019200d7     ................
    5cd2:	00ed00e1 00fa00f3 00d100f1 00ba00aa     ................
    5ce2:	00ae00bf 00bd00ac 00a100bc 00bb00ab     ................
    5cf2:	25922591 25022593 00c12524 00c000c2     .%.%.%.%$%......
    5d02:	256300a9 25572551 00a2255d 251000a5     ..c%Q%W%]%.....%
    5d12:	25342514 251c252c 253c2500 00c300e3     .%4%,%.%.%<%....
    5d22:	2554255a 25662569 25502560 00a4256c     Z%T%i%f%`%P%l%..
    5d32:	00d000f0 00cb00ca 013100c8 00ce00cd     ..........1.....
    5d42:	251800cf 2588250c 00a62584 258000cc     ...%.%.%.%.....%
    5d52:	00df00d3 00d200d4 00d500f5 00fe00b5     ................
    5d62:	00da00de 00d900db 00dd00fd 00b400af     ................
    5d72:	00b100ad 00be2017 00a700b6 00b800f7     ..... ..........
    5d82:	00a800b0 00b900b7 00b200b3 00a025a0     .............%..

00005d92 <tbl_lower.4308>:
    5d92:	00620061 00640063 00660065 00680067     a.b.c.d.e.f.g.h.
    5da2:	006a0069 006c006b 006e006d 0070006f     i.j.k.l.m.n.o.p.
    5db2:	00720071 00740073 00760075 00780077     q.r.s.t.u.v.w.x.
    5dc2:	007a0079 00a200a1 00a500a3 00af00ac     y.z.............
    5dd2:	00e100e0 00e300e2 00e500e4 00e700e6     ................
    5de2:	00e900e8 00eb00ea 00ed00ec 00ef00ee     ................
    5df2:	00f100f0 00f300f2 00f500f4 00f800f6     ................
    5e02:	00fa00f9 00fc00fb 00fe00fd 010100ff     ................
    5e12:	01050103 01090107 010d010b 0111010f     ................
    5e22:	01150113 01190117 011d011b 0121011f     ..............!.
    5e32:	01250123 01290127 012d012b 0131012f     #.%.'.).+.-./.1.
    5e42:	01350133 013a0137 013e013c 01420140     3.5.7.:.<.>.@.B.
    5e52:	01460144 014b0148 014f014d 01530151     D.F.H.K.M.O.Q.S.
    5e62:	01570155 015b0159 015f015d 01630161     U.W.Y.[.]._.a.c.
    5e72:	01670165 016b0169 016f016d 01730171     e.g.i.k.m.o.q.s.
    5e82:	01770175 017c017a 0192017e 03b203b1     u.w.z.|.~.......
    5e92:	03b403b3 03b603b5 03b803b7 03ba03b9     ................
    5ea2:	03bc03bb 03be03bd 03c003bf 03c303c1     ................
    5eb2:	03c503c4 03c703c6 03c903c8 043003ca     ..............0.
    5ec2:	04320431 04340433 04360435 04380437     1.2.3.4.5.6.7.8.
    5ed2:	043a0439 043c043b 043e043d 0440043f     9.:.;.<.=.>.?.@.
    5ee2:	04420441 04440443 04460445 04480447     A.B.C.D.E.F.G.H.
    5ef2:	044a0449 044c044b 044e044d 0451044f     I.J.K.L.M.N.O.Q.
    5f02:	04530452 04550454 04570456 04590458     R.S.T.U.V.W.X.Y.
    5f12:	045b045a 045e045c 2170045f 21722171     Z.[.\.^._.p!q!r!
    5f22:	21742173 21762175 21782177 217a2179     s!t!u!v!w!x!y!z!
    5f32:	217c217b 217e217d ff41217f ff43ff42     {!|!}!~!.!A.B.C.
    5f42:	ff45ff44 ff47ff46 ff49ff48 ff4bff4a     D.E.F.G.H.I.J.K.
    5f52:	ff4dff4c ff4fff4e ff51ff50 ff53ff52     L.M.N.O.P.Q.R.S.
    5f62:	ff55ff54 ff57ff56 ff59ff58 0000ff5a     T.U.V.W.X.Y.Z...

00005f72 <tbl_upper.4309>:
    5f72:	00420041 00440043 00460045 00480047     A.B.C.D.E.F.G.H.
    5f82:	004a0049 004c004b 004e004d 0050004f     I.J.K.L.M.N.O.P.
    5f92:	00520051 00540053 00560055 00580057     Q.R.S.T.U.V.W.X.
    5fa2:	005a0059 ffe00021 ffe5ffe1 ffe3ffe2     Y.Z.!...........
    5fb2:	00c100c0 00c300c2 00c500c4 00c700c6     ................
    5fc2:	00c900c8 00cb00ca 00cd00cc 00cf00ce     ................
    5fd2:	00d100d0 00d300d2 00d500d4 00d800d6     ................
    5fe2:	00da00d9 00dc00db 00de00dd 01000178     ............x...
    5ff2:	01040102 01080106 010c010a 0110010e     ................
    6002:	01140112 01180116 011c011a 0120011e     .............. .
    6012:	01240122 01280126 012c012a 0130012e     ".$.&.(.*.,...0.
    6022:	01340132 01390136 013d013b 0141013f     2.4.6.9.;.=.?.A.
    6032:	01450143 014a0147 014e014c 01520150     C.E.G.J.L.N.P.R.
    6042:	01560154 015a0158 015e015c 01620160     T.V.X.Z.\.^.`.b.
    6052:	01660164 016a0168 016e016c 01720170     d.f.h.j.l.n.p.r.
    6062:	01760174 017b0179 0191017d 03920391     t.v.y.{.}.......
    6072:	03940393 03960395 03980397 039a0399     ................
    6082:	039c039b 039e039d 03a0039f 03a303a1     ................
    6092:	03a503a4 03a703a6 03a903a8 041003aa     ................
    60a2:	04120411 04140413 04160415 04180417     ................
    60b2:	041a0419 041c041b 041e041d 0420041f     .............. .
    60c2:	04220421 04240423 04260425 04280427     !.".#.$.%.&.'.(.
    60d2:	042a0429 042c042b 042e042d 0401042f     ).*.+.,.-.../...
    60e2:	04030402 04050404 04070406 04090408     ................
    60f2:	040b040a 040e040c 2160040f 21622161     ..........`!a!b!
    6102:	21642163 21662165 21682167 216a2169     c!d!e!f!g!h!i!j!
    6112:	216c216b 216e216d ff21216f ff23ff22     k!l!m!n!o!!.".#.
    6122:	ff25ff24 ff27ff26 ff29ff28 ff2bff2a     $.%.&.'.(.).*.+.
    6132:	ff2dff2c ff2fff2e ff31ff30 ff33ff32     ,.-.../.0.1.2.3.
    6142:	ff35ff34 ff37ff36 ff39ff38 0000ff3a     4.5.6.7.8.9.:...
    6152:	2d0d0a0c 4453202d 434d4d2f 72614320     ...-- SD/MMC Car
    6162:	78452064 6c706d61 6e6f2065 74614620     d Example on Fat
    6172:	2d207346 000d0a2d 313a3730 39323a33     Fs --...07:13:29
    6182:	67754100 20362020 34323032 202d2d00     .Aug  6 2024.-- 
    6192:	706d6f43 64656c69 7325203a 20732520     Compiled: %s %s 
    61a2:	0d0a2d2d 656c5000 20657361 67756c70     --...Please plug
    61b2:	206e6120 4d2f4453 6320434d 20647261      an SD/MMC card 
    61c2:	73206e69 2e746f6c 43000d0a 20647261     in slot....Card 
    61d2:	74736e69 206c6c61 4c494146 50000d0a     install FAIL...P
    61e2:	7361656c 6e752065 67756c70 646e6120     lease unplug and
    61f2:	2d657220 67756c70 65687420 72616320      re-plug the car
    6202:	0d0a2e64 756f4d00 6420746e 206b7369     d....Mount disk 
    6212:	6d5f6628 746e756f 2e2e2e29 465b000d     (f_mount).....[F
    6222:	5d4c4941 73657220 0d642520 4f5b000a     AIL] res %d...[O
    6232:	000d5d4b 61657243 61206574 6c696620     K]..Create a fil
    6242:	66282065 65706f5f 2e2e296e 57000d2e     e (f_open).....W
    6252:	65746972 206f7420 74736574 6c696620     rite to test fil
    6262:	66282065 7475705f 2e2e2973 54000d2e     e (f_puts).....T
    6272:	20747365 4d2f4453 7320434d 6b636174     est SD/MMC stack
    6282:	465b000a 5d4c4941 6554000d 69207473     ..[FAIL]..Test i
    6292:	75732073 73656363 6c756673 000d0a2e     s successful....
    62a2:	61656c50 75206573 756c706e 68742067     Please unplug th
    62b2:	61632065 0a2e6472 3a30000d 6d5f6473     e card....0:sd_m
    62c2:	745f636d 2e747365 00747874 00380000              mc_test.txt...

000062d0 <_global_impure_ptr>:
    62d0:	20000038                                8.. 

000062d4 <__sf_fake_stderr>:
	...

000062f4 <__sf_fake_stdin>:
	...

00006314 <__sf_fake_stdout>:
	...
    6334:	2b302d23 6c680020 6665004c 47464567     #-0+ .hlL.efgEFG
    6344:	32313000 36353433 41393837 45444342     .0123456789ABCDE
    6354:	31300046 35343332 39383736 64636261     F.0123456789abcd
    6364:	00006665                                ef..

00006368 <_init>:
    6368:	b5f8      	push	{r3, r4, r5, r6, r7, lr}
    636a:	46c0      	nop			; (mov r8, r8)
    636c:	bcf8      	pop	{r3, r4, r5, r6, r7}
    636e:	bc08      	pop	{r3}
    6370:	469e      	mov	lr, r3
    6372:	4770      	bx	lr

00006374 <__init_array_start>:
    6374:	000000dd 	.word	0x000000dd

00006378 <_fini>:
    6378:	b5f8      	push	{r3, r4, r5, r6, r7, lr}
    637a:	46c0      	nop			; (mov r8, r8)
    637c:	bcf8      	pop	{r3, r4, r5, r6, r7}
    637e:	bc08      	pop	{r3}
    6380:	469e      	mov	lr, r3
    6382:	4770      	bx	lr

00006384 <__fini_array_start>:
    6384:	000000b5 	.word	0x000000b5

Disassembly of section .relocate:

20000000 <portable_delay_cycles>:
20000000:	f3bf 8f5f 	dmb	sy
20000004:	3801      	subs	r0, #1
20000006:	2800      	cmp	r0, #0
20000008:	d1fa      	bne.n	20000000 <portable_delay_cycles>
2000000a:	4770      	bx	lr

2000000c <sd_mmc_cards>:
	...
20000014:	0017 0000 0000 0000 0000 0000 0000 0000     ................
	...

20000030 <ss_pins>:
20000030:	0123                                             #

20000031 <g_interrupt_enabled>:
20000031:	0001 3800                                        ...

20000034 <_impure_ptr>:
20000034:	0038 2000                                   8.. 

20000038 <impure_data>:
20000038:	0000 0000 62f4 0000 6314 0000 62d4 0000     .....b...c...b..
	...
